 ILUT

 Timestamp is 55aab137 (Sat Jul 18 23:04:07 2015)

 Preferred load address is 10000000

 Start         Length     Name                   Class
 0001:00000000 00002818H .text$mn                CODE
 0001:00002820 0000003eH .text$x                 CODE
 0002:00000000 0000014cH .idata$5                DATA
 0002:0000014c 00000004H .CRT$XCA                DATA
 0002:00000150 00000004H .CRT$XCZ                DATA
 0002:00000154 00000004H .CRT$XIA                DATA
 0002:00000158 00000004H .CRT$XIAA               DATA
 0002:0000015c 00000004H .CRT$XIC                DATA
 0002:00000160 00000004H .CRT$XIZ                DATA
 0002:00000170 00000168H .rdata                  DATA
 0002:000002d8 00000078H .rdata$debug            DATA
 0002:00000350 00000090H .rdata$r                DATA
 0002:000003e0 00000008H .rdata$sxdata           DATA
 0002:000003e8 00000004H .rtc$IAA                DATA
 0002:000003ec 00000004H .rtc$IZZ                DATA
 0002:000003f0 00000004H .rtc$TAA                DATA
 0002:000003f4 00000004H .rtc$TZZ                DATA
 0002:000003f8 000000dcH .xdata$x                DATA
 0002:000004e0 00000558H .edata                  DATA
 0002:00000a38 00000078H .idata$2                DATA
 0002:00000ab0 00000014H .idata$3                DATA
 0002:00000ac4 0000014cH .idata$4                DATA
 0002:00000c10 00000562H .idata$6                DATA
 0003:00000000 00000024H .data                   DATA
 0003:00000024 0000002cH .data$r                 DATA
 0003:00000050 000007d4H .bss                    DATA
 0004:00000000 00000058H .rsrc$01                DATA
 0004:00000060 00000180H .rsrc$02                DATA

  Address         Publics by Value              Rva+Base       Lib:Object

 0000:00000000       ___guard_fids_count        00000000     <absolute>
 0000:00000000       ___guard_flags             00000000     <absolute>
 0000:00000000       ___guard_fids_table        00000000     <absolute>
 0000:00000002       ___safe_se_handler_count   00000002     <absolute>
 0000:00000000       ___ImageBase               10000000     <linker-defined>
 0001:00000000       ?ilutInit@@YGXXZ           10001000 f   ilut_main.obj
 0001:00000010       ?ilut2Init@@YGXXZ          10001010 f   ilut_main.obj
 0001:00000020       _DllMain@12                10001020 f   ilut_main.obj
 0001:00000030       ?ilutDisable@@YGEI@Z       10001030 f   ilut_states.obj
 0001:00000050       ?ilutEnable@@YGEI@Z        10001050 f   ilut_states.obj
 0001:00000070       ?ilutGetBoolean@@YGEI@Z    10001070 f   ilut_states.obj
 0001:00000090       ?ilutGetBooleanv@@YGXIPAE@Z 10001090 f   ilut_states.obj
 0001:00000160       ?ilutGetInteger@@YGHI@Z    10001160 f   ilut_states.obj
 0001:00000180       ?ilutGetIntegerv@@YGXIPAH@Z 10001180 f   ilut_states.obj
 0001:00000420       ?ilutGetString@@YGPA_WI@Z  10001420 f   ilut_states.obj
 0001:00000460       ?ilutIsDisabled@@YGEI@Z    10001460 f   ilut_states.obj
 0001:00000480       ?ilutIsEnabled@@YGEI@Z     10001480 f   ilut_states.obj
 0001:00000530       ?ilutPopAttrib@@YGXXZ      10001530 f   ilut_states.obj
 0001:00000550       ?ilutPushAttrib@@YGXI@Z    10001550 f   ilut_states.obj
 0001:000005d0       ?ilutSetInteger@@YGXIH@Z   100015d0 f   ilut_states.obj
 0001:00000780       ?ilutRenderer@@YGEI@Z      10001780 f   ilut_states.obj
 0001:000007c0       ?ilutDefaultStates@@YAXXZ  100017c0 f   ilut_states.obj
 0001:00000840       ?ilutAble@@YAEIE@Z         10001840 f   ilut_states.obj
 0001:00000900       ?ilutD3D8MipFunc@@YGXI@Z   10001900 f   ilut_states.obj
 0001:00000920       ?ilutConvertToHBitmap@@YGPAUHBITMAP__@@PAUHDC__@@@Z 10001920 f   ilut_win32.obj
 0001:00000950       ?ilutConvertSliceToHBitmap@@YGPAUHBITMAP__@@PAUHDC__@@I@Z 10001950 f   ilut_win32.obj
 0001:00000980       ?ilutFreePaddedData@@YGXPAE@Z 10001980 f   ilut_win32.obj
 0001:00000990       ?ilutGetBmpInfo@@YGXPAUtagBITMAPINFO@@@Z 10001990 f   ilut_win32.obj
 0001:00000a40       ?ilutGetHPal@@YGPAUHPALETTE__@@XZ 10001a40 f   ilut_win32.obj
 0001:00000b70       ?ilutGetPaddedData@@YGPAEXZ 10001b70 f   ilut_win32.obj
 0001:00000b80       ?ilutGetWinClipboard@@YGEXZ 10001b80 f   ilut_win32.obj
 0001:00000c80       ?ilutLoadResource@@YGEPAUHINSTANCE__@@HPA_WI@Z 10001c80 f   ilut_win32.obj
 0001:00000ce0       ?ilutSetHBitmap@@YGEPAUHBITMAP__@@@Z 10001ce0 f   ilut_win32.obj
 0001:00000eb0       ?ilutSetHPal@@YGEPAUHPALETTE__@@@Z 10001eb0 f   ilut_win32.obj
 0001:00000f90       ?ilutSetWinClipboard@@YGEXZ 10001f90 f   ilut_win32.obj
 0001:000010c0       ?ilutWinLoadImage@@YGPAUHBITMAP__@@PA_WPAUHDC__@@@Z 100020c0 f   ilut_win32.obj
 0001:00001100       ?ilutWinLoadUrl@@YGEPA_W@Z 10002100 f   ilut_win32.obj
 0001:00001360       ?ilutWinPrint@@YGEIIIIPAUHDC__@@@Z 10002360 f   ilut_win32.obj
 0001:000013c0       ?ilutWinSaveImage@@YGEPA_WPAUHBITMAP__@@@Z 100023c0 f   ilut_win32.obj
 0001:00001410       ?ilut2ConvertToHBitmap@@YGPAUHBITMAP__@@PAUILimage@@PAUHDC__@@@Z 10002410 f   ilut_win32.obj
 0001:00001430       ?ilut2ConvertSliceToHBitmap@@YGPAUHBITMAP__@@PAUILimage@@PAUHDC__@@I@Z 10002430 f   ilut_win32.obj
 0001:00001a00       ?ilutWin32Init@@YAEXZ      10002a00 f   ilut_win32.obj
 0001:00001a10       ?iGetPaddedData@@YGPAEPAUILimage@@@Z 10002a10 f   ilut_win32.obj
 0001:00001b60       ??0ILpal@@QAE@XZ           10002b60 f i ilut_win32.obj
 0001:00001b90       ??1ILpal@@UAE@XZ           10002b90 f i ilut_win32.obj
 0001:00001bc0       ??4ILpal@@QAEXABV0@@Z      10002bc0 f i ilut_win32.obj
 0001:00001c20       ??_GILpal@@UAEPAXI@Z       10002c20 f i ilut_win32.obj
 0001:00001c20       ??_EILpal@@UAEPAXI@Z       10002c20 f i ilut_win32.obj
 0001:00001c60       ?use@ILpal@@QAEEHPAEI@Z    10002c60 f i ilut_win32.obj
 0001:00001d64       ?il2SetError@@YGXI@Z       10002d64 f   resil:ResIL.dll
 0001:00001d6a       ?ialloc@@YGPAXI@Z          10002d6a f   resil:ResIL.dll
 0001:00001d70       ?ifree@@YGXPBX@Z           10002d70 f   resil:ResIL.dll
 0001:00001d76       ?ilGetCurImage@@YGPAUILimage@@XZ 10002d76 f   resil:ResIL.dll
 0001:00001d7c       ?ilSetCurImage@@YGXPAUILimage@@@Z 10002d7c f   resil:ResIL.dll
 0001:00001d82       ?ilTypeFromExt@@YGIPB_W@Z  10002d82 f   resil:ResIL.dll
 0001:00001d88       ?iBindImageTemp@@YGXXZ     10002d88 f   resil:ResIL.dll
 0001:00001d8e       ?ilCloseImage@@YGXPAX@Z    10002d8e f   resil:ResIL.dll
 0001:00001d94       ?ilGetCurName@@YGIXZ       10002d94 f   resil:ResIL.dll
 0001:00001d9a       ?iConvertImage@@YGPAUILimage@@PAU1@II@Z 10002d9a f   resil:ResIL.dll
 0001:00001da0       ?iConvertPal@@YG?AVILpal@@PAV1@I@Z 10002da0 f   resil:ResIL.dll
 0001:00001da6       ?iGetFlipped@@YGPAEPAUILimage@@@Z 10002da6 f   resil:ResIL.dll
 0001:00001dac       ?ilBindImage@@YGXI@Z       10002dac f   resil:ResIL.dll
 0001:00001db2       ?ilConvertPal@@YGEI@Z      10002db2 f   resil:ResIL.dll
 0001:00001db8       ?ilLoadImage@@YGEPB_W@Z    10002db8 f   resil:ResIL.dll
 0001:00001dbe       ?ilLoadL@@YGEIPBXI@Z       10002dbe f   resil:ResIL.dll
 0001:00001dc4       ?ilSaveImage@@YGEPB_W@Z    10002dc4 f   resil:ResIL.dll
 0001:00001dca       ?ilTexImage@@YGEIIIEIIPAX@Z 10002dca f   resil:ResIL.dll
 0001:00001dd0       ??3@YAXPAX@Z               10002dd0 f   msvcrt:MSVCR120.dll
 0001:00001dd6       @__security_check_cookie@4 10002dd6 f   msvcrt:secchk.obj
 0001:00001de6       ___CxxFrameHandler3        10002de6 f   msvcrt:MSVCR120.dll
 0001:00001df0       __alloca_probe             10002df0 f   msvcrt:chkstk.obj
 0001:00001df0       __chkstk                   10002df0 f   msvcrt:chkstk.obj
 0001:00001e1c       _memcpy                    10002e1c f   msvcrt:MSVCR120.dll
 0001:00001e22       _memset                    10002e22 f   msvcrt:MSVCR120.dll
 0001:00001e28       ??_Etype_info@@UAEPAXI@Z   10002e28 f i msvcrt:ti_inst.obj
 0001:00001ebe       __CRT_INIT@12              10002ebe f   msvcrt:crtdll.obj
 0001:000020b5       __DllMainCRTStartup@12     100030b5 f   msvcrt:crtdll.obj
 0001:0000220b       ___raise_securityfailure   1000320b f   msvcrt:gs_report.obj
 0001:00002248       ___report_gsfailure        10003248 f   msvcrt:gs_report.obj
 0001:00002343       ??_M@YGXPAXIHP6EX0@Z@Z     10003343 f   msvcrt:ehvecdtr.obj
 0001:000023b2       ?__ArrayUnwind@@YGXPAXIHP6EX0@Z@Z 100033b2 f   msvcrt:ehvecdtr.obj
 0001:00002410       ??1type_info@@UAE@XZ       10003410 f   msvcrt:MSVCR120.dll
 0001:00002416       ___CppXcptFilter           10003416 f   msvcrt:MSVCR120.dll
 0001:0000241c       __amsg_exit                1000341c f   msvcrt:MSVCR120.dll
 0001:00002430       __FindPESection            10003430 f   msvcrt:pesect.obj
 0001:00002480       __IsNonwritableInCurrentImage 10003480 f   msvcrt:pesect.obj
 0001:00002540       __ValidateImageBase        10003540 f   msvcrt:pesect.obj
 0001:00002571       ___atonexitinit            10003571 f   msvcrt:atonexit.obj
 0001:000025ad       __onexit                   100035ad f   msvcrt:atonexit.obj
 0001:00002656       _atexit                    10003656 f   msvcrt:atonexit.obj
 0001:0000266b       ___security_init_cookie    1000366b f   msvcrt:gs_support.obj
 0001:00002707       __RTC_Initialize           10003707 f   msvcrt:initsect.obj
 0001:00002727       __RTC_Terminate            10003727 f   msvcrt:initsect.obj
 0001:00002748       __initterm                 10003748 f   msvcrt:MSVCR120.dll
 0001:0000274e       __initterm_e               1000374e f   msvcrt:MSVCR120.dll
 0001:00002754       ___clean_type_info_names   10003754 f   msvcrt:tncleanup.obj
 0001:00002760       __SEH_prolog4              10003760 f   msvcrt:sehprolg4.obj
 0001:000027a5       __SEH_epilog4              100037a5 f   msvcrt:sehprolg4.obj
 0001:000027b9       __except_handler4          100037b9 f   msvcrt:chandler4gs.obj
 0001:000027dc       __crt_debugger_hook        100037dc f   msvcrt:MSVCR120.dll
 0001:000027e2       ___crtUnhandledException   100037e2 f   msvcrt:MSVCR120.dll
 0001:000027e8       ___crtTerminateProcess     100037e8 f   msvcrt:MSVCR120.dll
 0001:000027ee       ?terminate@@YAXXZ          100037ee f   msvcrt:MSVCR120.dll
 0001:000027f4       __lock                     100037f4 f   msvcrt:MSVCR120.dll
 0001:000027fa       __unlock                   100037fa f   msvcrt:MSVCR120.dll
 0001:00002800       ___dllonexit               10003800 f   msvcrt:MSVCR120.dll
 0001:00002806       ___clean_type_info_names_internal 10003806 f   msvcrt:MSVCR120.dll
 0001:0000280c       __except_handler4_common   1000380c f   msvcrt:MSVCR120.dll
 0001:00002812       _IsProcessorFeaturePresent@4 10003812 f   kernel32:KERNEL32.dll
 0002:00000000       __imp__DeleteObject@4      10004000     Gdi32:GDI32.dll
 0002:00000004       __imp__CreateCompatibleDC@4 10004004     Gdi32:GDI32.dll
 0002:00000008       __imp__CreatePalette@4     10004008     Gdi32:GDI32.dll
 0002:0000000c       __imp__GetDIBits@28        1000400c     Gdi32:GDI32.dll
 0002:00000010       __imp__GetPaletteEntries@16 10004010     Gdi32:GDI32.dll
 0002:00000014       __imp__SelectObject@8      10004014     Gdi32:GDI32.dll
 0002:00000018       __imp__SetDIBits@28        10004018     Gdi32:GDI32.dll
 0002:0000001c       __imp__CreateCompatibleBitmap@12 1000401c     Gdi32:GDI32.dll
 0002:00000020       \177GDI32_NULL_THUNK_DATA  10004020     Gdi32:GDI32.dll
 0002:00000024       __imp__DecodePointer@4     10004024     kernel32:KERNEL32.dll
 0002:00000028       __imp__IsDebuggerPresent@0 10004028     kernel32:KERNEL32.dll
 0002:0000002c       __imp__IsProcessorFeaturePresent@4 1000402c     kernel32:KERNEL32.dll
 0002:00000030       __imp__QueryPerformanceCounter@4 10004030     kernel32:KERNEL32.dll
 0002:00000034       __imp__GetSystemTimeAsFileTime@4 10004034     kernel32:KERNEL32.dll
 0002:00000038       __imp__GetCurrentProcessId@0 10004038     kernel32:KERNEL32.dll
 0002:0000003c       __imp__GetCurrentThreadId@0 1000403c     kernel32:KERNEL32.dll
 0002:00000040       __imp__EncodePointer@4     10004040     kernel32:KERNEL32.dll
 0002:00000044       __imp__FindResourceW@12    10004044     kernel32:KERNEL32.dll
 0002:00000048       __imp__GlobalUnlock@4      10004048     kernel32:KERNEL32.dll
 0002:0000004c       __imp__LoadResource@8      1000404c     kernel32:KERNEL32.dll
 0002:00000050       __imp__LockResource@4      10004050     kernel32:KERNEL32.dll
 0002:00000054       __imp__SizeofResource@8    10004054     kernel32:KERNEL32.dll
 0002:00000058       __imp__GlobalSize@4        10004058     kernel32:KERNEL32.dll
 0002:0000005c       __imp__GlobalLock@4        1000405c     kernel32:KERNEL32.dll
 0002:00000060       \177KERNEL32_NULL_THUNK_DATA 10004060     kernel32:KERNEL32.dll
 0002:00000064       __imp___except_handler4_common 10004064     msvcrt:MSVCR120.dll
 0002:00000068       __imp____clean_type_info_names_internal 10004068     msvcrt:MSVCR120.dll
 0002:0000006c       __imp_??3@YAXPAX@Z         1000406c     msvcrt:MSVCR120.dll
 0002:00000070       __imp__tolower             10004070     msvcrt:MSVCR120.dll
 0002:00000074       __imp____CxxFrameHandler3  10004074     msvcrt:MSVCR120.dll
 0002:00000078       __imp__memcpy              10004078     msvcrt:MSVCR120.dll
 0002:0000007c       __imp__memset              1000407c     msvcrt:MSVCR120.dll
 0002:00000080       __imp_??1type_info@@UAE@XZ 10004080     msvcrt:MSVCR120.dll
 0002:00000084       __imp____CppXcptFilter     10004084     msvcrt:MSVCR120.dll
 0002:00000088       __imp___amsg_exit          10004088     msvcrt:MSVCR120.dll
 0002:0000008c       __imp__free                1000408c     msvcrt:MSVCR120.dll
 0002:00000090       __imp___malloc_crt         10004090     msvcrt:MSVCR120.dll
 0002:00000094       __imp___initterm           10004094     msvcrt:MSVCR120.dll
 0002:00000098       __imp___initterm_e         10004098     msvcrt:MSVCR120.dll
 0002:0000009c       __imp___crt_debugger_hook  1000409c     msvcrt:MSVCR120.dll
 0002:000000a0       __imp____crtUnhandledException 100040a0     msvcrt:MSVCR120.dll
 0002:000000a4       __imp____crtTerminateProcess 100040a4     msvcrt:MSVCR120.dll
 0002:000000a8       __imp_?terminate@@YAXXZ    100040a8     msvcrt:MSVCR120.dll
 0002:000000ac       __imp___lock               100040ac     msvcrt:MSVCR120.dll
 0002:000000b0       __imp___unlock             100040b0     msvcrt:MSVCR120.dll
 0002:000000b4       __imp___calloc_crt         100040b4     msvcrt:MSVCR120.dll
 0002:000000b8       __imp____dllonexit         100040b8     msvcrt:MSVCR120.dll
 0002:000000bc       __imp___onexit             100040bc     msvcrt:MSVCR120.dll
 0002:000000c0       \177MSVCR120_NULL_THUNK_DATA 100040c0     msvcrt:MSVCR120.dll
 0002:000000c4       __imp_?ilTexImage@@YGEIIIEIIPAX@Z 100040c4     resil:ResIL.dll
 0002:000000c8       __imp_?ialloc@@YGPAXI@Z    100040c8     resil:ResIL.dll
 0002:000000cc       __imp_?ifree@@YGXPBX@Z     100040cc     resil:ResIL.dll
 0002:000000d0       __imp_?ilGetCurImage@@YGPAUILimage@@XZ 100040d0     resil:ResIL.dll
 0002:000000d4       __imp_?ilSetCurImage@@YGXPAUILimage@@@Z 100040d4     resil:ResIL.dll
 0002:000000d8       __imp_?ilTypeFromExt@@YGIPB_W@Z 100040d8     resil:ResIL.dll
 0002:000000dc       __imp_?iBindImageTemp@@YGXXZ 100040dc     resil:ResIL.dll
 0002:000000e0       __imp_?ilCloseImage@@YGXPAX@Z 100040e0     resil:ResIL.dll
 0002:000000e4       __imp_?ilGetCurName@@YGIXZ 100040e4     resil:ResIL.dll
 0002:000000e8       __imp_?iConvertImage@@YGPAUILimage@@PAU1@II@Z 100040e8     resil:ResIL.dll
 0002:000000ec       __imp_?iConvertPal@@YG?AVILpal@@PAV1@I@Z 100040ec     resil:ResIL.dll
 0002:000000f0       __imp_?iGetFlipped@@YGPAEPAUILimage@@@Z 100040f0     resil:ResIL.dll
 0002:000000f4       __imp_?ilBindImage@@YGXI@Z 100040f4     resil:ResIL.dll
 0002:000000f8       __imp_?ilConvertPal@@YGEI@Z 100040f8     resil:ResIL.dll
 0002:000000fc       __imp_?ilLoadImage@@YGEPB_W@Z 100040fc     resil:ResIL.dll
 0002:00000100       __imp_?ilLoadL@@YGEIPBXI@Z 10004100     resil:ResIL.dll
 0002:00000104       __imp_?ilSaveImage@@YGEPB_W@Z 10004104     resil:ResIL.dll
 0002:00000108       __imp_?il2SetError@@YGXI@Z 10004108     resil:ResIL.dll
 0002:0000010c       \177ResIL_NULL_THUNK_DATA  1000410c     resil:ResIL.dll
 0002:00000110       __imp__OpenClipboard@4     10004110     User32:USER32.dll
 0002:00000114       __imp__CloseClipboard@0    10004114     User32:USER32.dll
 0002:00000118       __imp__SetClipboardData@8  10004118     User32:USER32.dll
 0002:0000011c       __imp__GetClipboardData@4  1000411c     User32:USER32.dll
 0002:00000120       __imp__ReleaseDC@8         10004120     User32:USER32.dll
 0002:00000124       __imp__GetDC@4             10004124     User32:USER32.dll
 0002:00000128       __imp__GetForegroundWindow@0 10004128     User32:USER32.dll
 0002:0000012c       __imp__IsClipboardFormatAvailable@4 1000412c     User32:USER32.dll
 0002:00000130       __imp__EmptyClipboard@0    10004130     User32:USER32.dll
 0002:00000134       \177USER32_NULL_THUNK_DATA 10004134     User32:USER32.dll
 0002:00000138       __imp__InternetCloseHandle@4 10004138     Wininet:WININET.dll
 0002:0000013c       __imp__InternetOpenUrlW@24 1000413c     Wininet:WININET.dll
 0002:00000140       __imp__InternetReadFile@16 10004140     Wininet:WININET.dll
 0002:00000144       __imp__InternetOpenW@20    10004144     Wininet:WININET.dll
 0002:00000148       \177WININET_NULL_THUNK_DATA 10004148     Wininet:WININET.dll
 0002:0000014c       ___xc_a                    1000414c     msvcrt:cinitexe.obj
 0002:00000150       ___xc_z                    10004150     msvcrt:cinitexe.obj
 0002:00000154       ___xi_a                    10004154     msvcrt:cinitexe.obj
 0002:00000160       ___xi_z                    10004160     msvcrt:cinitexe.obj
 0002:000001a8       ??_C@_1CC@FLLNLNFB@?$AAA?$AAb?$AAy?$AAs?$AAm?$AAa?$AAl?$AA?5?$AAS?$AAo?$AAf?$AAt?$AAw?$AAa?$AAr?$AAe?$AA?$AA@ 100041a8     ilut_states.obj
 0002:000001d0       ??_C@_1GO@EKIKNOBL@?$AAD?$AAe?$AAv?$AAe?$AAl?$AAo?$AAp?$AAe?$AAr?$AA?8?$AAs?$AA?5?$AAI?$AAm?$AAa?$AAg?$AAe?$AA?5?$AAL?$AAi?$AAb?$AAr?$AAa?$AAr?$AAy?$AA?5?$AAU?$AAt?$AAi?$AAl?$AAi?$AAt@ 100041d0     ilut_states.obj
 0002:00000244       ??_7ILpal@@6B@             10004244     ilut_win32.obj
 0002:00000248       ??_C@_1DE@LHOEMOEC@?$AAD?$AAe?$AAv?$AAe?$AAl?$AAo?$AAp?$AAe?$AAr?$AA?8?$AAs?$AA?5?$AAI?$AAm?$AAa?$AAg?$AAe?$AA?5?$AAL?$AAi?$AAb?$AAr?$AAa?$AAr?$AAy?$AA?$AA@ 10004248     ilut_win32.obj
 0002:00000280       ??_7type_info@@6B@         10004280     msvcrt:ti_inst.obj
 0002:00000284       __pDefaultRawDllMain       10004284     msvcrt:crtdll.obj
 0002:00000284       __pRawDllMain              10004284     msvcrt:crtdll.obj
 0002:00000290       __load_config_used         10004290     msvcrt:loadcfg.obj
 0002:00000350       ??_R4ILpal@@6B@            10004350     ilut_win32.obj
 0002:00000364       ??_R3ILpal@@8              10004364     ilut_win32.obj
 0002:00000374       ??_R2ILpal@@8              10004374     ilut_win32.obj
 0002:0000037c       ??_R1A@?0A@EA@ILpal@@8     1000437c     ilut_win32.obj
 0002:00000398       ??_R4type_info@@6B@        10004398     msvcrt:ti_inst.obj
 0002:000003ac       ??_R3type_info@@8          100043ac     msvcrt:ti_inst.obj
 0002:000003bc       ??_R2type_info@@8          100043bc     msvcrt:ti_inst.obj
 0002:000003c4       ??_R1A@?0A@EA@type_info@@8 100043c4     msvcrt:ti_inst.obj
 0002:000003e0       ___safe_se_handler_table   100043e0     <linker-defined>
 0002:000003e8       ___rtc_iaa                 100043e8     msvcrt:initsect.obj
 0002:000003ec       ___rtc_izz                 100043ec     msvcrt:initsect.obj
 0002:000003f0       ___rtc_taa                 100043f0     msvcrt:initsect.obj
 0002:000003f4       ___rtc_tzz                 100043f4     msvcrt:initsect.obj
 0002:00000a38       __IMPORT_DESCRIPTOR_ResIL  10004a38     resil:ResIL.dll
 0002:00000a4c       __IMPORT_DESCRIPTOR_KERNEL32 10004a4c     kernel32:KERNEL32.dll
 0002:00000a60       __IMPORT_DESCRIPTOR_MSVCR120 10004a60     msvcrt:MSVCR120.dll
 0002:00000a74       __IMPORT_DESCRIPTOR_USER32 10004a74     User32:USER32.dll
 0002:00000a88       __IMPORT_DESCRIPTOR_WININET 10004a88     Wininet:WININET.dll
 0002:00000a9c       __IMPORT_DESCRIPTOR_GDI32  10004a9c     Gdi32:GDI32.dll
 0002:00000ab0       __NULL_IMPORT_DESCRIPTOR   10004ab0     resil:ResIL.dll
 0003:00000000       ?_ilutVendor@@3PB_WB       10006000     ilut_states.obj
 0003:00000004       ?_ilutVersion@@3PB_WB      10006004     ilut_states.obj
 0003:00000010       ___security_cookie         10006010     msvcrt:gs_cookie.obj
 0003:00000014       ___security_cookie_complement 10006014     msvcrt:gs_cookie.obj
 0003:00000020       ___native_dllmain_reason   10006020     msvcrt:natstart.obj
 0003:00000024       ??_R0?AVILpal@@@8          10006024     ilut_win32.obj
 0003:00000038       ??_R0?AVtype_info@@@8      10006038     msvcrt:ti_inst.obj
 0003:00000050       ?ilutCurImage@@3PAUILimage@@A 10006050     ilut_internal.obj
 0003:00000058       ?ilutCurrentPos@@3IA       10006058     ilut_states.obj
 0003:00000060       ?ilutStates@@3PAUILUT_STATES@@A 10006060     ilut_states.obj
 0003:00000808       ?__type_info_root_node@@3U__type_info_node@@A 10006808     msvcrt:tncleanup.obj
 0003:00000810       ___native_startup_lock     10006810     <common>
 0003:00000814       ___native_startup_state    10006814     <common>
 0003:00000818       ___onexitend               10006818     <common>
 0003:0000081c       ___onexitbegin             1000681c     <common>
 0003:00000820       ___dyn_tls_init_callback   10006820     <common>

 entry point at        0001:000020b5

 Static symbols

 0000:ffff7000       .debug$S                   10000000     kernel32:KERNEL32.dll
 0000:ffff7000       .debug$S                   10000000     Gdi32:GDI32.dll
 0000:ffff7000       .debug$S                   10000000     Gdi32:GDI32.dll
 0000:ffff7000       .debug$S                   10000000     Gdi32:GDI32.dll
 0000:ffff7000       .debug$S                   10000000     Wininet:WININET.dll
 0000:ffff7000       .debug$S                   10000000     Wininet:WININET.dll
 0000:ffff7000       .debug$S                   10000000     Wininet:WININET.dll
 0000:ffff7000       .debug$S                   10000000     Wininet:WININET.dll
 0000:ffff7000       .debug$S                   10000000     User32:USER32.dll
 0000:ffff7000       .debug$S                   10000000     User32:USER32.dll
 0000:ffff7000       .debug$S                   10000000     User32:USER32.dll
 0000:ffff7000       .debug$S                   10000000     User32:USER32.dll
 0000:ffff7000       .debug$S                   10000000     User32:USER32.dll
 0000:ffff7000       .debug$S                   10000000     User32:USER32.dll
 0000:ffff7000       .debug$S                   10000000     User32:USER32.dll
 0000:ffff7000       .debug$S                   10000000     User32:USER32.dll
 0000:ffff7000       .debug$S                   10000000     User32:USER32.dll
 0000:ffff7000       .debug$S                   10000000     msvcrt:MSVCR120.dll
 0000:ffff7000       .debug$S                   10000000     msvcrt:MSVCR120.dll
 0000:ffff7000       .debug$S                   10000000     msvcrt:MSVCR120.dll
 0000:ffff7000       .debug$S                   10000000     msvcrt:MSVCR120.dll
 0000:ffff7000       .debug$S                   10000000     msvcrt:MSVCR120.dll
 0000:ffff7000       .debug$S                   10000000     msvcrt:MSVCR120.dll
 0000:ffff7000       .debug$S                   10000000     msvcrt:MSVCR120.dll
 0000:ffff7000       .debug$S                   10000000     msvcrt:MSVCR120.dll
 0000:ffff7000       .debug$S                   10000000     msvcrt:MSVCR120.dll
 0000:ffff7000       .debug$S                   10000000     msvcrt:MSVCR120.dll
 0000:ffff7000       .debug$S                   10000000     msvcrt:MSVCR120.dll
 0000:ffff7000       .debug$S                   10000000     msvcrt:MSVCR120.dll
 0000:ffff7000       .debug$S                   10000000     msvcrt:MSVCR120.dll
 0000:ffff7000       .debug$S                   10000000     msvcrt:MSVCR120.dll
 0000:ffff7000       .debug$S                   10000000     msvcrt:MSVCR120.dll
 0000:ffff7000       .debug$S                   10000000     msvcrt:MSVCR120.dll
 0000:ffff7000       .debug$S                   10000000     msvcrt:MSVCR120.dll
 0000:ffff7000       .debug$S                   10000000     msvcrt:MSVCR120.dll
 0000:ffff7000       .debug$S                   10000000     msvcrt:MSVCR120.dll
 0000:ffff7000       .debug$S                   10000000     msvcrt:MSVCR120.dll
 0000:ffff7000       .debug$S                   10000000     msvcrt:MSVCR120.dll
 0000:ffff7000       .debug$S                   10000000     msvcrt:MSVCR120.dll
 0000:ffff7000       .debug$S                   10000000     msvcrt:MSVCR120.dll
 0000:ffff7000       .debug$S                   10000000     Gdi32:GDI32.dll
 0000:ffff7000       .debug$S                   10000000     Gdi32:GDI32.dll
 0000:ffff7000       .debug$S                   10000000     Gdi32:GDI32.dll
 0000:ffff7000       .debug$S                   10000000     Gdi32:GDI32.dll
 0000:ffff7000       .debug$S                   10000000     kernel32:KERNEL32.dll
 0000:ffff7000       .debug$S                   10000000     kernel32:KERNEL32.dll
 0000:ffff7000       .debug$S                   10000000     kernel32:KERNEL32.dll
 0000:ffff7000       .debug$S                   10000000     kernel32:KERNEL32.dll
 0000:ffff7000       .debug$S                   10000000     resil:ResIL.dll
 0000:ffff7000       .debug$S                   10000000     resil:ResIL.dll
 0000:ffff7000       .debug$S                   10000000     resil:ResIL.dll
 0000:ffff7000       .debug$S                   10000000     resil:ResIL.dll
 0000:ffff7000       .debug$S                   10000000     resil:ResIL.dll
 0000:ffff7000       .debug$S                   10000000     resil:ResIL.dll
 0000:ffff7000       .debug$S                   10000000     resil:ResIL.dll
 0000:ffff7000       .debug$S                   10000000     resil:ResIL.dll
 0000:ffff7000       .debug$S                   10000000     resil:ResIL.dll
 0000:ffff7000       .debug$S                   10000000     resil:ResIL.dll
 0000:ffff7000       .debug$S                   10000000     resil:ResIL.dll
 0000:ffff7000       .debug$S                   10000000     resil:ResIL.dll
 0000:ffff7000       .debug$S                   10000000     resil:ResIL.dll
 0000:ffff7000       .debug$S                   10000000     resil:ResIL.dll
 0000:ffff7000       .debug$S                   10000000     resil:ResIL.dll
 0000:ffff7000       .debug$S                   10000000     resil:ResIL.dll
 0000:ffff7000       .debug$S                   10000000     resil:ResIL.dll
 0000:ffff7000       .debug$S                   10000000     resil:ResIL.dll
 0000:ffff7000       .debug$S                   10000000     kernel32:KERNEL32.dll
 0000:ffff7000       .debug$S                   10000000     kernel32:KERNEL32.dll
 0000:ffff7000       .debug$S                   10000000     kernel32:KERNEL32.dll
 0000:ffff7000       .debug$S                   10000000     kernel32:KERNEL32.dll
 0000:ffff7000       .debug$S                   10000000     kernel32:KERNEL32.dll
 0000:ffff7000       .debug$S                   10000000     kernel32:KERNEL32.dll
 0000:ffff7000       .debug$S                   10000000     kernel32:KERNEL32.dll
 0000:ffff7000       .debug$S                   10000000     kernel32:KERNEL32.dll
 0000:ffff7000       .debug$S                   10000000     kernel32:KERNEL32.dll
 0000:ffff7000       .debug$S                   10000000     kernel32:KERNEL32.dll
 0000:ffff7000       .debug$S                   10000000     Gdi32:GDI32.dll
 0001:00000310       $LN24                      10001310     ilut_states.obj
 0001:00000338       $LN22                      10001338     ilut_states.obj
 0001:00000764       $LN31                      10001764     ilut_states.obj
 0001:00001d4c       $LN22                      10002d4c     ilut_win32.obj
 0001:00001df0       $$000000                   10002df0     msvcrt:chkstk.obj
 0001:00001e72       _pre_c_init                10002e72 f   msvcrt:crtdll.obj
 0001:000020d8       ___DllMainCRTStartup       100030d8 f   msvcrt:crtdll.obj
 0001:00002760       $$000000                   10003760     msvcrt:sehprolg4.obj
 0001:00002820       __unwindfunclet$?ilut2ConvertSliceToHBitmap@@YGPAUHBITMAP__@@PAUILimage@@PAUHDC__@@I@Z$3 10003820 f   ilut_win32.obj
 0001:0000282b       __unwindfunclet$?ilut2ConvertSliceToHBitmap@@YGPAUHBITMAP__@@PAUILimage@@PAUHDC__@@I@Z$4 1000382b f   ilut_win32.obj
 0001:00002836       __ehhandler$?ilut2ConvertSliceToHBitmap@@YGPAUHBITMAP__@@PAUILimage@@PAUHDC__@@I@Z 10003836 f   ilut_win32.obj
 0002:00000158       _pcinit                    10004158     msvcrt:crtdll.obj
 0002:0000015c       _pinit                     1000415c     msvcrt:atonexit.obj
 0002:00000288       _GS_ExceptionPointers      10004288     msvcrt:gs_report.obj
 0002:000003f8       __unwindtable$?ilut2ConvertSliceToHBitmap@@YGPAUHBITMAP__@@PAUILimage@@PAUHDC__@@I@Z 100043f8     ilut_win32.obj
 0002:00000408       __ehfuncinfo$?ilut2ConvertSliceToHBitmap@@YGPAUHBITMAP__@@PAUILimage@@PAUHDC__@@I@Z 10004408     ilut_win32.obj
 0002:00000430       __sehtable$___DllMainCRTStartup 10004430     msvcrt:crtdll.obj
 0002:00000458       __sehtable$??_M@YGXPAXIHP6EX0@Z@Z 10004458     msvcrt:ehvecdtr.obj
 0002:00000478       __sehtable$?__ArrayUnwind@@YGXPAXIHP6EX0@Z@Z 10004478     msvcrt:ehvecdtr.obj
 0002:00000498       __sehtable$__IsNonwritableInCurrentImage 10004498     msvcrt:pesect.obj
 0002:000004b8       __sehtable$__onexit        100044b8     msvcrt:atonexit.obj
 0002:000004e0       .edata                     100044e0     ILUT.exp
 0002:00000508       rgpv                       10004508     ILUT.exp
 0002:0000058c       rgszName                   1000458c     ILUT.exp
 0002:00000610       rgwOrd                     10004610     ILUT.exp
 0002:00000652       szName                     10004652     ILUT.exp
 0002:0000065b       $N00001                    1000465b     ILUT.exp
 0002:000006a2       $N00002                    100046a2     ILUT.exp
 0002:000006b8       $N00003                    100046b8     ILUT.exp
 0002:000006c2       $N00004                    100046c2     ILUT.exp
 0002:000006fc       $N00005                    100046fc     ILUT.exp
 0002:00000711       $N00006                    10004711     ILUT.exp
 0002:00000726       $N00007                    10004726     ILUT.exp
 0002:0000073a       $N00008                    1000473a     ILUT.exp
 0002:00000758       $N00009                    10004758     ILUT.exp
 0002:00000781       $N00010                    10004781     ILUT.exp
 0002:00000799       $N00011                    10004799     ILUT.exp
 0002:000007b5       $N00012                    100047b5     ILUT.exp
 0002:000007d7       $N00013                    100047d7     ILUT.exp
 0002:000007ef       $N00014                    100047ef     ILUT.exp
 0002:0000080b       $N00015                    1000480b     ILUT.exp
 0002:00000827       $N00016                    10004827     ILUT.exp
 0002:00000841       $N00017                    10004841     ILUT.exp
 0002:0000085d       $N00018                    1000485d     ILUT.exp
 0002:00000866       $N00019                    10004866     ILUT.exp
 0002:0000087e       $N00020                    1000487e     ILUT.exp
 0002:00000895       $N00021                    10004895     ILUT.exp
 0002:000008c4       $N00022                    100048c4     ILUT.exp
 0002:000008da       $N00023                    100048da     ILUT.exp
 0002:000008f2       $N00024                    100048f2     ILUT.exp
 0002:00000908       $N00025                    10004908     ILUT.exp
 0002:0000092d       $N00026                    1000492d     ILUT.exp
 0002:00000950       $N00027                    10004950     ILUT.exp
 0002:00000969       $N00028                    10004969     ILUT.exp
 0002:00000985       $N00029                    10004985     ILUT.exp
 0002:0000099b       $N00030                    1000499b     ILUT.exp
 0002:000009cf       $N00031                    100049cf     ILUT.exp
 0002:000009ea       $N00032                    100049ea     ILUT.exp
 0002:00000a0d       $N00033                    10004a0d     ILUT.exp
 0002:00000d10       .idata$6                   10004d10     resil:ResIL.dll
 0002:00000d88       .idata$6                   10004d88     kernel32:KERNEL32.dll
 0002:00000dda       .idata$6                   10004dda     msvcrt:MSVCR120.dll
 0002:00000fc6       .idata$6                   10004fc6     User32:USER32.dll
 0002:00001020       .idata$6                   10005020     Wininet:WININET.dll
 0002:000010b8       .idata$6                   100050b8     Gdi32:GDI32.dll
 0003:000004e0       ___proc_attached           100064e0     msvcrt:crtdll.obj
 0003:000004e8       _GS_ExceptionRecord        100064e8     msvcrt:gs_report.obj
 0003:00000538       _GS_ContextRecord          10006538     msvcrt:gs_report.obj
 0003:00000804       _DebuggerWasPresent        10006804     msvcrt:gs_report.obj
 0004:00000060       $R000000                   10007060     * linker generated manifest res *
