 ResIL

 Timestamp is 55aaaaf5 (Sat Jul 18 22:37:25 2015)

 Preferred load address is 0000000180000000

 Start         Length     Name                   Class
 0001:00000000 0000ce1aH .text$di                CODE
 0001:0000ce20 0041b731H .text$mn                CODE
 0001:00428560 00022e50H .text$x                 CODE
 0001:0044b3b0 00004cc9H .text$yd                CODE
 0002:00000000 00000109H .CRT$XCA                DATA
 0002:00000110 00000109H .CRT$XCL                DATA
 0002:00000220 00000ab8H .CRT$XCU                DATA
 0002:00000cd8 00000109H .CRT$XCZ                DATA
 0002:00000de8 00000109H .CRT$XIA                DATA
 0002:00000ef8 00000109H .CRT$XIAA               DATA
 0002:00001008 00000109H .CRT$XIC                DATA
 0002:00001118 00000109H .CRT$XIZ                DATA
 0002:00001228 00000008H .CRT$XLA                DATA
 0002:00001230 00000008H .CRT$XLZ                DATA
 0002:00001240 001a29f8H .rdata                  DATA
 0002:001a3c38 00000130H .rdata$T                DATA
 0002:001a3d68 0000018bH .rdata$debug            DATA
 0002:001a3f00 000089ffH .rdata$r                DATA
 0002:001ac900 00000109H .rtc$IAA                DATA
 0002:001aca10 00000d25H .rtc$IMZ                DATA
 0002:001ad738 00000109H .rtc$IZZ                DATA
 0002:001ad848 00000109H .rtc$TAA                DATA
 0002:001ad958 00000d25H .rtc$TMZ                DATA
 0002:001ae680 00000109H .rtc$TZZ                DATA
 0002:001ae790 0003b6d2H .xdata                  DATA
 0002:001e9e70 00003c14H .xdata$x                DATA
 0002:001eda90 0000202fH .edata                  DATA
 0003:00000000 001a774eH .data                   DATA
 0003:001a7750 000030b4H .data$r                 DATA
 0003:001aa810 00005120H .bss                    DATA
 0004:00000000 00027984H .pdata                  DATA
 0005:00000000 00000b48H .idata$5                DATA
 0005:00000b48 0000003cH .idata$2                DATA
 0005:00000b84 00000014H .idata$3                DATA
 0005:00000b98 00000b48H .idata$4                DATA
 0005:000016e0 000023c7H .idata$6                DATA
 0006:00000000 00000101H .tls                    DATA
 0006:00000104 00000104H .tls$                   DATA
 0006:00000208 00000101H .tls$ZZZ                DATA
 0007:00000000 00000169H .rsrc$01                DATA
 0007:00000170 000002ccH .rsrc$02                DATA

  Address         Publics by Value              Rva+Base               Lib:Object

 0000:00000000       __guard_fids_table         0000000000000000     <absolute>
 0000:00000000       ___safe_se_handler_table   0000000000000000     <absolute>
 0000:00000000       __guard_fids_count         0000000000000000     <absolute>
 0000:00000000       __guard_flags              0000000000000000     <absolute>
 0000:00000000       ___safe_se_handler_count   0000000000000000     <absolute>
 0000:00000000       __ImageBase                0000000180000000     <linker-defined>
 0001:0000ce20       ?ialloc@@YAPEAX_K@Z        000000018000de20 f   il_alloc.obj
 0001:0000ce80       ?ifree@@YAXPEBX@Z          000000018000de80 f   il_alloc.obj
 0001:0000cec0       ?icalloc@@YAPEAX_K0@Z      000000018000dec0 f   il_alloc.obj
 0001:0000cfd0       ?ilResetMemory@@YAXXZ      000000018000dfd0 f   il_alloc.obj
 0001:0000d000       ?ilSetMemory@@YAXP6APEAX_K@ZP6AXQEBX@Z@Z 000000018000e000 f   il_alloc.obj
 0001:0000d120       ?ilGetCurImage@@YAPEAUILimage@@XZ 000000018000e120 f   il_api1.obj
 0001:0000d140       ?ilSetCurImage@@YAXPEAUILimage@@@Z 000000018000e140 f   il_api1.obj
 0001:0000d160       ?ilReplaceCurImage@@YAXPEAUILimage@@@Z 000000018000e160 f   il_api1.obj
 0001:0000d1d0       ?iBindImageTemp@@YAXXZ     000000018000e1d0 f   il_api1.obj
 0001:0000d2a0       ?ilCloseImage@@YAXPEAX@Z   000000018000e2a0 f   il_api1.obj
 0001:0000d4c0       ?ilGetCurName@@YAIXZ       000000018000e4c0 f   il_api1.obj
 0001:0000d500       ?iSetImage0@@YAXXZ         000000018000e500 f   il_api1.obj
 0001:0000d5c0       ?ilRemoveAlpha@@YAEXZ      000000018000e5c0 f   il_api1.obj
 0001:0000d5f0       ?ilSwapColours@@YAEXZ      000000018000e5f0 f   il_api1.obj
 0001:0000d620       ?iEnlargeStack@@YAEXZ      000000018000e620 f   il_api1.obj
 0001:0000d6a0       ?iGetBaseImage@@YAPEAUILimage@@XZ 000000018000e6a0 f   il_api1.obj
 0001:0000d6e0       ?ilGenImages@@YAX_KPEAI@Z  000000018000e6e0 f   il_api1.obj
 0001:0000d870       ?ilGenImage@@YAIXZ         000000018000e870 f   il_api1.obj
 0001:0000d8c0       ?ilBindImage@@YAXI@Z       000000018000e8c0 f   il_api1.obj
 0001:0000d9a0       ?ilDeleteImages@@YAX_KPEBI@Z 000000018000e9a0 f   il_api1.obj
 0001:0000db30       ?ilDeleteImage@@YAXI@Z     000000018000eb30 f   il_api1.obj
 0001:0000db80       ?ilIsImage@@YAEI@Z         000000018000eb80 f   il_api1.obj
 0001:0000dbd0       ?ilResetWrite@@YAXXZ       000000018000ebd0 f   il_api1.obj
 0001:0000dc40       ?ilSetRead@@YAXP6APEAXPEB_W@ZP6AXPEAUSIO@@@ZP6AE2@ZP6AH2@ZP6A_J2PEAXII@ZP6A_J2_JI@ZP6A_J2@Z@Z 000000018000ec40 f   il_api1.obj
 0001:0000dcc0       ?ilResetRead@@YAXXZ        000000018000ecc0 f   il_api1.obj
 0001:0000dcf0       ?ilSetWrite@@YAXP6APEAXPEB_W@ZP6AXPEAUSIO@@@ZP6AHE2@ZP6A_J2_JI@ZP6A_J2@ZP6A_JPEBXII2@Z@Z 000000018000ecf0 f   il_api1.obj
 0001:0000dd70       ?ilGetLumpPos@@YA_KXZ      000000018000ed70 f   il_api1.obj
 0001:0000dda0       ?ilDetermineTypeFuncs@@YAIXZ 000000018000eda0 f   il_api1.obj
 0001:0000dde0       ?ilDetermineType@@YAIPEB_W@Z 000000018000ede0 f   il_api1.obj
 0001:0000de20       ?ilLoadF@@YAEIPEAX@Z       000000018000ee20 f   il_api1.obj
 0001:0000de70       ?ilLoadL@@YAEIPEBXI@Z      000000018000ee70 f   il_api1.obj
 0001:0000dec0       ?ilLoad@@YAEIPEB_W@Z       000000018000eec0 f   il_api1.obj
 0001:0000df10       ?ilLoadFuncs@@YAEI@Z       000000018000ef10 f   il_api1.obj
 0001:0000df50       ?ilLoadImage@@YAEPEB_W@Z   000000018000ef50 f   il_api1.obj
 0001:0000df90       ?ilSaveFuncs@@YAEI@Z       000000018000ef90 f   il_api1.obj
 0001:0000dfd0       ?ilDetermineSize@@YA_JI@Z  000000018000efd0 f   il_api1.obj
 0001:0000e010       ?ilSave@@YAEIPEB_W@Z       000000018000f010 f   il_api1.obj
 0001:0000e060       ?ilSaveImage@@YAEPEB_W@Z   000000018000f060 f   il_api1.obj
 0001:0000e0a0       ?ilSaveF@@YAIIPEAX@Z       000000018000f0a0 f   il_api1.obj
 0001:0000e0f0       ?ilSaveL@@YA_JIPEAXI@Z     000000018000f0f0 f   il_api1.obj
 0001:0000e140       ?ilTexImage@@YAEIIIEIIPEAX@Z 000000018000f140 f   il_api1.obj
 0001:0000e1c0       ?il2ApplyProfile@@YAEPEA_W0@Z 000000018000f1c0 f   il_api1.obj
 0001:0000e210       ?ilConvertImage@@YAEII@Z   000000018000f210 f   il_api1.obj
 0001:0000e260       ?ilFixImage@@YAEXZ         000000018000f260 f   il_api1.obj
 0001:0000e290       ?ilFixCur@@YAEXZ           000000018000f290 f   il_api1.obj
 0001:0000e2c0       ?ilSetData@@YAEPEAX@Z      000000018000f2c0 f   il_api1.obj
 0001:0000e300       ?ilGetData@@YAPEAEXZ       000000018000f300 f   il_api1.obj
 0001:0000e330       ?ilGetPalette@@YAPEAEXZ    000000018000f330 f   il_api1.obj
 0001:0000e360       ?ilClearImage@@YAEXZ       000000018000f360 f   il_api1.obj
 0001:0000e390       ?ilSurfaceToDxtcData@@YAEI@Z 000000018000f390 f   il_api1.obj
 0001:0000e3d0       ?ilDefaultImage@@YAEXZ     000000018000f3d0 f   il_api1.obj
 0001:0000e400       ?ilGetAlpha@@YAPEAEI@Z     000000018000f400 f   il_api1.obj
 0001:0000e440       ?ilBlit@@YAEIHHHIIIIII@Z   000000018000f440 f   il_api1.obj
 0001:0000e530       ?ilOverlayImage@@YAEIHHH@Z 000000018000f530 f   il_api1.obj
 0001:0000e600       ?ilCopyImage@@YAEI@Z       000000018000f600 f   il_api1.obj
 0001:0000e690       ?ilCloneCurImage@@YAIXZ    000000018000f690 f   il_api1.obj
 0001:0000e790       ?ilActiveImage@@YAEI@Z     000000018000f790 f   il_api1.obj
 0001:0000e7f0       ?ilRecalloc@@YAPEAXPEAXII@Z 000000018000f7f0 f   il_api1.obj
 0001:0000e8d0       ?ilShutDown@@YAXXZ         000000018000f8d0 f   il_api1.obj
 0001:0000e9b0       ?ilActiveMipmap@@YAEI@Z    000000018000f9b0 f   il_api1.obj
 0001:0000ea10       ?ilActiveFace@@YAEI@Z      000000018000fa10 f   il_api1.obj
 0001:0000ea70       ?ilActiveLayer@@YAEI@Z     000000018000fa70 f   il_api1.obj
 0001:0000ead0       ?ilCreateSubImage@@YAIII@Z 000000018000fad0 f   il_api1.obj
 0001:0000eb20       ?iGetActiveNum@@YAII@Z     000000018000fb20 f   il_api1.obj
 0001:0000ecc0       ?ilSetImageInteger@@YAXIH@Z 000000018000fcc0 f   il_api1.obj
 0001:0000ed10       ?ilGetImageInteger@@YAXIPEAH@Z 000000018000fd10 f   il_api1.obj
 0001:0000ed60       ?ilInit@@YAXXZ             000000018000fd60 f   il_api1.obj
 0001:0000ed90       ?ilRegisterPal@@YAXPEAXII@Z 000000018000fd90 f   il_api1.obj
 0001:0000ede0       ?ilGetIntegerv@@YAXIPEAH@Z 000000018000fde0 f   il_api1.obj
 0001:0000ee20       ?ilGetInteger@@YAHI@Z      000000018000fe20 f   il_api1.obj
 0001:0000ee80       ?ilGetDXTCData@@YAIPEAXII@Z 000000018000fe80 f   il_api1.obj
 0001:0000eed0       ?ilClearColour@@YAXMMMM@Z  000000018000fed0 f   il_api1.obj
 0001:0000ef30       ?ilEnable@@YAEI@Z          000000018000ff30 f   il_api1.obj
 0001:0000ef70       ?ilDisable@@YAEI@Z         000000018000ff70 f   il_api1.obj
 0001:0000efb0       ?ilGetBooleanv@@YAXIPEAE@Z 000000018000ffb0 f   il_api1.obj
 0001:0000eff0       ?ilGetBoolean@@YAEI@Z      000000018000fff0 f   il_api1.obj
 0001:0000f030       ?ilSetError@@YAXI@Z        0000000180010030 f   il_api1.obj
 0001:0000f070       ?ilGetError@@YAIXZ         0000000180010070 f   il_api1.obj
 0001:0000f0a0       ?ilSetInteger@@YAXIH@Z     00000001800100a0 f   il_api1.obj
 0001:0000f0e0       ?ilSetPixels@@YAXHHHIIIIIPEAX@Z 00000001800100e0 f   il_api1.obj
 0001:0000f180       ?ilConvertPal@@YAEI@Z      0000000180010180 f   il_api1.obj
 0001:0000f1c0       ?ilIsEnabled@@YAEI@Z       00000001800101c0 f   il_api1.obj
 0001:0000f200       ?ilGetString@@YAPEB_WI@Z   0000000180010200 f   il_api1.obj
 0001:0000f240       ?ilSetPal@@YAXPEAVILpal@@@Z 0000000180010240 f   il_api1.obj
 0001:0000f280       ?ilLoadPal@@YAEPEB_W@Z     0000000180010280 f   il_api1.obj
 0001:0000fb20       ?clear@ILpal@@QEAAXXZ      0000000180010b20 f i il_api1.obj
 0001:0000fb70       ?use@ILpal@@QEAAEHPEAEI@Z  0000000180010b70 f i il_api1.obj
 0001:0000fee0       ?bfile@@YAPEAUBITFILE@@PEAUSIO@@@Z 0000000180010ee0 f   il_bits.obj
 0001:0000ff80       ?bclose@@YAHPEAUBITFILE@@@Z 0000000180010f80 f   il_bits.obj
 0001:0000ffd0       ?btell@@YA_JPEAUBITFILE@@@Z 0000000180010fd0 f   il_bits.obj
 0001:0000fff0       ?bseek@@YAHPEAUBITFILE@@II@Z 0000000180010ff0 f   il_bits.obj
 0001:000101d0       ?bread@@YAHPEAXIIPEAUBITFILE@@@Z 00000001800111d0 f   il_bits.obj
 0001:000102f0       ?breadVal@@YAIIPEAUBITFILE@@@Z 00000001800112f0 f   il_bits.obj
 0001:00010570       ?iIsValidBlp@@YAEPEAUSIO@@@Z 0000000180011570 f   il_blp.obj
 0001:000105d0       ?iLoadBlpInternal@@YAEPEAUILimage@@@Z 00000001800115d0 f   il_blp.obj
 0001:00011390       ?iGetBlp2Head@@YAHPEAUSIO@@PEAUBLP2HEAD@@@Z 0000000180012390 f   il_blp.obj
 0001:000113e0       ?iGetBlp1Head@@YAHPEAUSIO@@PEAUBLP1HEAD@@@Z 00000001800123e0 f   il_blp.obj
 0001:00011430       ?iCheckBlp2@@YAEPEAUBLP2HEAD@@@Z 0000000180012430 f   il_blp.obj
 0001:00011550       ?iIsValidBlp2@@YAEPEAUSIO@@@Z 0000000180012550 f   il_blp.obj
 0001:00011620       ?iCheckBlp1@@YAEPEAUBLP1HEAD@@@Z 0000000180012620 f   il_blp.obj
 0001:000116d0       ?iIsValidBlp1@@YAEPEAUSIO@@@Z 00000001800126d0 f   il_blp.obj
 0001:000117a0       ?iLoadBlp1@@YAEPEAUILimage@@@Z 00000001800127a0 f   il_blp.obj
 0001:00012720       ??4ILpal@@QEAAXAEBV0@@Z    0000000180013720 f i il_blp.obj
 0001:000127b0       ?GetLittleUInt@@YAIPEAUSIO@@@Z 00000001800137b0 f i il_blp.obj
 0001:00012820       ?hasPalette@ILpal@@QEBAEXZ 0000000180013820 f i il_blp.obj
 0001:00012870       ?readFromFile@ILpal@@QEAAEPEAUSIO@@@Z 0000000180013870 f i il_blp.obj
 0001:00012900       ?iIsValidBmp@@YAEPEAUSIO@@@Z 0000000180013900 f   il_bmp.obj
 0001:000129d0       ?iLoadBitmapInternal@@YAEPEAUILimage@@@Z 00000001800139d0 f   il_bmp.obj
 0001:00012bb0       ?iSaveBitmapInternal@@YAEPEAUILimage@@@Z 0000000180013bb0 f   il_bmp.obj
 0001:00013430       ?flipHeaderEndians@@YAXQEAUBMPHEAD@@@Z 0000000180014430 f   il_bmp.obj
 0001:00013440       ?iGetBmpHead@@YAEPEAUSIO@@QEAUBMPHEAD@@@Z 0000000180014440 f   il_bmp.obj
 0001:000134d0       ?iGetOS2Head@@YAEPEAUSIO@@QEAUOS2_HEAD@@@Z 00000001800144d0 f   il_bmp.obj
 0001:00013560       ?iCheckBmp@@YAEQEBUBMPHEAD@@@Z 0000000180014560 f   il_bmp.obj
 0001:000136a0       ?iCheckOS2@@YAEQEBUOS2_HEAD@@@Z 00000001800146a0 f   il_bmp.obj
 0001:00013750       ?iGetOS2Bmp@@YAEPEAUILimage@@PEAUOS2_HEAD@@@Z 0000000180014750 f   il_bmp.obj
 0001:00013f80       ?prepareBMP@@YAEPEAUILimage@@PEAUBMPHEAD@@EI@Z 0000000180014f80 f   il_bmp.obj
 0001:00014030       ?ilReadUncompBmp1@@YAEPEAUILimage@@PEAUBMPHEAD@@@Z 0000000180015030 f   il_bmp.obj
 0001:00014320       ?ilReadUncompBmp4@@YAEPEAUILimage@@PEAUBMPHEAD@@@Z 0000000180015320 f   il_bmp.obj
 0001:00014610       ?ilReadUncompBmp8@@YAEPEAUILimage@@PEAUBMPHEAD@@@Z 0000000180015610 f   il_bmp.obj
 0001:00014860       ?ilReadUncompBmp16@@YAEPEAUILimage@@PEAUBMPHEAD@@@Z 0000000180015860 f   il_bmp.obj
 0001:00014ce0       ?ilReadUncompBmp24@@YAEPEAUILimage@@PEAUBMPHEAD@@@Z 0000000180015ce0 f   il_bmp.obj
 0001:00014e80       ?ilReadUncompBmp32@@YAEPEAUILimage@@PEAUBMPHEAD@@@Z 0000000180015e80 f   il_bmp.obj
 0001:00014fe0       ?ilReadUncompBmp@@YAEPEAUILimage@@PEAUBMPHEAD@@@Z 0000000180015fe0 f   il_bmp.obj
 0001:00015130       ?ilReadRLE8Bmp@@YAEPEAUILimage@@PEAUBMPHEAD@@@Z 0000000180016130 f   il_bmp.obj
 0001:00015650       ?ilReadRLE4Bmp@@YAEPEAUILimage@@PEAUBMPHEAD@@@Z 0000000180016650 f   il_bmp.obj
 0001:00016920       ??0ILpal@@QEAA@XZ          0000000180017920 f i il_bmp.obj
 0001:000169c0       ??1ILpal@@UEAA@XZ          00000001800179c0 f i il_bmp.obj
 0001:00016a40       ??_GILpal@@UEAAPEAXI@Z     0000000180017a40 f i il_bmp.obj
 0001:00016a40       ??_EILpal@@UEAAPEAXI@Z     0000000180017a40 f i il_bmp.obj
 0001:00016aa0       ?GetShiftFromMask@@YAXIQEAI0@Z 0000000180017aa0 f i il_bmp.obj
 0001:00016bb0       ?getPalSize@ILpal@@QEBAIXZ 0000000180017bb0 f i il_bmp.obj
 0001:00016bd0       ?getPalType@ILpal@@QEBAIXZ 0000000180017bd0 f i il_bmp.obj
 0001:00016bf0       ?setRGBA@ILpal@@QEAAEIEEEE@Z 0000000180017bf0 f i il_bmp.obj
 0001:00016d30       ?writeToFile@ILpal@@QEAAEPEAUSIO@@@Z 0000000180017d30 f i il_bmp.obj
 0001:00016dc0       ?ilConvertBuffer@@YAPEAXIIIIIPEAVILpal@@PEAX@Z 0000000180017dc0 f   il_convbuff.obj
 0001:0001e950       ?iSwitchTypes@@YAPEAXIIIPEAX@Z 000000018001f950 f   il_convbuff.obj
 0001:000222c0       ?ilFloatToHalf@@YAGI@Z     00000001800232c0 f i il_convbuff.obj
 0001:00022490       ?ilFloatToHalfOverflow@@YAMXZ 0000000180023490 f i il_convbuff.obj
 0001:00022510       ?ilHalfToFloat@@YAIG@Z     0000000180023510 f i il_convbuff.obj
 0001:00022660       ?il2ConvertImage@@YAEPEAUILimage@@II@Z 0000000180023660 f   il_convert.obj
 0001:000228b0       ?il2FixImage@@YAEPEAUILimage@@@Z 00000001800238b0 f   il_convert.obj
 0001:00022a90       ?il2RemoveAlpha@@YAEPEAUILimage@@@Z 0000000180023a90 f   il_convert.obj
 0001:00023000       ?il2SwapColours@@YAEPEAUILimage@@@Z 0000000180024000 f   il_convert.obj
 0001:000236d0       ?iConvertImage@@YAPEAUILimage@@PEAU1@II@Z 00000001800246d0 f   il_convert.obj
 0001:00023bd0       ?ilAddAlphaKey@@YAEPEAUILimage@@@Z 0000000180024bd0 f   il_convert.obj
 0001:00024880       ?iConvertPalette@@YAPEAUILimage@@PEAU1@I@Z 0000000180025880 f   il_convert.obj
 0001:00024900       ?ilAddAlpha@@YAEPEAUILimage@@@Z 0000000180025900 f   il_convert.obj
 0001:00024f10       ?ilKeyColour@@YAXMMMM@Z    0000000180025f10 f   il_convert.obj
 0001:00024fa0       ?il2FixCur@@YAEPEAUILimage@@@Z 0000000180025fa0 f   il_convert.obj
 0001:00025b90       ?getNumCols@ILpal@@QEBAIXZ 0000000180026b90 f i il_convert.obj
 0001:00025bb0       ?getPalette@ILpal@@QEAAPEAEXZ 0000000180026bb0 f i il_convert.obj
 0001:00025bd0       ?getRGB@ILpal@@QEAAEIAEAE00@Z 0000000180026bd0 f i il_convert.obj
 0001:00025ce0       ?setRGB@ILpal@@QEAAEIEEE@Z 0000000180026ce0 f i il_convert.obj
 0001:00025de0       ?iLoadCutInternal@@YAEPEAUILimage@@@Z 0000000180026de0 f   il_cut.obj
 0001:00026070       ?isValidCutHeader@@YAEPEBUCUT_HEAD@@@Z 0000000180027070 f   il_cut.obj
 0001:000260c0       ?iIsValidCut@@YAEPEAUSIO@@@Z 00000001800270c0 f   il_cut.obj
 0001:00026140       ?readScanLine@@YA_NPEAUILimage@@PEAEGH@Z 0000000180027140 f   il_cut.obj
 0001:000264e0       ?iGetDcxHead@@YAEPEAUSIO@@PEAUDCXHEAD@@@Z 00000001800274e0 f   il_dcx.obj
 0001:000265d0       ?iIsValidDcx@@YAEPEAUSIO@@@Z 00000001800275d0 f   il_dcx.obj
 0001:00026670       ?iCheckDcx@@YAEPEAUDCXHEAD@@@Z 0000000180027670 f   il_dcx.obj
 0001:00026720       ?iUncompressDcxSmall@@YAPEAUILimage@@PEAU1@PEAUDCXHEAD@@@Z 0000000180027720 f   il_dcx.obj
 0001:00026f40       ?iUncompressDcx@@YAPEAUILimage@@PEAU1@PEAUDCXHEAD@@@Z 0000000180027f40 f   il_dcx.obj
 0001:00027400       ?iLoadDcxInternal@@YAEPEAUILimage@@@Z 0000000180028400 f   il_dcx.obj
 0001:00027b40       ?GetLittleUShort@@YAGPEAUSIO@@@Z 0000000180028b40 f i il_dcx.obj
 0001:00027bb0       ?il2GetDXTCData@@YAIPEAUILimage@@PEAXII@Z 0000000180028bb0 f   il_dds-save.obj
 0001:00027e30       ?iSaveDdsInternal@@YAEPEAUILimage@@@Z 0000000180028e30 f   il_dds-save.obj
 0001:00028030       ?WriteHeader@@YAEPEAUILimage@@II@Z 0000000180029030 f   il_dds-save.obj
 0001:000284e0       ?CorrectEndDXT1@@YAXPEAG0E@Z 00000001800294e0 f   il_dds-save.obj
 0001:000285a0       ?GetCubemapInfo@@YAIPEAUILimage@@PEAH@Z 00000001800295a0 f   il_dds-save.obj
 0001:00028870       ?CompressTo88@@YAPEAEPEAUILimage@@@Z 0000000180029870 f   il_dds-save.obj
 0001:00028c30       ?CompressToRXGB@@YAXPEAUILimage@@PEAPEAGPEAPEAE@Z 0000000180029c30 f   il_dds-save.obj
 0001:00029260       ?Distance@@YAIPEAUColor888@@0@Z 000000018002a260 f   il_dds-save.obj
 0001:00029300       ?ShortToColor888@@YAXGPEAUColor888@@@Z 000000018002a300 f   il_dds-save.obj
 0001:00029360       ?Color565ToShort@@YAGPEAUColor565@@@Z 000000018002a360 f   il_dds-save.obj
 0001:000293a0       ?Color888ToShort@@YAGPEAUColor888@@@Z 000000018002a3a0 f   il_dds-save.obj
 0001:000293e0       ?GenBitMask@@YAIGGIPEAGPEAEPEAUColor888@@@Z 000000018002a3e0 f   il_dds-save.obj
 0001:000299a0       ?GenAlphaBitMask@@YAXEEPEAE00@Z 000000018002a9a0 f   il_dds-save.obj
 0001:00029f90       ?GetBlock@@YAEPEAG0PEAUILimage@@II@Z 000000018002af90 f   il_dds-save.obj
 0001:0002a0e0       ?GetAlphaBlock@@YAEPEAE0PEAUILimage@@II@Z 000000018002b0e0 f   il_dds-save.obj
 0001:0002a230       ?Get3DcBlock@@YAEPEAE0PEAUILimage@@IIH@Z 000000018002b230 f   il_dds-save.obj
 0001:0002a350       ?ShortToColor565@@YAXGPEAUColor565@@@Z 000000018002b350 f   il_dds-save.obj
 0001:0002a430       ?As16Bit@@YAGHHH@Z         000000018002b430 f   il_dds-save.obj
 0001:0002a4b0       ?CompressTo565@@YAPEAGPEAUILimage@@@Z 000000018002b4b0 f   il_dds-save.obj
 0001:0002a9f0       ?ChooseEndpoints@@YAXPEAG00@Z 000000018002b9f0 f   il_dds-save.obj
 0001:0002ac90       ?ChooseAlphaEndpoints@@YAXPEAE00@Z 000000018002bc90 f   il_dds-save.obj
 0001:0002ad50       ?Compress@@YAIPEAUILimage@@I@Z 000000018002bd50 f   il_dds-save.obj
 0001:0002bec0       ?PreMult@@YAXPEAGPEAE@Z    000000018002cec0 f   il_dds-save.obj
 0001:0002bfc0       ?ilCompressDXT@@YAPEAEPEAUILimage@@PEAEIIIIPEAI@Z 000000018002cfc0 f   il_dds-save.obj
 0001:0002d320       ?SaveLittleUInt@@YAEPEAUSIO@@I@Z 000000018002e320 f i il_dds-save.obj
 0001:0002d380       ?SaveLittleUShort@@YAEPEAUSIO@@G@Z 000000018002e380 f i il_dds-save.obj
 0001:0002d3e0       ?iIsValidDds@@YAEPEAUSIO@@@Z 000000018002e3e0 f   il_dds.obj
 0001:0002d490       ?iLoadDdsInternal@@YAEPEAUILimage@@@Z 000000018002e490 f   il_dds.obj
 0001:0002d810       ?iSurfaceToDxtcData@@YAEPEAUILimage@@I@Z 000000018002e810 f   il_dds.obj
 0001:0002d8d0       ?DecompressDXT1@@YAEPEAUILimage@@PEAE@Z 000000018002e8d0 f   il_dds.obj
 0001:0002dee0       ?DecompressDXT3@@YAEPEAUILimage@@AEAPEAE@Z 000000018002eee0 f   il_dds.obj
 0001:0002e4b0       ?DecompressDXT5@@YAEPEAUILimage@@AEAPEAE@Z 000000018002f4b0 f   il_dds.obj
 0001:0002ef10       ?iConvFloat16ToFloat32@@YAEPEAIPEAGI@Z 000000018002ff10 f   il_dds.obj
 0001:0002efa0       ?DxtcReadColor@@YAXGPEAUColor8888@@@Z 000000018002ffa0 f   il_dds.obj
 0001:0002f050       ?iGetDdsHead@@YAEPEAUSIO@@PEAUDDSHEAD@@@Z 0000000180030050 f   il_dds.obj
 0001:0002f270       ?iCheckDds@@YAEPEAUDDSHEAD@@@Z 0000000180030270 f   il_dds.obj
 0001:0002f310       ?Check16BitComponents@@YAXPEAUDDSHEAD@@AEAE@Z 0000000180030310 f   il_dds.obj
 0001:0002f3d0       ?iCompFormatToBpp@@YAEPEAUDDSHEAD@@I@Z 00000001800303d0 f   il_dds.obj
 0001:0002f460       ?iCompFormatToBpc@@YAEIE@Z 0000000180030460 f   il_dds.obj
 0001:0002f4d0       ?iCompFormatToChannelCount@@YAEI@Z 00000001800304d0 f   il_dds.obj
 0001:0002f540       ?ReadData@@YAEPEAUSIO@@PEAUDDSHEAD@@AEAPEAE@Z 0000000180030540 f   il_dds.obj
 0001:0002f740       ?AllocImage@@YAEPEAUILimage@@PEAUDDSHEAD@@IAEAPEAEE@Z 0000000180030740 f   il_dds.obj
 0001:0002fd40       ?CountBitsFromMask@@YAII@Z 0000000180030d40 f   il_dds.obj
 0001:0002fde0       ?GetBitsFromMask@@YAXIPEAI0@Z 0000000180030de0 f   il_dds.obj
 0001:0002fec0       ?DecompressARGB16@@YAEPEAUILimage@@PEAUDDSHEAD@@IAEAPEAE@Z 0000000180030ec0 f   il_dds.obj
 0001:00030500       ?DecompressARGB@@YAEPEAUILimage@@PEAUDDSHEAD@@IAEAPEAEE@Z 0000000180031500 f   il_dds.obj
 0001:00030ae0       ?DxtcReadColors@@YAXPEBEPEAUColor8888@@@Z 0000000180031ae0 f   il_dds.obj
 0001:00030cc0       ?CorrectPreMult@@YAXPEAUILimage@@@Z 0000000180031cc0 f   il_dds.obj
 0001:00030e00       ?DecompressDXT2@@YAEPEAUILimage@@AEAPEAE@Z 0000000180031e00 f   il_dds.obj
 0001:00030e60       ?DecompressDXT4@@YAEPEAUILimage@@AEAPEAE@Z 0000000180031e60 f   il_dds.obj
 0001:00030ec0       ?Decompress3Dc@@YAEPEAUILimage@@PEAUDDSHEAD@@AEAPEAE@Z 0000000180031ec0 f   il_dds.obj
 0001:00031620       ?dds_halfToFloat@@YAIG@Z   0000000180032620 f   il_dds.obj
 0001:00031730       ?iConvG16R16ToFloat32@@YAEPEAIPEAGI@Z 0000000180032730 f   il_dds.obj
 0001:00031830       ?iConvR16ToFloat32@@YAEPEAIPEAGI@Z 0000000180032830 f   il_dds.obj
 0001:00031910       ?DecompressFloat@@YAEPEAUILimage@@IAEAPEAE@Z 0000000180032910 f   il_dds.obj
 0001:00031c10       ?DecompressAti1n@@YAEPEAUILimage@@PEAUDDSHEAD@@AEAPEAE@Z 0000000180032c10 f   il_dds.obj
 0001:00032000       ?DecompressRXGB@@YAEPEAUILimage@@PEAUDDSHEAD@@AEAPEAE@Z 0000000180033000 f   il_dds.obj
 0001:00032b90       ?DdsDecompress@@YAEPEAUILimage@@PEAUDDSHEAD@@IAEAPEAE@Z 0000000180033b90 f   il_dds.obj
 0001:00032d70       ?ReadMipmaps@@YAEPEAUILimage@@PEAUDDSHEAD@@IAEAPEAEEPEAUSIO@@@Z 0000000180033d70 f   il_dds.obj
 0001:000333f0       ?iLoadDdsCubemapInternal@@YAEPEAUILimage@@PEAUDDSHEAD@@IE@Z 00000001800343f0 f   il_dds.obj
 0001:00033720       ?DecodePixelFormat@@YAIPEAUDDSHEAD@@PEAI@Z 0000000180034720 f   il_dds.obj
 0001:00033b80       ?AdjustVolumeTexture@@YAXPEAUDDSHEAD@@I@Z 0000000180034b80 f   il_dds.obj
 0001:00033e00       ?ilGetDxtcData@@YAPEAEPEAUILimage@@@Z 0000000180034e00 f   il_dds.obj
 0001:00033e50       ?ilFreeSurfaceDxtcData@@YAXPEAUILimage@@@Z 0000000180034e50 f   il_dds.obj
 0001:00033ed0       ?ilFreeImageDxtcData@@YAXPEAUILimage@@@Z 0000000180034ed0 f   il_dds.obj
 0001:00033fc0       ?iDxtcDataToSurface@@YAEPEAUILimage@@PEAUDDSHEAD@@@Z 0000000180034fc0 f   il_dds.obj
 0001:000341f0       ?iDxtcDataToImage@@YAEPEAUILimage@@PEAUDDSHEAD@@@Z 00000001800351f0 f   il_dds.obj
 0001:00034310       ?ilImageToDxtcData@@YAEPEAUILimage@@I@Z 0000000180035310 f   il_dds.obj
 0001:00034430       ?ilTexImageDxtc@@YAEPEAUILimage@@HHHIPEBE@Z 0000000180035430 f   il_dds.obj
 0001:00034670       ?iFlipColorBlock@@YAXPEAE@Z 0000000180035670 f   il_dds.obj
 0001:00034740       ?iFlipSimpleAlphaBlock@@YAXPEAG@Z 0000000180035740 f   il_dds.obj
 0001:00034810       ?iComplexAlphaHelper@@YAXPEAE@Z 0000000180035810 f   il_dds.obj
 0001:00034940       ?iFlipComplexAlphaBlock@@YAXPEAE@Z 0000000180035940 f   il_dds.obj
 0001:000349f0       ?iFlipDxt1@@YAXPEAEI@Z     00000001800359f0 f   il_dds.obj
 0001:00034a60       ?iFlipDxt3@@YAXPEAEI@Z     0000000180035a60 f   il_dds.obj
 0001:00034ae0       ?iFlipDxt5@@YAXPEAEI@Z     0000000180035ae0 f   il_dds.obj
 0001:00034b60       ?iFlip3dc@@YAXPEAEI@Z      0000000180035b60 f   il_dds.obj
 0001:00034be0       ?ilFlipSurfaceDxtcData@@YAXPEAUILimage@@@Z 0000000180035be0 f   il_dds.obj
 0001:00034ec0       ?iInvertDxt3Alpha@@YAXPEAE@Z 0000000180035ec0 f   il_dds.obj
 0001:00034f20       ?iInvertDxt5Alpha@@YAXPEAE@Z 0000000180035f20 f   il_dds.obj
 0001:00035190       ?ilInvertSurfaceDxtcDataAlpha@@YAEPEAUILimage@@@Z 0000000180036190 f   il_dds.obj
 0001:00037290       ?il2GenImage@@YAPEAUILimage@@XZ 0000000180038290 f   il_devil.obj
 0001:000372d0       ?il2NewImage@@YAPEAUILimage@@IIIEE@Z 00000001800382d0 f   il_devil.obj
 0001:000373d0       ?il2DeleteImage@@YAXPEAUILimage@@@Z 00000001800383d0 f   il_devil.obj
 0001:000374b0       ?il2Blit@@YAEPEAUILimage@@0HHHIIIIII@Z 00000001800384b0 f   il_devil.obj
 0001:00037ec0       ?il2ClearColour@@YAXMMMM@Z 0000000180038ec0 f   il_devil.obj
 0001:00038190       ?il2ClearImage@@YAEPEAUILimage@@@Z 0000000180039190 f   il_devil.obj
 0001:00038720       ?il2CloneImage@@YAPEAUILimage@@PEAU1@@Z 0000000180039720 f   il_devil.obj
 0001:000387e0       ?il2CopyImage@@YAEPEAUILimage@@0@Z 00000001800397e0 f   il_devil.obj
 0001:000388a0       ?il2Disable@@YAEI@Z        00000001800398a0 f   il_devil.obj
 0001:000388e0       ?il2Enable@@YAEI@Z         00000001800398e0 f   il_devil.obj
 0001:00038920       ?il2GetData@@YAPEAEPEAUILimage@@@Z 0000000180039920 f   il_devil.obj
 0001:00038970       ?il2GetFace@@YAPEAUILimage@@PEAU1@I@Z 0000000180039970 f   il_devil.obj
 0001:00038a40       ?il2GetFrame@@YAPEAUILimage@@PEAU1@I@Z 0000000180039a40 f   il_devil.obj
 0001:00038b30       ?il2GetLayer@@YAPEAUILimage@@PEAU1@I@Z 0000000180039b30 f   il_devil.obj
 0001:00038c00       ?il2GetMipmap@@YAPEAUILimage@@PEAU1@I@Z 0000000180039c00 f   il_devil.obj
 0001:00038d10       ?il2GetPalette@@YAPEAEPEAUILimage@@@Z 0000000180039d10 f   il_devil.obj
 0001:00038d70       ?il2OverlayImage@@YAEPEAUILimage@@0HHH@Z 0000000180039d70 f   il_devil.obj
 0001:00038e10       ?il2SetData@@YAEPEAUILimage@@PEAX@Z 0000000180039e10 f   il_devil.obj
 0001:00038e70       ?il2TexImage@@YAEPEAUILimage@@IIIEIIPEAX@Z 0000000180039e70 f   il_devil.obj
 0001:00039110       ?il2CopyImageAttr@@YAEPEAUILimage@@0@Z 000000018003a110 f   il_devil.obj
 0001:00039540       ?il2GetClear@@YAXPEAXII@Z  000000018003a540 f   il_devil.obj
 0001:0003a5f0       ?ilNewImageFull@@YAPEAUILimage@@IIIEIIPEAX@Z 000000018003b5f0 f   il_devil.obj
 0001:0003a6c0       ?il2InitImage@@YAEPEAUILimage@@IIIEIIPEAX@Z 000000018003b6c0 f   il_devil.obj
 0001:0003a7a0       ?il2ResizeImage@@YAEPEAUILimage@@IIIEE@Z 000000018003b7a0 f   il_devil.obj
 0001:0003a8d0       ?il2TexSubImage_@@YAEPEAUILimage@@PEAX@Z 000000018003b8d0 f   il_devil.obj
 0001:0003a970       ?iCopySubImage@@YAEPEAUILimage@@0@Z 000000018003b970 f   il_devil.obj
 0001:0003aa80       ?iCopySubImages@@YAEPEAUILimage@@0@Z 000000018003ba80 f   il_devil.obj
 0001:0003ac30       ?il2CopyImage_@@YAPEAUILimage@@PEAU1@@Z 000000018003bc30 f   il_devil.obj
 0001:0003bb90       ?iIsValidDicom@@YAEPEAUSIO@@@Z 000000018003cb90 f   il_dicom.obj
 0001:0003bc70       ?iLoadDicomInternal@@YAEPEAUILimage@@@Z 000000018003cc70 f   il_dicom.obj
 0001:0003c160       ?GetGroupNum@@YAIPEAUSIO@@PEAUDICOMHEAD@@@Z 000000018003d160 f   il_dicom.obj
 0001:0003c1f0       ?GetShort@@YAIPEAUSIO@@PEAUDICOMHEAD@@G@Z 000000018003d1f0 f   il_dicom.obj
 0001:0003c290       ?GetInt@@YAIPEAUSIO@@PEAUDICOMHEAD@@G@Z 000000018003d290 f   il_dicom.obj
 0001:0003c330       ?GetFloat@@YAMPEAUSIO@@PEAUDICOMHEAD@@G@Z 000000018003d330 f   il_dicom.obj
 0001:0003c3d0       ?GetNumericValue@@YAEPEAUSIO@@PEAUDICOMHEAD@@GPEAI@Z 000000018003d3d0 f   il_dicom.obj
 0001:0003c5b0       ?GetUID@@YAEPEAUSIO@@PEAE@Z 000000018003d5b0 f   il_dicom.obj
 0001:0003c670       ?SkipElement@@YAEPEAUSIO@@PEAUDICOMHEAD@@GG@Z 000000018003d670 f   il_dicom.obj
 0001:0003c7f0       ?iGetDicomHead@@YAEPEAUSIO@@PEAUDICOMHEAD@@@Z 000000018003d7f0 f   il_dicom.obj
 0001:0003ce40       ?iCheckDicom@@YAEPEAUDICOMHEAD@@@Z 000000018003de40 f   il_dicom.obj
 0001:0003d3e0       ?iSwapFloat@@YAXPEAM@Z     000000018003e3e0 f i il_dicom.obj
 0001:0003d420       ?iSwapUInt@@YAXPEAI@Z      000000018003e420 f i il_dicom.obj
 0001:0003d480       ?iSwapUShort@@YAXPEAG@Z    000000018003e480 f i il_dicom.obj
 0001:0003d4c0       ?iLoadDoomInternal@@YAEPEAUILimage@@@Z 000000018003e4c0 f   il_doom.obj
 0001:0003daa0       ?iLoadDoomFlatInternal@@YAEPEAUILimage@@@Z 000000018003eaa0 f   il_doom.obj
 0001:0003dfb0       ?GetLittleInt@@YAHPEAUSIO@@@Z 000000018003efb0 f i il_doom.obj
 0001:0003e020       ?GetLittleShort@@YAFPEAUSIO@@@Z 000000018003f020 f i il_doom.obj
 0001:0003e090       ?getRGBA@ILpal@@QEAAEIAEAE000@Z 000000018003f090 f i il_doom.obj
 0001:0003e1e0       ?iLoadDpxInternal@@YAEPEAUILimage@@@Z 000000018003f1e0 f   il_dpx.obj
 0001:0003ebd0       ?DpxGetFileInfo@@YAEPEAUSIO@@PEAUDPX_FILE_INFO@@@Z 000000018003fbd0 f   il_dpx.obj
 0001:0003eda0       ?GetImageElement@@YAEPEAUSIO@@PEAUDPX_IMAGE_ELEMENT@@@Z 000000018003fda0 f   il_dpx.obj
 0001:0003ef30       ?DpxGetImageInfo@@YAEPEAUSIO@@PEAUDPX_IMAGE_INFO@@@Z 000000018003ff30 f   il_dpx.obj
 0001:0003f000       ?DpxGetImageOrient@@YAEPEAUSIO@@PEAUDPX_IMAGE_ORIENT@@@Z 0000000180040000 f   il_dpx.obj
 0001:0003f650       ?GetBigUInt@@YAIPEAUSIO@@@Z 0000000180040650 f i il_dpx.obj
 0001:0003f6d0       ?GetBigUShort@@YAGPEAUSIO@@@Z 00000001800406d0 f i il_dpx.obj
 0001:0003f750       ?EndianSwapData@@YAXPEAX@Z 0000000180040750 f   il_endian.obj
 0001:00040fe0       ?iSwapDouble@@YAXPEAN@Z    0000000180041fe0 f i il_endian.obj
 0001:000411a0       ?il2GetError@@YAIXZ        00000001800421a0 f   il_error.obj
 0001:00041210       ?il2SetError@@YAXI@Z       0000000180042210 f   il_error.obj
 0001:00041260       ?iIsValidExr@@YAEPEAUSIO@@@Z 0000000180042260 f   il_exr.obj
 0001:000412f0       ?iLoadExrInternal@@YAEPEAUILimage@@@Z 00000001800422f0 f   il_exr.obj
 0001:000417a0       ?iSaveExrInternal@@YAEPEAUILimage@@@Z 00000001800427a0 f   il_exr.obj
 0001:00041cd0       ??0ilIStream@@QEAA@PEAUILimage@@@Z 0000000180042cd0 f   il_exr.obj
 0001:00041d50       ?read@ilIStream@@UEAA_NQEADH@Z 0000000180042d50 f   il_exr.obj
 0001:00041dc0       ?tellg@ilIStream@@UEAA_KXZ 0000000180042dc0 f   il_exr.obj
 0001:00041e10       ?seekg@ilIStream@@UEAAX_K@Z 0000000180042e10 f   il_exr.obj
 0001:00041e70       ?clear@ilIStream@@UEAAXXZ  0000000180042e70 f   il_exr.obj
 0001:00041e80       ??0ilOStream@@QEAA@PEAUILimage@@@Z 0000000180042e80 f   il_exr.obj
 0001:00041ef0       ?write@ilOStream@@UEAAXQEBDH@Z 0000000180042ef0 f   il_exr.obj
 0001:00041f50       ?tellp@ilOStream@@UEAA_KXZ 0000000180042f50 f   il_exr.obj
 0001:00041fa0       ?seekp@ilOStream@@UEAAX_K@Z 0000000180042fa0 f   il_exr.obj
 0001:00042000       ?iGetExrHead@@YAHPEAUSIO@@PEAUEXRHEAD@@@Z 0000000180043000 f   il_exr.obj
 0001:00042060       ?iCheckExr@@YAEPEAUEXRHEAD@@@Z 0000000180043060 f   il_exr.obj
 0001:00042430       ??$_Allocate@D@std@@YAPEAD_KPEAD@Z 0000000180043430 f i il_exr.obj
 0001:000424b0       ??$_Allocate@U_Container_proxy@std@@@std@@YAPEAU_Container_proxy@0@_KPEAU10@@Z 00000001800434b0 f i il_exr.obj
 0001:00042540       ??$_Debug_pointer@D@std@@YAXPEBDPEB_WI@Z 0000000180043540 f i il_exr.obj
 0001:000425a0       ??$addressof@D@std@@YAPEADAEAD@Z 00000001800435a0 f i il_exr.obj
 0001:000425b0       ??$construct@PEADAEAPEAD@?$_Wrap_alloc@V?$allocator@D@std@@@std@@QEAAXPEAPEADAEAPEAD@Z 00000001800435b0 f i il_exr.obj
 0001:00042610       ??$construct@PEADAEAPEAD@?$allocator@D@std@@QEAAXPEAPEADAEAPEAD@Z 0000000180043610 f i il_exr.obj
 0001:000426c0       ??$construct@PEADAEAPEAD@?$allocator_traits@V?$allocator@D@std@@@std@@SAXAEAV?$allocator@D@1@PEAPEADAEAPEAD@Z 00000001800436c0 f i il_exr.obj
 0001:00042720       ??$construct@U_Container_proxy@std@@U12@@?$allocator@U_Container_proxy@std@@@std@@QEAAXPEAU_Container_proxy@1@$$QEAU21@@Z 0000000180043720 f i il_exr.obj
 0001:000427d0       ??$destroy@PEAD@?$_Wrap_alloc@V?$allocator@D@std@@@std@@QEAAXPEAPEAD@Z 00000001800437d0 f i il_exr.obj
 0001:00042820       ??$destroy@PEAD@?$allocator@D@std@@QEAAXPEAPEAD@Z 0000000180043820 f i il_exr.obj
 0001:00042830       ??$destroy@PEAD@?$allocator_traits@V?$allocator@D@std@@@std@@SAXAEAV?$allocator@D@1@PEAPEAD@Z 0000000180043830 f i il_exr.obj
 0001:00042880       ??$destroy@U_Container_proxy@std@@@?$allocator@U_Container_proxy@std@@@std@@QEAAXPEAU_Container_proxy@1@@Z 0000000180043880 f i il_exr.obj
 0001:00042890       ??$forward@AEAPEAD@std@@YAAEAPEADAEAPEAD@Z 0000000180043890 f i il_exr.obj
 0001:000428a0       ??$forward@U_Container_proxy@std@@@std@@YA$$QEAU_Container_proxy@0@AEAU10@@Z 00000001800438a0 f i il_exr.obj
 0001:000428b0       ??0?$Array@URgba@Imf@@@Imf@@QEAA@XZ 00000001800438b0 f i il_exr.obj
 0001:000428e0       ??0?$Box@V?$Vec2@H@Imath@@@Imath@@QEAA@AEBV?$Vec2@H@1@0@Z 00000001800438e0 f i il_exr.obj
 0001:00042980       ??0?$Box@V?$Vec2@H@Imath@@@Imath@@QEAA@XZ 0000000180043980 f i il_exr.obj
 0001:000429f0       ??0?$Vec2@H@Imath@@QEAA@H@Z 00000001800439f0 f i il_exr.obj
 0001:00042a30       ??0?$Vec2@H@Imath@@QEAA@HH@Z 0000000180043a30 f i il_exr.obj
 0001:00042a70       ??0?$Vec2@H@Imath@@QEAA@XZ 0000000180043a70 f i il_exr.obj
 0001:00042a80       ??0?$Vec2@M@Imath@@QEAA@MM@Z 0000000180043a80 f i il_exr.obj
 0001:00042ad0       ??0?$_String_alloc@$0A@U?$_String_base_types@DV?$allocator@D@std@@@std@@@std@@QEAA@AEBV?$allocator@D@1@@Z 0000000180043ad0 f i il_exr.obj
 0001:00042b30       ??0?$_String_val@U?$_Simple_types@D@std@@@std@@QEAA@XZ 0000000180043b30 f i il_exr.obj
 0001:00042ba0       ??0?$_Wrap_alloc@V?$allocator@D@std@@@std@@QEAA@XZ 0000000180043ba0 f i il_exr.obj
 0001:00042be0       ??0?$allocator@D@std@@QEAA@XZ 0000000180043be0 f i il_exr.obj
 0001:00042bf0       ??0?$allocator@U_Container_proxy@std@@@std@@QEAA@XZ 0000000180043bf0 f i il_exr.obj
 0001:00042c00       ??0?$basic_string@DU?$char_traits@D@std@@V?$allocator@D@2@@std@@QEAA@PEBD@Z 0000000180043c00 f i il_exr.obj
 0001:00042c90       ??0Rgba@Imf@@QEAA@XZ       0000000180043c90 f i il_exr.obj
 0001:00042d20       ??0_Container_proxy@std@@QEAA@XZ 0000000180043d20 f i il_exr.obj
 0001:00042d50       ??0_Generic_error_category@std@@QEAA@XZ 0000000180043d50 f i il_exr.obj
 0001:00042db0       ??0_Ignore@std@@QEAA@XZ    0000000180043db0 f i il_exr.obj
 0001:00042dc0       ??0_Iostream_error_category@std@@QEAA@XZ 0000000180043dc0 f i il_exr.obj
 0001:00042e20       ??0_System_error_category@std@@QEAA@XZ 0000000180043e20 f i il_exr.obj
 0001:00042e80       ??0error_category@std@@QEAA@XZ 0000000180043e80 f i il_exr.obj
 0001:00042eb0       ??0error_condition@std@@QEAA@HAEBVerror_category@1@@Z 0000000180043eb0 f i il_exr.obj
 0001:00042ef0       ??0half@@QEAA@M@Z          0000000180043ef0 f i il_exr.obj
 0001:00043010       ??0half@@QEAA@XZ           0000000180044010 f i il_exr.obj
 0001:00043020       ??1?$Array@URgba@Imf@@@Imf@@QEAA@XZ 0000000180044020 f i il_exr.obj
 0001:00043070       ??1?$_String_alloc@$0A@U?$_String_base_types@DV?$allocator@D@std@@@std@@@std@@QEAA@XZ 0000000180044070 f i il_exr.obj
 0001:000430c0       ??1?$_String_val@U?$_Simple_types@D@std@@@std@@QEAA@XZ 00000001800440c0 f i il_exr.obj
 0001:00043100       ??1_Generic_error_category@std@@UEAA@XZ 0000000180044100 f i il_exr.obj
 0001:00043140       ??1_Iostream_error_category@std@@UEAA@XZ 0000000180044140 f i il_exr.obj
 0001:00043180       ??1_System_error_category@std@@UEAA@XZ 0000000180044180 f i il_exr.obj
 0001:000431c0       ??1error_category@std@@UEAA@XZ 00000001800441c0 f i il_exr.obj
 0001:000431e0       ??1ilIStream@@UEAA@XZ      00000001800441e0 f i il_exr.obj
 0001:00043220       ??1ilOStream@@UEAA@XZ      0000000180044220 f i il_exr.obj
 0001:00043260       ??2@YAPEAX_KPEAX@Z         0000000180044260 f i il_exr.obj
 0001:00043280       ??3@YAXPEAX0@Z             0000000180044280 f i il_exr.obj
 0001:00043290       ??4?$Box@V?$Vec2@H@Imath@@@Imath@@QEAAAEAV01@AEBV01@@Z 0000000180044290 f i il_exr.obj
 0001:00043300       ??4?$Vec2@H@Imath@@QEAAAEBV01@AEBV01@@Z 0000000180044300 f i il_exr.obj
 0001:00043340       ??4half@@QEAAAEAV0@M@Z     0000000180044340 f i il_exr.obj
 0001:000433a0       ??4half@@QEAAAEAV0@V0@@Z   00000001800443a0 f i il_exr.obj
 0001:000433d0       ??8error_category@std@@QEBA_NAEBV01@@Z 00000001800443d0 f i il_exr.obj
 0001:00043430       ??8error_condition@std@@QEBA_NAEBV01@@Z 0000000180044430 f i il_exr.obj
 0001:000434f0       ??B?$Array@URgba@Imf@@@Imf@@QEAAPEAURgba@1@XZ 00000001800444f0 f i il_exr.obj
 0001:00043510       ??Bhalf@@QEBAMXZ           0000000180044510 f i il_exr.obj
 0001:00043560       ??_E_Generic_error_category@std@@UEAAPEAXI@Z 0000000180044560 f i il_exr.obj
 0001:00043560       ??_G_Generic_error_category@std@@UEAAPEAXI@Z 0000000180044560 f i il_exr.obj
 0001:000435c0       ??_G_Iostream_error_category@std@@UEAAPEAXI@Z 00000001800445c0 f i il_exr.obj
 0001:000435c0       ??_E_Iostream_error_category@std@@UEAAPEAXI@Z 00000001800445c0 f i il_exr.obj
 0001:00043620       ??_G_System_error_category@std@@UEAAPEAXI@Z 0000000180044620 f i il_exr.obj
 0001:00043620       ??_E_System_error_category@std@@UEAAPEAXI@Z 0000000180044620 f i il_exr.obj
 0001:00043680       ??_Gerror_category@std@@UEAAPEAXI@Z 0000000180044680 f i il_exr.obj
 0001:00043680       ??_Eerror_category@std@@UEAAPEAXI@Z 0000000180044680 f i il_exr.obj
 0001:000436e0       ??_EilIStream@@UEAAPEAXI@Z 00000001800446e0 f i il_exr.obj
 0001:000436e0       ??_GilIStream@@UEAAPEAXI@Z 00000001800446e0 f i il_exr.obj
 0001:00043740       ??_GilOStream@@UEAAPEAXI@Z 0000000180044740 f i il_exr.obj
 0001:00043740       ??_EilOStream@@UEAAPEAXI@Z 0000000180044740 f i il_exr.obj
 0001:000437a0       ??_H@YAXPEAX_KHP6APEAX0@Z@Z 00000001800447a0 f i il_exr.obj
 0001:00043820       ?_Alloc_proxy@?$_String_alloc@$0A@U?$_String_base_types@DV?$allocator@D@std@@@std@@@std@@QEAAXXZ 0000000180044820 f i il_exr.obj
 0001:000438d0       ?_Copy@?$basic_string@DU?$char_traits@D@std@@V?$allocator@D@2@@std@@QEAAX_K0@Z 00000001800448d0 f i il_exr.obj
 0001:00043b70       ?_Eos@?$basic_string@DU?$char_traits@D@std@@V?$allocator@D@2@@std@@QEAAX_K@Z 0000000180044b70 f i il_exr.obj
 0001:00043be0       ?_Free_proxy@?$_String_alloc@$0A@U?$_String_base_types@DV?$allocator@D@std@@@std@@@std@@QEAAXXZ 0000000180044be0 f i il_exr.obj
 0001:00043c80       ?_Getal@?$_String_alloc@$0A@U?$_String_base_types@DV?$allocator@D@std@@@std@@@std@@QEBA?AU?$_Wrap_alloc@V?$allocator@D@std@@@2@XZ 0000000180044c80 f i il_exr.obj
 0001:00043cd0       ?_Grow@?$basic_string@DU?$char_traits@D@std@@V?$allocator@D@2@@std@@QEAA_N_K_N@Z 0000000180044cd0 f i il_exr.obj
 0001:00043e10       ?_Inside@?$basic_string@DU?$char_traits@D@std@@V?$allocator@D@2@@std@@QEAA_NPEBD@Z 0000000180044e10 f i il_exr.obj
 0001:00043e90       ?_Myptr@?$_String_val@U?$_Simple_types@D@std@@@std@@QEAAPEADXZ 0000000180044e90 f i il_exr.obj
 0001:00043f00       ?_Myptr@?$_String_val@U?$_Simple_types@D@std@@@std@@QEBAPEBDXZ 0000000180044f00 f i il_exr.obj
 0001:00043f70       ?_Tidy@?$basic_string@DU?$char_traits@D@std@@V?$allocator@D@2@@std@@QEAAX_N_K@Z 0000000180044f70 f i il_exr.obj
 0001:000440b0       ?_Xlen@?$basic_string@DU?$char_traits@D@std@@V?$allocator@D@2@@std@@QEBAXXZ 00000001800450b0 f i il_exr.obj
 0001:000440f0       ?_Xran@?$basic_string@DU?$char_traits@D@std@@V?$allocator@D@2@@std@@QEBAXXZ 00000001800450f0 f i il_exr.obj
 0001:00044130       ?allocate@?$_Wrap_alloc@V?$allocator@D@std@@@std@@QEAAPEAD_K@Z 0000000180045130 f i il_exr.obj
 0001:00044180       ?allocate@?$allocator@D@std@@QEAAPEAD_K@Z 0000000180045180 f i il_exr.obj
 0001:000441d0       ?allocate@?$allocator@U_Container_proxy@std@@@std@@QEAAPEAU_Container_proxy@2@_K@Z 00000001800451d0 f i il_exr.obj
 0001:00044220       ?assign@?$basic_string@DU?$char_traits@D@std@@V?$allocator@D@2@@std@@QEAAAEAV12@AEBV12@_K1@Z 0000000180045220 f i il_exr.obj
 0001:00044380       ?assign@?$basic_string@DU?$char_traits@D@std@@V?$allocator@D@2@@std@@QEAAAEAV12@PEBD@Z 0000000180045380 f i il_exr.obj
 0001:00044400       ?assign@?$basic_string@DU?$char_traits@D@std@@V?$allocator@D@2@@std@@QEAAAEAV12@PEBD_K@Z 0000000180045400 f i il_exr.obj
 0001:00044510       ?assign@?$char_traits@D@std@@SAXAEADAEBD@Z 0000000180045510 f i il_exr.obj
 0001:00044540       ?baseTypeMax@?$Vec2@H@Imath@@SAHXZ 0000000180045540 f i il_exr.obj
 0001:00044570       ?baseTypeMin@?$Vec2@H@Imath@@SAHXZ 0000000180045570 f i il_exr.obj
 0001:000445a0       ?category@error_code@std@@QEBAAEBVerror_category@2@XZ 00000001800455a0 f i il_exr.obj
 0001:000445c0       ?category@error_condition@std@@QEBAAEBVerror_category@2@XZ 00000001800455c0 f i il_exr.obj
 0001:000445e0       ?copy@?$char_traits@D@std@@SAPEADPEADPEBD_K@Z 00000001800455e0 f i il_exr.obj
 0001:00044660       ?deallocate@?$_Wrap_alloc@V?$allocator@D@std@@@std@@QEAAXPEAD_K@Z 0000000180045660 f i il_exr.obj
 0001:000446c0       ?deallocate@?$allocator@D@std@@QEAAXPEAD_K@Z 00000001800456c0 f i il_exr.obj
 0001:00044710       ?deallocate@?$allocator@U_Container_proxy@std@@@std@@QEAAXPEAU_Container_proxy@2@_K@Z 0000000180045710 f i il_exr.obj
 0001:00044760       ?default_error_condition@_System_error_category@std@@UEBA?AVerror_condition@2@H@Z 0000000180045760 f i il_exr.obj
 0001:00044800       ?default_error_condition@error_category@std@@UEBA?AVerror_condition@2@H@Z 0000000180045800 f i il_exr.obj
 0001:00044860       ?equivalent@error_category@std@@UEBA_NAEBVerror_code@2@H@Z 0000000180045860 f i il_exr.obj
 0001:000448f0       ?equivalent@error_category@std@@UEBA_NHAEBVerror_condition@2@@Z 00000001800458f0 f i il_exr.obj
 0001:00044960       ?erase@?$basic_string@DU?$char_traits@D@std@@V?$allocator@D@2@@std@@QEAAAEAV12@_K0@Z 0000000180045960 f i il_exr.obj
 0001:00044a80       ?erase@?$basic_string@DU?$char_traits@D@std@@V?$allocator@D@2@@std@@QEAAAEAV12@_K@Z 0000000180045a80 f i il_exr.obj
 0001:00044af0       ?generic_category@std@@YAAEBVerror_category@1@XZ 0000000180045af0 f i il_exr.obj
 0001:00044b00       ?length@?$char_traits@D@std@@SA_KPEBD@Z 0000000180045b00 f i il_exr.obj
 0001:00044b90       ?makeEmpty@?$Box@V?$Vec2@H@Imath@@@Imath@@QEAAXXZ 0000000180045b90 f i il_exr.obj
 0001:00044c10       ?max@?$limits@H@Imath@@SAHXZ 0000000180045c10 f i il_exr.obj
 0001:00044c20       ?max_size@?$_Wrap_alloc@V?$allocator@D@std@@@std@@QEBA_KXZ 0000000180045c20 f i il_exr.obj
 0001:00044c60       ?max_size@?$allocator@D@std@@QEBA_KXZ 0000000180045c60 f i il_exr.obj
 0001:00044c80       ?max_size@?$allocator_traits@V?$allocator@D@std@@@std@@SA_KAEBV?$allocator@D@2@@Z 0000000180045c80 f i il_exr.obj
 0001:00044cc0       ?max_size@?$basic_string@DU?$char_traits@D@std@@V?$allocator@D@2@@std@@QEBA_KXZ 0000000180045cc0 f i il_exr.obj
 0001:00044d40       ?message@_Generic_error_category@std@@UEBA?AV?$basic_string@DU?$char_traits@D@std@@V?$allocator@D@2@@2@H@Z 0000000180045d40 f i il_exr.obj
 0001:00044df0       ?message@_Iostream_error_category@std@@UEBA?AV?$basic_string@DU?$char_traits@D@std@@V?$allocator@D@2@@2@H@Z 0000000180045df0 f i il_exr.obj
 0001:00044ea0       ?message@_System_error_category@std@@UEBA?AV?$basic_string@DU?$char_traits@D@std@@V?$allocator@D@2@@2@H@Z 0000000180045ea0 f i il_exr.obj
 0001:00044f50       ?min@?$limits@H@Imath@@SAHXZ 0000000180045f50 f i il_exr.obj
 0001:00044f60       ?move@?$char_traits@D@std@@SAPEADPEADPEBD_K@Z 0000000180045f60 f i il_exr.obj
 0001:00044fe0       ?name@_Generic_error_category@std@@UEBAPEBDXZ 0000000180045fe0 f i il_exr.obj
 0001:00045000       ?name@_Iostream_error_category@std@@UEBAPEBDXZ 0000000180046000 f i il_exr.obj
 0001:00045020       ?name@_System_error_category@std@@UEBAPEBDXZ 0000000180046020 f i il_exr.obj
 0001:00045040       ?resizeErase@?$Array@URgba@Imf@@@Imf@@QEAAXJ@Z 0000000180046040 f i il_exr.obj
 0001:00045150       ?size@?$basic_string@DU?$char_traits@D@std@@V?$allocator@D@2@@std@@QEBA_KXZ 0000000180046150 f i il_exr.obj
 0001:00045170       ?system_category@std@@YAAEBVerror_category@1@XZ 0000000180046170 f i il_exr.obj
 0001:00045180       ?value@error_code@std@@QEBAHXZ 0000000180046180 f i il_exr.obj
 0001:000451a0       ?value@error_condition@std@@QEBAHXZ 00000001800461a0 f i il_exr.obj
 0001:000451c0       hypot                      00000001800461c0 f i il_exr.obj
 0001:00045210       ?iFastConvert@@YAEPEAUILimage@@I@Z 0000000180046210 f   il_fastconv.obj
 0001:00045c20       ?il2ResetRead@@YAXPEAUILimage@@@Z 0000000180046c20 f   il_files.obj
 0001:00045ca0       ?il2SetWrite@@YAXPEAUILimage@@P6APEAXPEB_W@ZP6AXPEAUSIO@@@ZP6AHE3@ZP6A_J3_JI@ZP6A_J3@ZP6A_JPEBXII3@Z@Z 0000000180046ca0 f   il_files.obj
 0001:00045d40       ?il2ResetWrite@@YAXPEAUILimage@@@Z 0000000180046d40 f   il_files.obj
 0001:00045dc0       ?il2SetRead@@YAXPEAUILimage@@P6APEAXPEB_W@ZP6AXPEAUSIO@@@ZP6AE3@ZP6AH3@ZP6A_J3PEAXII@ZP6A_J3_JI@ZP6A_J3@Z@Z 0000000180046dc0 f   il_files.obj
 0001:00045e70       ?il2GetLumpPos@@YA_KPEAUILimage@@@Z 0000000180046e70 f   il_files.obj
 0001:00045ed0       ?iSetInputFile@@YAXPEAUSIO@@PEAX@Z 0000000180046ed0 f   il_files.obj
 0001:00045f80       ?iSetInputLump@@YAXPEAUSIO@@PEBXI@Z 0000000180046f80 f   il_files.obj
 0001:00046030       ?iSetOutputFile@@YAXPEAUSIO@@PEAX@Z 0000000180047030 f   il_files.obj
 0001:000460b0       ?iSetOutputLump@@YAXPEAUSIO@@PEAXI@Z 00000001800470b0 f   il_files.obj
 0001:00046150       ?iSetOutputFake@@YAXPEAUSIO@@@Z 0000000180047150 f   il_files.obj
 0001:000461c0       ?iGetFile@@YAPEAXPEAUILimage@@@Z 00000001800471c0 f   il_files.obj
 0001:000461f0       ?iGetLump@@YAPEBEPEAUILimage@@@Z 00000001800471f0 f   il_files.obj
 0001:00046220       ?ilprintf@@YAIPEAUSIO@@PEBDZZ 0000000180047220 f   il_files.obj
 0001:00046310       ?ipad@@YAXPEAUSIO@@I@Z     0000000180047310 f   il_files.obj
 0001:00046370       ?iDefaultOpenR@@YAPEAXPEB_W@Z 0000000180047370 f   il_files.obj
 0001:000463b0       ?iDefaultCloseR@@YAXPEAUSIO@@@Z 00000001800473b0 f   il_files.obj
 0001:000463f0       ?iDefaultEof@@YAEPEAUSIO@@@Z 00000001800473f0 f   il_files.obj
 0001:00046490       ?iDefaultSeek@@YA_JPEAUSIO@@_JI@Z 0000000180047490 f   il_files.obj
 0001:000464e0       ?iDefaultTell@@YA_JPEAUSIO@@@Z 00000001800474e0 f   il_files.obj
 0001:00046520       ?iDefaultOpenW@@YAPEAXPEB_W@Z 0000000180047520 f   il_files.obj
 0001:00046560       ?iDefaultCloseW@@YAXPEAUSIO@@@Z 0000000180047560 f   il_files.obj
 0001:000465a0       ?iDefaultGetc@@YAHPEAUSIO@@@Z 00000001800475a0 f   il_files.obj
 0001:00046620       ?iDefaultRead@@YA_JPEAUSIO@@PEAXII@Z 0000000180047620 f   il_files.obj
 0001:00046680       ?iDefaultPutc@@YAHEPEAUSIO@@@Z 0000000180047680 f   il_files.obj
 0001:000466d0       ?iDefaultWrite@@YA_JPEBXIIPEAUSIO@@@Z 00000001800476d0 f   il_files.obj
 0001:00046730       ?iSetRead@@YAXPEAUSIO@@P6APEAXPEB_W@ZP6AX0@ZP6AE0@ZP6AH0@ZP6A_J0PEAXII@ZP6A_J0_JI@ZP6A_J0@Z@Z 0000000180047730 f   il_files.obj
 0001:000467d0       ?iEofLump@@YAEPEAUSIO@@@Z  00000001800477d0 f   il_files.obj
 0001:00046830       ?iGetcLump@@YAHPEAUSIO@@@Z 0000000180047830 f   il_files.obj
 0001:000468e0       ?iReadLump@@YA_JPEAUSIO@@PEAXII@Z 00000001800478e0 f   il_files.obj
 0001:00046a80       ?iSeekLump@@YA_JPEAUSIO@@_JI@Z 0000000180047a80 f   il_files.obj
 0001:00046bb0       ?iTellLump@@YA_JPEAUSIO@@@Z 0000000180047bb0 f   il_files.obj
 0001:00046bd0       ?iPutcLump@@YAHEPEAUSIO@@@Z 0000000180047bd0 f   il_files.obj
 0001:00046c40       ?iWriteLump@@YA_JPEBXIIPEAUSIO@@@Z 0000000180047c40 f   il_files.obj
 0001:00046d40       ?iSetWrite@@YAXPEAUSIO@@P6APEAXPEB_W@ZP6AX0@ZP6AHE0@ZP6A_J0_JI@ZP6A_J0@ZP6A_JPEBXII0@Z@Z 0000000180047d40 f   il_files.obj
 0001:00046dd0       ?iEofFile@@YAEPEAUSIO@@@Z  0000000180047dd0 f   il_files.obj
 0001:00046e10       ?iSeekFile@@YA_JPEAUSIO@@_JI@Z 0000000180047e10 f   il_files.obj
 0001:00046e80       ?iPutcFile@@YAHEPEAUSIO@@@Z 0000000180047e80 f   il_files.obj
 0001:00046ed0       ?iWriteFile@@YA_JPEBXIIPEAUSIO@@@Z 0000000180047ed0 f   il_files.obj
 0001:00046f50       ?iTellFile@@YAIPEAUSIO@@@Z 0000000180047f50 f   il_files.obj
 0001:00047460       ?abs@@YA_J_J@Z             0000000180048460 f i il_files.obj
 0001:000474a0       ?iLoadFitsInternal@@YAEPEAUILimage@@@Z 00000001800484a0 f   il_fits.obj
 0001:00047930       ?GetCardInt@@YAEPEADPEAH@Z 0000000180048930 f   il_fits.obj
 0001:00047a90       ?GetCardImage@@YAIPEAUSIO@@PEAUFITSHEAD@@@Z 0000000180048a90 f   il_fits.obj
 0001:00047ea0       ?iGetFitsHead@@YAEPEAUSIO@@PEAUFITSHEAD@@@Z 0000000180048ea0 f   il_fits.obj
 0001:000480c0       ?iCheckFits@@YAEPEAUFITSHEAD@@@Z 00000001800490c0 f   il_fits.obj
 0001:00048180       ?iIsValidFits@@YAEPEAUSIO@@@Z 0000000180049180 f   il_fits.obj
 0001:000485a0       ?GetBigDouble@@YANPEAUSIO@@@Z 00000001800495a0 f i il_fits.obj
 0001:00048630       ?GetBigFloat@@YAMPEAUSIO@@@Z 0000000180049630 f i il_fits.obj
 0001:000486c0       ?GetBigInt@@YAHPEAUSIO@@@Z 00000001800496c0 f i il_fits.obj
 0001:00048740       ?GetBigShort@@YAFPEAUSIO@@@Z 0000000180049740 f i il_fits.obj
 0001:000487c0       ?iSwapInt@@YAXPEAH@Z       00000001800497c0 f i il_fits.obj
 0001:00048800       ?iSwapShort@@YAXPEAF@Z     0000000180049800 f i il_fits.obj
 0001:00048840       ?iLoadFtxInternal@@YAEPEAUILimage@@@Z 0000000180049840 f   il_ftx.obj
 0001:00048990       ?iIsValidGif@@YAEPEAUSIO@@@Z 0000000180049990 f   il_gif.obj
 0001:00048a80       ?iLoadGifInternal@@YAEPEAUILimage@@@Z 0000000180049a80 f   il_gif.obj
 0001:00048d80       ?setMinSizes@@YAEIIPEAUILimage@@@Z 0000000180049d80 f   il_gif.obj
 0001:00048ec0       ?iGetPalette@@YAEPEAUSIO@@EPEAVILpal@@PEAUILimage@@@Z 0000000180049ec0 f   il_gif.obj
 0001:00048f50       ?get_next_code@@YAHPEAVGifDecompressor@@@Z 0000000180049f50 f   il_gif.obj
 0001:00049200       ??0GifLoader@@QEAA@XZ      000000018004a200 f   il_gif.obj
 0001:000492b0       ?GifGetData@GifLoader@@QEAAEI@Z 000000018004a2b0 f   il_gif.obj
 0001:00049ad0       ?readExtensionBlock@GifLoader@@QEAAEXZ 000000018004aad0 f   il_gif.obj
 0001:00049ba0       ?readImage@GifLoader@@QEAAEXZ 000000018004aba0 f   il_gif.obj
 0001:0004a280       ?GetImages@GifLoader@@QEAAEXZ 000000018004b280 f   il_gif.obj
 0001:0004a440       ?RemoveInterlace@@YAEPEAUILimage@@@Z 000000018004b440 f   il_gif.obj
 0001:0004a750       ?ConvertTransparent@@YAEPEAUILimage@@E@Z 000000018004b750 f   il_gif.obj
 0001:0004b0f0       ??0GifDecompressor@@QEAA@XZ 000000018004c0f0 f i il_gif.obj
 0001:0004b140       ??1GifDecompressor@@QEAA@XZ 000000018004c140 f i il_gif.obj
 0001:0004b150       ??1GifLoader@@QEAA@XZ      000000018004c150 f i il_gif.obj
 0001:0004b1c0       ?getPrefix@GifDecompressor@@QEAAFH@Z 000000018004c1c0 f i il_gif.obj
 0001:0004b220       ?getStack@GifDecompressor@@QEAAEXZ 000000018004c220 f i il_gif.obj
 0001:0004b280       ?getStackIndex@GifDecompressor@@QEBAIXZ 000000018004c280 f i il_gif.obj
 0001:0004b2a0       ?getSuffix@GifDecompressor@@QEAAEH@Z 000000018004c2a0 f i il_gif.obj
 0001:0004b2f0       ?isValid@GifDecompressor@@QEBAEXZ 000000018004c2f0 f i il_gif.obj
 0001:0004b310       ?nextInBuffer@GifDecompressor@@QEAAEXZ 000000018004c310 f i il_gif.obj
 0001:0004b390       ?pop@GifDecompressor@@QEAAXXZ 000000018004c390 f i il_gif.obj
 0001:0004b3e0       ?push@GifDecompressor@@QEAAXE@Z 000000018004c3e0 f i il_gif.obj
 0001:0004b460       ?resetBufIndex@GifDecompressor@@QEAAXXZ 000000018004c460 f i il_gif.obj
 0001:0004b480       ?setByteBuff@GifDecompressor@@QEAAXIE@Z 000000018004c480 f i il_gif.obj
 0001:0004b4d0       ?setPrefix@GifDecompressor@@QEAAXF@Z 000000018004c4d0 f i il_gif.obj
 0001:0004b540       ?setSuffix@GifDecompressor@@QEAAXE@Z 000000018004c540 f i il_gif.obj
 0001:0004b5a0       ?stackIndexLegal@GifDecompressor@@QEAAEXZ 000000018004c5a0 f i il_gif.obj
 0001:0004b5d0       ?iIsValidHdr@@YAEPEAUSIO@@@Z 000000018004c5d0 f   il_hdr.obj
 0001:0004b6a0       ?iLoadHdrInternal@@YAEPEAUILimage@@@Z 000000018004c6a0 f   il_hdr.obj
 0001:0004bb00       ?iSaveHdrInternal@@YAEPEAUILimage@@@Z 000000018004cb00 f   il_hdr.obj
 0001:0004c060       ?strnstr_il@@YAPEBDPEBD0_K@Z 000000018004d060 f   il_hdr.obj
 0001:0004c120       ?ReadScanline@@YAXPEAUILimage@@PEAEI@Z 000000018004d120 f   il_hdr.obj
 0001:0004c690       ?RGBE_WriteHeader@@YAEIIPEAUrgbe_header_info@@@Z 000000018004d690 f   il_hdr.obj
 0001:0004c810       ?RGBE_WritePixels@@YAHPEAUILimage@@PEAMH@Z 000000018004d810 f   il_hdr.obj
 0001:0004c920       ?RGBE_WriteBytes_RLE@@YAEPEAUILimage@@PEAEI@Z 000000018004d920 f   il_hdr.obj
 0001:0004d190       ?frexp@@YAMMPEAH@Z         000000018004e190 f i il_hdr.obj
 0001:0004d1e0       frexpf                     000000018004e1e0 f i il_hdr.obj
 0001:0004d230       ?ilSaveCHeader@@YAEPEAUILimage@@PEAD@Z 000000018004e230 f   il_header.obj
 0001:0004d7f0       ?iIsValidIcns@@YAEPEAUSIO@@@Z 000000018004e7f0 f   il_icns.obj
 0001:0004d8c0       ?iLoadIcnsInternal@@YAEPEAUILimage@@@Z 000000018004e8c0 f   il_icns.obj
 0001:0004ddc0       ?iIcnsReadData@@YAEPEAUILimage@@PEAEEHPEAUICNSDATA@@PEAPEAU1@@Z 000000018004edc0 f   il_icns.obj
 0001:0004e690       ?iLoadIconInternal@@YAEPEAUILimage@@@Z 000000018004f690 f   il_icon.obj
 0001:000503e0       ?iIsValidIcon@@YAEPEAUSIO@@@Z 00000001800513e0 f   il_icon.obj
 0001:00050530       ?ico_readpng_get_image@@YAEPEAUIconData@@PEAUICOIMAGE@@N@Z 0000000180051530 f   il_icon.obj
 0001:00050d20       ?ico_readpng_cleanup@@YAXPEAUIconData@@@Z 0000000180051d20 f   il_icon.obj
 0001:00050e90       ?ico_readpng_init@@YAHPEAUILimage@@PEAUIconData@@@Z 0000000180051e90 f   il_icon.obj
 0001:00050ff0       ?iLoadIconPNG@@YAEPEAUILimage@@PEAUICOIMAGE@@@Z 0000000180051ff0 f   il_icon.obj
 0001:00051b10       ?iLoadIffInternal@@YAEPEAUILimage@@@Z 0000000180052b10 f   il_iff.obj
 0001:00052330       ?iff_decompress_rle@@YAPEADIPEADIPEAI@Z 0000000180053330 f   il_iff.obj
 0001:000524e0       ?iff_decompress_tile_rle@@YAPEADGGGPEADI@Z 00000001800534e0 f   il_iff.obj
 0001:00052760       ?iffReadUncompressedTile@@YAPEADPEAUILimage@@GGC@Z 0000000180053760 f   il_iff.obj
 0001:00052900       ?iff_read_data@@YAPEADPEAUILimage@@H@Z 0000000180053900 f   il_iff.obj
 0001:000529a0       ?iff_end_read_chunk@@YAXPEAUILimage@@AEAUIFFLoadState@@@Z 00000001800539a0 f   il_iff.obj
 0001:00052aa0       ?iff_begin_read_chunk@@YA?AU_iff_chunk@@PEAUILimage@@UIFFLoadState@@@Z 0000000180053aa0 f   il_iff.obj
 0001:000530d0       ?iIsValidIlbm@@YAEPEAUSIO@@@Z 00000001800540d0 f   il_ilbm.obj
 0001:000531f0       ?iLoadIlbmInternal@@YAEPEAUILimage@@@Z 00000001800541f0 f   il_ilbm.obj
 0001:00054e20       ?iStrCmp@@YAHPEB_W0@Z      0000000180055e20 f   il_internal.obj
 0001:00054e60       ?iSqrt@@YAHH@Z             0000000180055e60 f   il_internal.obj
 0001:00055070       ?iCheckExtension@@YAEPEB_W0@Z 0000000180056070 f   il_internal.obj
 0001:00055170       ?iFgets@@YAPEACPEAUILimage@@PEADI@Z 0000000180056170 f   il_internal.obj
 0001:00055240       ?iFileExists@@YAEPEB_W@Z   0000000180056240 f   il_internal.obj
 0001:000552a0       ?iGetExtension@@YAPEA_WPEB_W@Z 00000001800562a0 f   il_internal.obj
 0001:00055370       ?ilStrDup@@YAPEA_WPEB_W@Z  0000000180056370 f   il_internal.obj
 0001:000553e0       ?ilStrLen@@YAIPEB_W@Z      00000001800563e0 f   il_internal.obj
 0001:00055460       ?ilCharStrLen@@YAIPEBD@Z   0000000180056460 f   il_internal.obj
 0001:00055680       ?il2DetermineTypeF@@YAIPEAX@Z 0000000180056680 f   il_io.obj
 0001:000556f0       ?il2DetermineTypeL@@YAIPEBXI@Z 00000001800566f0 f   il_io.obj
 0001:00055760       ?il2DetermineType@@YAIPEB_W@Z 0000000180056760 f   il_io.obj
 0001:00055860       ?il2DetermineTypeFuncs@@YAIPEAUILimage@@@Z 0000000180056860 f   il_io.obj
 0001:000558b0       ?il2LoadF@@YAEPEAUILimage@@IPEAX@Z 00000001800568b0 f   il_io.obj
 0001:00055980       ?il2LoadL@@YAEPEAUILimage@@IPEBXI@Z 0000000180056980 f   il_io.obj
 0001:00055a20       ?il2LoadImage@@YAEPEAUILimage@@PEB_W@Z 0000000180056a20 f   il_io.obj
 0001:00055aa0       ?il2LoadFuncs@@YAEPEAUILimage@@I@Z 0000000180056aa0 f   il_io.obj
 0001:00055ed0       ?il2Load@@YAEPEAUILimage@@IPEB_W@Z 0000000180056ed0 f   il_io.obj
 0001:000560a0       ?il2Save@@YAEPEAUILimage@@IPEB_W@Z 00000001800570a0 f   il_io.obj
 0001:00056190       ?il2SaveFuncs@@YAEPEAUILimage@@I@Z 0000000180057190 f   il_io.obj
 0001:000563b0       ?il2SaveImage@@YAEPEAUILimage@@PEB_W@Z 00000001800573b0 f   il_io.obj
 0001:000564c0       ?il2SaveF@@YAIPEAUILimage@@IPEAX@Z 00000001800574c0 f   il_io.obj
 0001:00056530       ?il2SaveL@@YA_JPEAUILimage@@IPEAXI@Z 0000000180057530 f   il_io.obj
 0001:00056620       ?ilTypeFromExt@@YAIPEB_W@Z 0000000180057620 f   il_io.obj
 0001:00056f50       ?iDetermineTypeFuncs@@YAIPEAUSIO@@@Z 0000000180057f50 f   il_io.obj
 0001:000579e0       ?WideFromMultiByte@@YAPEA_WPEBD@Z 00000001800589e0 f   il_io.obj
 0001:00057a90       ?iIsValid@@YAEIPEAUSIO@@@Z 0000000180058a90 f   il_io.obj
 0001:00057d30       ?ilIsValidF@@YAEIPEAX@Z    0000000180058d30 f   il_io.obj
 0001:00057da0       ?ilIsValidL@@YAEIPEAXI@Z   0000000180058da0 f   il_io.obj
 0001:00057e20       ?ilIsValid@@YAEIPEB_W@Z    0000000180058e20 f   il_io.obj
 0001:00058890       ?iIsValidIwi@@YAEPEAUSIO@@@Z 0000000180059890 f   il_iwi.obj
 0001:00058950       ?iLoadIwiInternal@@YAEPEAUILimage@@@Z 0000000180059950 f   il_iwi.obj
 0001:00058b60       ?iCheckIwi@@YAEPEAUIWIHEAD@@@Z 0000000180059b60 f   il_iwi.obj
 0001:00058cb0       ?IwiInitMipmaps@@YAEPEAUILimage@@PEAI@Z 0000000180059cb0 f   il_iwi.obj
 0001:00058e30       ?IwiReadImage@@YAEPEAUILimage@@PEAUIWIHEAD@@I@Z 0000000180059e30 f   il_iwi.obj
 0001:000593a0       ?IwiGetFormat@@YAIEPEAE@Z  000000018005a3a0 f   il_iwi.obj
 0001:000594a0       ?iGetIwiHead@@YAHPEAUSIO@@PEAUIWIHEAD@@@Z 000000018005a4a0 f   il_iwi.obj
 0001:00059800       ?iIsValidJpeg@@YAEPEAUSIO@@@Z 000000018005a800 f   il_jpeg.obj
 0001:00059890       ?iLoadJpegInternal@@YAEPEAUILimage@@@Z 000000018005a890 f   il_jpeg.obj
 0001:00059a20       ?iSaveJpegInternal@@YAEPEAUILimage@@@Z 000000018005aa20 f   il_jpeg.obj
 0001:00059d30       ?iCheckJpg@@YAEQEAE@Z      000000018005ad30 f   il_jpeg.obj
 0001:00059d80       ?ilLoadFromJpegStruct@@YAEPEAUILimage@@PEAX@Z 000000018005ad80 f   il_jpeg.obj
 0001:00059f50       ?iGetJpgHead@@YAHPEAUSIO@@PEAE@Z 000000018005af50 f   il_jpeg.obj
 0001:00059fa0       ?ExitErrorio@@YAXPEAUjpeg_common_struct@@@Z 000000018005afa0 f   il_jpeg.obj
 0001:00059fe0       ?OutputMsg@@YAXPEAUjpeg_common_struct@@@Z 000000018005afe0 f   il_jpeg.obj
 0001:0005a1f0       ?devil_jpeg_read_init@@YAXPEAUILimage@@PEAUjpeg_decompress_struct@@@Z 000000018005b1f0 f   il_jpeg.obj
 0001:0005a4e0       ?devil_jpeg_write_init@@YAXPEAUILimage@@PEAUjpeg_compress_struct@@@Z 000000018005b4e0 f   il_jpeg.obj
 0001:0005a5a0       ?ilSaveFromJpegStruct@@YAEPEAUILimage@@PEAX@Z 000000018005b5a0 f   il_jpeg.obj
 0001:0005aba0       ?iIsValidLif@@YAEPEAUSIO@@@Z 000000018005bba0 f   il_lif.obj
 0001:0005ac50       ?iLoadLifInternal@@YAEPEAUILimage@@@Z 000000018005bc50 f   il_lif.obj
 0001:0005ae60       ?iGetLifHead@@YAEPEAUSIO@@PEAULIF_HEAD@@@Z 000000018005be60 f   il_lif.obj
 0001:0005af60       ?iCheckLif@@YAEPEAULIF_HEAD@@@Z 000000018005bf60 f   il_lif.obj
 0001:0005b0d0       DllMain                    000000018005c0d0 f   il_main.obj
 0001:0005b0f0       ?il2CopyPixels@@YAIPEAUILimage@@IIIIIIIIPEAX@Z 000000018005c0f0 f   il_manip.obj
 0001:0005b480       ?il2DefaultImage@@YAEPEAUILimage@@@Z 000000018005c480 f   il_manip.obj
 0001:0005b740       ?il2GetAlpha@@YAPEAEPEAUILimage@@I@Z 000000018005c740 f   il_manip.obj
 0001:0005bb90       ?il2SetPixels@@YAXPEAUILimage@@HHHIIIIIPEAX@Z 000000018005cb90 f   il_manip.obj
 0001:0005bdd0       ?iGetFlipped@@YAPEAEPEAUILimage@@@Z 000000018005cdd0 f   il_manip.obj
 0001:0005be40       ?iMirror@@YAEPEAUILimage@@@Z 000000018005ce40 f   il_manip.obj
 0001:0005c410       ?iFlipBuffer@@YAXPEAEIII@Z 000000018005d410 f   il_manip.obj
 0001:0005c520       ?iFlipNewBuffer@@YAPEAEPEAEIII@Z 000000018005d520 f   il_manip.obj
 0001:0005c670       ?ilFlipImage@@YAEPEAUILimage@@@Z 000000018005d670 f   il_manip.obj
 0001:0005c710       ?ilCopyPixels1D@@YAEPEAUILimage@@IIPEAX@Z 000000018005d710 f   il_manip.obj
 0001:0005c8a0       ?ilCopyPixels2D@@YAEPEAUILimage@@IIIIPEAX@Z 000000018005d8a0 f   il_manip.obj
 0001:0005cab0       ?ilCopyPixels3D@@YAEPEAUILimage@@IIIIIIPEAX@Z 000000018005dab0 f   il_manip.obj
 0001:0005cd90       ?ilSetPixels1D@@YAEPEAUILimage@@HIPEAX@Z 000000018005dd90 f   il_manip.obj
 0001:0005cf50       ?ilSetPixels2D@@YAEPEAUILimage@@HHIIPEAX@Z 000000018005df50 f   il_manip.obj
 0001:0005d220       ?ilSetPixels3D@@YAEPEAUILimage@@HHHIIIPEAX@Z 000000018005e220 f   il_manip.obj
 0001:0005d610       ?ilSetAlpha@@YAEPEAUILimage@@N@Z 000000018005e610 f   il_manip.obj
 0001:0005db30       ?ilModAlpha@@YAXPEAUILimage@@N@Z 000000018005eb30 f   il_manip.obj
 0001:0005df10       ?ilClampNTSC@@YAEPEAUILimage@@@Z 000000018005ef10 f   il_manip.obj
 0001:0005ecc0       ?iIsValidMdl@@YAEPEAUSIO@@@Z 000000018005fcc0 f   il_mdl.obj
 0001:0005ed40       ?iLoadMdlInternal@@YAEPEAUILimage@@@Z 000000018005fd40 f   il_mdl.obj
 0001:0005f2b0       ?iIsValidMp3@@YAEPEAUSIO@@@Z 00000001800602b0 f   il_mp3.obj
 0001:0005f360       ?iLoadMp3Internal@@YAEPEAUILimage@@@Z 0000000180060360 f   il_mp3.obj
 0001:0005f470       ?iCheckMp3@@YAEPEAUMP3HEAD@@@Z 0000000180060470 f   il_mp3.obj
 0001:0005f4e0       ?GetSynchInt@@YAIPEAUSIO@@@Z 00000001800604e0 f   il_mp3.obj
 0001:0005f560       ?iGetMp3Head@@YAEPEAUSIO@@PEAUMP3HEAD@@@Z 0000000180060560 f   il_mp3.obj
 0001:0005f610       ?iFindMp3Pic@@YAIPEAUSIO@@PEAUMP3HEAD@@@Z 0000000180060610 f   il_mp3.obj
 0001:0005fac0       ?initnet@@YAXPEAEHH@Z      0000000180060ac0 f   il_neuquant.obj
 0001:0005fbe0       ?unbiasnet@@YAXXZ          0000000180060be0 f   il_neuquant.obj
 0001:0005fcb0       ?inxbuild@@YAXXZ           0000000180060cb0 f   il_neuquant.obj
 0001:0005ffd0       ?inxsearch@@YAEHHH@Z       0000000180060fd0 f   il_neuquant.obj
 0001:00060290       ?learn@@YAXXZ              0000000180061290 f   il_neuquant.obj
 0001:000605d0       ?contest@@YAHHHH@Z         00000001800615d0 f   il_neuquant.obj
 0001:00060800       ?altersingle@@YAXHHHHH@Z   0000000180061800 f   il_neuquant.obj
 0001:00060900       ?alterneigh@@YAXHHHHH@Z    0000000180061900 f   il_neuquant.obj
 0001:00060bb0       ?iNeuQuant@@YAPEAUILimage@@PEAU1@I@Z 0000000180061bb0 f   il_neuquant.obj
 0001:00061400       ?ilNVidiaCompressDXT@@YAPEAEPEAEIIIIPEAI@Z 0000000180062400 f   il_nvidia.obj
 0001:00061420       ?il2ConvertPal@@YAEPEAUILimage@@I@Z 0000000180062420 f   il_palette.obj
 0001:00061530       ?il2LoadPal@@YAEPEAUILimage@@PEB_W@Z 0000000180062530 f   il_palette.obj
 0001:000616f0       ?iConvertPal@@YA?AVILpal@@PEAV1@I@Z 00000001800626f0 f   il_palette.obj
 0001:00061900       ?il2SetPal@@YAXPEAUILimage@@PEAVILpal@@@Z 0000000180062900 f   il_palette.obj
 0001:00061980       ?iCopyPalette@@YAEPEAVILpal@@0@Z 0000000180062980 f   il_palette.obj
 0001:00061a00       ?ilLoadJascPal@@YAEPEAUILimage@@PEB_W@Z 0000000180062a00 f   il_palette.obj
 0001:00061d10       ?ilSaveJascPal@@YAEPEAUILimage@@PEB_W@Z 0000000180062d10 f   il_palette.obj
 0001:00062090       ?iFgetw@@YAPEADPEAEHPEAU_iobuf@@@Z 0000000180063090 f   il_palette.obj
 0001:000621f0       ?ilLoadHaloPal@@YAEPEAUILimage@@PEB_W@Z 00000001800631f0 f   il_palette.obj
 0001:000624d0       ?ilLoadColPal@@YAEPEAUILimage@@PEB_W@Z 00000001800634d0 f   il_palette.obj
 0001:00062810       ?ilLoadActPal@@YAEPEAUILimage@@PEB_W@Z 0000000180063810 f   il_palette.obj
 0001:00062910       ?ilLoadPltPal@@YAEPEAUILimage@@PEB_W@Z 0000000180063910 f   il_palette.obj
 0001:00062a50       ?ilSavePal@@YAEPEAUILimage@@PEB_W@Z 0000000180063a50 f   il_palette.obj
 0001:00062b30       ?iCopyPal@@YAPEAVILpal@@PEAUILimage@@@Z 0000000180063b30 f   il_palette.obj
 0001:000631c0       ??0ILpal@@QEAA@AEBV0@@Z    00000001800641c0 f i il_palette.obj
 0001:000632a0       ?iLoadPcdInternal@@YAEPEAUILimage@@@Z 00000001800642a0 f   il_pcd.obj
 0001:00063990       ?YCbCr2RGB@@YAXEEEPEAE00@Z 0000000180064990 f   il_pcd.obj
 0001:00063db0       ?iIsValidPcx@@YAEPEAUSIO@@@Z 0000000180064db0 f   il_pcx.obj
 0001:00063e80       ?iLoadPcxInternal@@YAEPEAUILimage@@@Z 0000000180064e80 f   il_pcx.obj
 0001:00063f90       ?iSavePcxInternal@@YAEPEAUILimage@@@Z 0000000180064f90 f   il_pcx.obj
 0001:00064650       ?iCheckPcx@@YAEPEAUPCXHEAD@@@Z 0000000180065650 f   il_pcx.obj
 0001:000646d0       ?iUncompressPcx@@YAEPEAUILimage@@PEAUPCXHEAD@@@Z 00000001800656d0 f   il_pcx.obj
 0001:00064cc0       ?iUncompressSmall@@YAEPEAUILimage@@PEAUPCXHEAD@@@Z 0000000180065cc0 f   il_pcx.obj
 0001:000654d0       ?iGetPcxHead@@YAIPEAUSIO@@PEAUPCXHEAD@@@Z 00000001800664d0 f   il_pcx.obj
 0001:00065530       ?encput@@YAIPEAUSIO@@EE@Z  0000000180066530 f   il_pcx.obj
 0001:00065600       ?encLine@@YAIPEAUSIO@@PEAEHE@Z 0000000180066600 f   il_pcx.obj
 0001:00065e60       ?iIsValidPic@@YAEPEAUSIO@@@Z 0000000180066e60 f   il_pic.obj
 0001:00065f30       ?iLoadPicInternal@@YAEPEAUILimage@@@Z 0000000180066f30 f   il_pic.obj
 0001:000662e0       ?iGetPicHead@@YAHPEAUSIO@@PEAUPIC_HEAD@@@Z 00000001800672e0 f   il_pic.obj
 0001:000663b0       ?iCheckPic@@YAEPEAUPIC_HEAD@@@Z 00000001800673b0 f   il_pic.obj
 0001:00066440       ?channelReadMixed@@YAEPEAUSIO@@PEAEHHPEAHH@Z 0000000180067440 f   il_pic.obj
 0001:00066730       ?channelReadRaw@@YAEPEAUSIO@@PEAEHHPEAHH@Z 0000000180067730 f   il_pic.obj
 0001:00066820       ?channelReadPure@@YAEPEAUSIO@@PEAEHHPEAHH@Z 0000000180067820 f   il_pic.obj
 0001:000669c0       ?readScanline@@YAIPEAUSIO@@PEAEHPEAUCHANNEL@@H@Z 00000001800679c0 f   il_pic.obj
 0001:00066c30       ?readScanlines@@YAEPEAUSIO@@PEAIHHPEAUCHANNEL@@I@Z 0000000180067c30 f   il_pic.obj
 0001:000670a0       ?iIsValidPix@@YAEPEAUSIO@@@Z 00000001800680a0 f   il_pix.obj
 0001:00067150       ?iLoadPixInternal@@YAEPEAUILimage@@@Z 0000000180068150 f   il_pix.obj
 0001:000673c0       ?iCheckPix@@YAEPEAUPIXHEAD@@@Z 00000001800683c0 f   il_pix.obj
 0001:00067400       ?iGetPixHead@@YAHPEAUSIO@@PEAUPIXHEAD@@@Z 0000000180068400 f   il_pix.obj
 0001:000675a0       ?iIsValidPng@@YAEPEAUSIO@@@Z 00000001800685a0 f   il_png.obj
 0001:00067660       ?iLoadPngInternal@@YAEPEAUILimage@@@Z 0000000180068660 f   il_png.obj
 0001:00067740       ?iSavePngInternal@@YAEPEAUILimage@@@Z 0000000180068740 f   il_png.obj
 0001:00068080       ?readpng_get_image@@YAEPEAUILimage@@PEAUPNGData@@N@Z 0000000180069080 f   il_png.obj
 0001:00068900       ?readpng_cleanup@@YAXPEAUPNGData@@@Z 0000000180069900 f   il_png.obj
 0001:00068a80       ?readpng_init@@YAHPEAUILimage@@PEAUPNGData@@@Z 0000000180069a80 f   il_png.obj
 0001:00068bc0       ?png_write@@YAXPEAUpng_struct_def@@PEAE_K@Z 0000000180069bc0 f   il_png.obj
 0001:00068c40       ?flush_data@@YAXPEAUpng_struct_def@@@Z 0000000180069c40 f   il_png.obj
 0001:00069200       ?iIsValidPnm@@YAEPEAUSIO@@@Z 000000018006a200 f   il_pnm.obj
 0001:000692a0       ?iLoadPnmInternal@@YAEPEAUILimage@@@Z 000000018006a2a0 f   il_pnm.obj
 0001:00069760       ?iSavePnmInternal@@YAEPEAUILimage@@@Z 000000018006a760 f   il_pnm.obj
 0001:00069cf0       ?iCheckPnm@@YAEQEAD@Z      000000018006acf0 f   il_pnm.obj
 0001:00069d60       ?ilReadAsciiPpm@@YAPEAUILimage@@PEAU1@PEAUPPMINFO@@PEAC@Z 000000018006ad60 f   il_pnm.obj
 0001:0006a070       ?ilReadBinaryPpm@@YAPEAUILimage@@PEAU1@PEAUPPMINFO@@@Z 000000018006b070 f   il_pnm.obj
 0001:0006a170       ?ilReadBitPbm@@YAPEAUILimage@@PEAU1@PEAUPPMINFO@@@Z 000000018006b170 f   il_pnm.obj
 0001:0006a2e0       ?iGetWord@@YAEPEAUSIO@@EPEAC@Z 000000018006b2e0 f   il_pnm.obj
 0001:0006a4b0       ?PbmMaximize@@YAXPEAUILimage@@@Z 000000018006b4b0 f   il_pnm.obj
 0001:0006a9f0       ?il2ApplyProfile@@YAEPEAUILimage@@PEA_W1@Z 000000018006b9f0 f   il_profiles.obj
 0001:0006aec0       ?iIsValidPsd@@YAEPEAUSIO@@@Z 000000018006bec0 f   il_psd.obj
 0001:0006af60       ?iLoadPsdInternal@@YAEPEAUILimage@@@Z 000000018006bf60 f   il_psd.obj
 0001:0006b050       ?iSavePsdInternal@@YAEPEAUILimage@@@Z 000000018006c050 f   il_psd.obj
 0001:0006b8f0       ?iGetPsdHead@@YAEPEAUSIO@@PEAUPSDHEAD@@@Z 000000018006c8f0 f   il_psd.obj
 0001:0006b9b0       ?iCheckPsd@@YAEPEAUPSDHEAD@@@Z 000000018006c9b0 f   il_psd.obj
 0001:0006bac0       ?GetCompChanLen@@YAPEAIPEAUILimage@@PEAUPSDHEAD@@AEAG@Z 000000018006cac0 f   il_psd.obj
 0001:0006be90       ?PsdGetData@@YAEPEAUILimage@@PEAUPSDHEAD@@PEAXEAEAG@Z 000000018006ce90 f   il_psd.obj
 0001:0006c9a0       ?ParseResources@@YAEPEAUILimage@@IPEAE@Z 000000018006d9a0 f   il_psd.obj
 0001:0006cc10       ?ReadGrey@@YAEPEAUILimage@@PEAUPSDHEAD@@@Z 000000018006dc10 f   il_psd.obj
 0001:0006cee0       ?ReadIndexed@@YAEPEAUILimage@@PEAUPSDHEAD@@@Z 000000018006dee0 f   il_psd.obj
 0001:0006d340       ?ReadRGB@@YAEPEAUILimage@@PEAUPSDHEAD@@@Z 000000018006e340 f   il_psd.obj
 0001:0006d660       ?GetSingleChannel@@YAEPEAUILimage@@PEAUPSDHEAD@@PEAEE@Z 000000018006e660 f   il_psd.obj
 0001:0006d890       ?ReadCMYK@@YAEPEAUILimage@@PEAUPSDHEAD@@@Z 000000018006e890 f   il_psd.obj
 0001:0006dec0       ?ReadPsd@@YAEPEAUILimage@@PEAUPSDHEAD@@@Z 000000018006eec0 f   il_psd.obj
 0001:0006eb90       ?SaveBigInt@@YAEPEAUSIO@@H@Z 000000018006fb90 f i il_psd.obj
 0001:0006ec00       ?SaveBigShort@@YAEPEAUSIO@@F@Z 000000018006fc00 f i il_psd.obj
 0001:0006ec70       ?SaveBigUShort@@YAEPEAUSIO@@G@Z 000000018006fc70 f i il_psd.obj
 0001:0006ece0       ?iIsValidPsp@@YAEPEAUSIO@@@Z 000000018006fce0 f   il_psp.obj
 0001:0006ed90       ?iLoadPspInternal@@YAEPEAUILimage@@@Z 000000018006fd90 f   il_psp.obj
 0001:0006ef90       ?iGetPspHead@@YAIPEAUSIO@@PEAUPSPHEAD@@@Z 000000018006ff90 f   il_psp.obj
 0001:0006efe0       ?iCheckPsp@@YAEPEAUPSPHEAD@@@Z 000000018006ffe0 f   il_psp.obj
 0001:0006f060       ?ReadGenAttributes@@YAEPEAUPspLoadState@@PEAUILimage@@@Z 0000000180070060 f   il_psp.obj
 0001:0006f2c0       ?UncompRLE@@YAEPEAE0I@Z    00000001800702c0 f   il_psp.obj
 0001:0006f400       ?GetChannel@@YAPEAEPEAUPspLoadState@@PEAUILimage@@@Z 0000000180070400 f   il_psp.obj
 0001:0006f7c0       ?ReadLayerBlock@@YAEPEAUPspLoadState@@IPEAUILimage@@@Z 00000001800707c0 f   il_psp.obj
 0001:0006fcb0       ?ReadAlphaBlock@@YAEPEAUPspLoadState@@IPEAUILimage@@@Z 0000000180070cb0 f   il_psp.obj
 0001:00070140       ?ReadPalette@@YAEPEAUPspLoadState@@IPEAUILimage@@@Z 0000000180071140 f   il_psp.obj
 0001:00070250       ?ParseChunks@@YAEPEAUPspLoadState@@PEAUILimage@@@Z 0000000180071250 f   il_psp.obj
 0001:00070470       ?AssembleImage@@YAEPEAUPspLoadState@@PEAUILimage@@@Z 0000000180071470 f   il_psp.obj
 0001:00070970       ?Cleanup@@YAEPEAUPspLoadState@@@Z 0000000180071970 f   il_psp.obj
 0001:00071190       ??0PspLoadState@@QEAA@XZ   0000000180072190 f i il_psp.obj
 0001:000711e0       ??1PspLoadState@@QEAA@XZ   00000001800721e0 f i il_psp.obj
 0001:00071230       ?iLoadPxrInternal@@YAEPEAUILimage@@@Z 0000000180072230 f   il_pxr.obj
 0001:00071480       ?n2@@YAIH@Z                0000000180072480 f   il_quantizer.obj
 0001:000714e0       ?Hist3d@@YAEPEAE00PEAH111PEAMIPEAG@Z 00000001800724e0 f   il_quantizer.obj
 0001:000717b0       ?M3d@@YAXPEAH000PEAM@Z     00000001800727b0 f   il_quantizer.obj
 0001:00071b80       ?Vol@@YAHPEAUBox@@QEAY1CB@CB@H@Z 0000000180072b80 f   il_quantizer.obj
 0001:00071d70       ?Bottom@@YAHPEAUBox@@EQEAY1CB@CB@H@Z 0000000180072d70 f   il_quantizer.obj
 0001:000720a0       ?Top@@YAHPEAUBox@@EHQEAY1CB@CB@H@Z 00000001800730a0 f   il_quantizer.obj
 0001:000723b0       ?Var@@YAMPEAUBox@@PEAUQuantizerState@@@Z 00000001800733b0 f   il_quantizer.obj
 0001:00072690       ?Maximize@@YAMPEAUBox@@EHHPEAHHHHHPEAUQuantizerState@@@Z 0000000180073690 f   il_quantizer.obj
 0001:000729a0       ?Cut@@YAHPEAUBox@@0PEAUQuantizerState@@@Z 00000001800739a0 f   il_quantizer.obj
 0001:00072e80       ?Mark@@YAXPEAUBox@@HPEAE@Z 0000000180073e80 f   il_quantizer.obj
 0001:00072f80       ?iQuantizeImage@@YAPEAUILimage@@PEAU1@I@Z 0000000180073f80 f   il_quantizer.obj
 0001:00074470       ?iLoadRawInternal@@YAEPEAUILimage@@@Z 0000000180075470 f   il_raw.obj
 0001:00074690       ?iSaveRawInternal@@YAEPEAUILimage@@@Z 0000000180075690 f   il_raw.obj
 0001:00074860       ?iLoadDataInternal@@YAEPEAUILimage@@IIIE@Z 0000000180075860 f   il_rawdata.obj
 0001:000749c0       ?ilSaveData@@YAEPEAUILimage@@PEB_W@Z 00000001800759c0 f   il_rawdata.obj
 0001:00074b00       ?il2RegisterPal@@YAXPEAUILimage@@PEAXII@Z 0000000180075b00 f   il_register.obj
 0001:00074b90       ?ilRemoveRegistered@@YAXXZ 0000000180075b90 f   il_register.obj
 0001:00074c50       ?ilRegisterFormat@@YAXI@Z  0000000180075c50 f   il_register.obj
 0001:00074cd0       ?ilRegisterLoad@@YAEPEB_WP6AI0@Z@Z 0000000180075cd0 f   il_register.obj
 0001:00074dc0       ?ilRegisterMipNum@@YAEI@Z  0000000180075dc0 f   il_register.obj
 0001:00074f20       ?ilRegisterNumFaces@@YAEI@Z 0000000180075f20 f   il_register.obj
 0001:00075080       ?ilRegisterNumImages@@YAEI@Z 0000000180076080 f   il_register.obj
 0001:000751e0       ?ilRegisterOrigin@@YAXI@Z  00000001800761e0 f   il_register.obj
 0001:00075240       ?ilRegisterSave@@YAEPEB_WP6AI0@Z@Z 0000000180076240 f   il_register.obj
 0001:00075330       ?ilRegisterType@@YAXI@Z    0000000180076330 f   il_register.obj
 0001:000753a0       ?ilRemoveLoad@@YAEPEB_W@Z  00000001800763a0 f   il_register.obj
 0001:00075480       ?ilRemoveSave@@YAEPEB_W@Z  0000000180076480 f   il_register.obj
 0001:00075560       ?ilSetDuration@@YAEI@Z     0000000180076560 f   il_register.obj
 0001:000755b0       ?iRegisterLoad@@YAEPEB_W@Z 00000001800765b0 f   il_register.obj
 0001:00075670       ?iRegisterSave@@YAEPEB_W@Z 0000000180076670 f   il_register.obj
 0001:00075a30       ?ilRleCompressLine@@YAEPEAEIE0PEAII@Z 0000000180076a30 f   il_rle.obj
 0001:000760f0       ?ilRleCompress@@YAIPEAEIIIE0IPEAI@Z 00000001800770f0 f   il_rle.obj
 0001:00076520       ?CountDiffPixels@@YAHPEAEII@Z 0000000180077520 f i il_rle.obj
 0001:00076620       ?CountSamePixels@@YAHPEAEII@Z 0000000180077620 f i il_rle.obj
 0001:000766f0       ?GetPix@@YAIPEAEI@Z        00000001800776f0 f i il_rle.obj
 0001:000767c0       ?iLoadRotInternal@@YAEPEAUILimage@@@Z 00000001800777c0 f   il_rot.obj
 0001:00077480       ?iIsValidSgi@@YAEPEAUSIO@@@Z 0000000180078480 f   il_sgi.obj
 0001:00077550       ?iLoadSgiInternal@@YAEPEAUILimage@@@Z 0000000180078550 f   il_sgi.obj
 0001:00077690       ?iSaveSgiInternal@@YAEPEAUILimage@@@Z 0000000180078690 f   il_sgi.obj
 0001:00077c20       ?iNewSgi@@YAEPEAUILimage@@PEAUiSgiHeader@@@Z 0000000180078c20 f   il_sgi.obj
 0001:00077db0       ?iGetSgiHead@@YAHPEAUSIO@@PEAUiSgiHeader@@@Z 0000000180078db0 f   il_sgi.obj
 0001:00077ea0       ?iCheckSgi@@YAEPEAUiSgiHeader@@@Z 0000000180078ea0 f   il_sgi.obj
 0001:00077f30       ?iReadNonRleSgi@@YAEPEAUILimage@@PEAUiSgiHeader@@@Z 0000000180078f30 f   il_sgi.obj
 0001:00078020       ?sgiSwitchData@@YAXPEAEI@Z 0000000180079020 f   il_sgi.obj
 0001:000780c0       ?iGetScanLine@@YAHPEAUILimage@@PEAEPEAUiSgiHeader@@I@Z 00000001800790c0 f   il_sgi.obj
 0001:000783b0       ?iReadRleSgi@@YAEPEAUILimage@@PEAUiSgiHeader@@@Z 00000001800793b0 f   il_sgi.obj
 0001:000789d0       ?DetermineSgiType@@YAIPEAUILimage@@I@Z 00000001800799d0 f   il_sgi.obj
 0001:00078a10       ?iSaveRleSgi@@YAEPEAUILimage@@PEAEIIII@Z 0000000180079a10 f   il_sgi.obj
 0001:00079550       ?SaveBigUInt@@YAEPEAUSIO@@I@Z 000000018007a550 f i il_sgi.obj
 0001:000795c0       ?SaveLittleInt@@YAEPEAUSIO@@H@Z 000000018007a5c0 f i il_sgi.obj
 0001:00079620       ?il2DetermineSize@@YA_JPEAUILimage@@I@Z 000000018007a620 f   il_size.obj
 0001:000796b0       ?iSizeSeek@@YA_JPEAUSIO@@_JI@Z 000000018007a6b0 f   il_size.obj
 0001:000797c0       ?iSizeTell@@YA_JPEAUSIO@@@Z 000000018007a7c0 f   il_size.obj
 0001:000797e0       ?iSizePutc@@YAHEPEAUSIO@@@Z 000000018007a7e0 f   il_size.obj
 0001:00079840       ?iSizeWrite@@YA_JPEBXIIPEAUSIO@@@Z 000000018007a840 f   il_size.obj
 0001:00079950       ?ilSquishCompressDXT@@YAPEAEPEAEIIIIPEAI@Z 000000018007a950 f   il_squish.obj
 0001:00079970       ?il2Init@@YAXXZ            000000018007a970 f   il_stack.obj
 0001:000799b0       ?il2CreateSubImage@@YAIPEAUILimage@@II@Z 000000018007a9b0 f   il_stack.obj
 0001:00079bd0       ?ilClosePal@@YAXPEAVILpal@@@Z 000000018007abd0 f   il_stack.obj
 0001:00079c50       ?ilIsValidPal@@YAEPEAVILpal@@@Z 000000018007ac50 f   il_stack.obj
 0001:00079da0       ?il2GetBoolean@@YAEI@Z     000000018007ada0 f   il_states.obj
 0001:00079e00       ?il2GetBooleanv@@YAXIPEAE@Z 000000018007ae00 f   il_states.obj
 0001:00079e60       ?il2GetInteger@@YAHI@Z     000000018007ae60 f   il_states.obj
 0001:00079ec0       ?il2GetImageInteger@@YAXPEAUILimage@@IPEAH@Z 000000018007aec0 f   il_states.obj
 0001:0007a400       ?il2GetIntegerv@@YAXIPEAH@Z 000000018007b400 f   il_states.obj
 0001:0007aac0       ?il2GetString@@YAPEB_WI@Z  000000018007bac0 f   il_states.obj
 0001:0007ad20       ?il2IsEnabled@@YAEI@Z      000000018007bd20 f   il_states.obj
 0001:0007afb0       ?il2SetInteger@@YAXIH@Z    000000018007bfb0 f   il_states.obj
 0001:0007b510       ?il2SetImageInteger@@YAXPEAUILimage@@IH@Z 000000018007c510 f   il_states.obj
 0001:0007b5d0       ?ilAble@@YAEIE@Z           000000018007c5d0 f   il_states.obj
 0001:0007b8a0       ?ilDefaultStates@@YAXXZ    000000018007c8a0 f   il_states.obj
 0001:0007bd70       ?iGetHint@@YAII@Z          000000018007cd70 f   il_states.obj
 0001:0007bde0       ?iGetInt@@YAHI@Z           000000018007cde0 f   il_states.obj
 0001:0007be70       ?iGetString@@YAPEADI@Z     000000018007ce70 f   il_states.obj
 0001:0007c0d0       ?iClipString@@YAPEADPEADI@Z 000000018007d0d0 f   il_states.obj
 0001:0007c160       ?ilIsDisabled@@YAEI@Z      000000018007d160 f   il_states.obj
 0001:0007c1b0       ?ilOriginFunc@@YAEI@Z      000000018007d1b0 f   il_states.obj
 0001:0007c230       ?ilFormatFunc@@YAEI@Z      000000018007d230 f   il_states.obj
 0001:0007c2c0       ?ilTypeFunc@@YAEI@Z        000000018007d2c0 f   il_states.obj
 0001:0007c340       ?ilCompressFunc@@YAEI@Z    000000018007d340 f   il_states.obj
 0001:0007c3c0       ?ilPushAttrib@@YAXI@Z      000000018007d3c0 f   il_states.obj
 0001:0007ce10       ?ilPopAttrib@@YAXXZ        000000018007de10 f   il_states.obj
 0001:0007ce60       ?ilHint@@YAXII@Z           000000018007de60 f   il_states.obj
 0001:0007cf70       ?ilSetString@@YAXIPEBD@Z   000000018007df70 f   il_states.obj
 0001:0007e250       ?iIsValidSun@@YAEPEAUSIO@@@Z 000000018007f250 f   il_sun.obj
 0001:0007e310       ?iLoadSunInternal@@YAEPEAUILimage@@@Z 000000018007f310 f   il_sun.obj
 0001:0007ed50       ?iGetSunHead@@YAIPEAUSIO@@PEAUSUNHEAD@@@Z 000000018007fd50 f   il_sun.obj
 0001:0007ee30       ?iCheckSun@@YAEPEAUSUNHEAD@@@Z 000000018007fe30 f   il_sun.obj
 0001:0007ef00       ?iSunGetRle@@YAIPEAUILimage@@PEAEI@Z 000000018007ff00 f   il_sun.obj
 0001:0007f060       ?writeSunPixels@@YAXPEAUILimage@@AEAIEH@Z 0000000180080060 f   il_sun.obj
 0001:0007f120       ?iSunDecodeRle@@YAXPEAUILimage@@@Z 0000000180080120 f   il_sun.obj
 0001:0007f240       ?iSunPrepareImageBuffer@@YAXPEAUILimage@@PEAUSUNHEAD@@@Z 0000000180080240 f   il_sun.obj
 0001:0007f740       ?iIsValidTarga@@YAEPEAUSIO@@@Z 0000000180080740 f   il_targa.obj
 0001:0007f7f0       ?iLoadTargaInternal@@YAEPEAUILimage@@@Z 00000001800807f0 f   il_targa.obj
 0001:0007fa30       ?iSaveTargaInternal@@YAEPEAUILimage@@@Z 0000000180080a30 f   il_targa.obj
 0001:000808f0       ?iGetTgaHead@@YA_JPEAUSIO@@PEAUTARGAHEAD@@@Z 00000001800818f0 f   il_targa.obj
 0001:00080940       ?iCheckTarga@@YAEPEAUTARGAHEAD@@@Z 0000000180081940 f   il_targa.obj
 0001:00080a50       ?iUncompressTgaData@@YAEPEAUILimage@@@Z 0000000180081a50 f   il_targa.obj
 0001:00080cf0       ?iReadColMapTga@@YAEPEAUILimage@@PEAUTARGAHEAD@@@Z 0000000180081cf0 f   il_targa.obj
 0001:000810b0       ?i16BitTarga@@YAEPEAUILimage@@@Z 00000001800820b0 f   il_targa.obj
 0001:00081240       ?iReadUnmapTga@@YAEPEAUILimage@@PEAUTARGAHEAD@@@Z 0000000180082240 f   il_targa.obj
 0001:000814b0       ?iReadBwTga@@YAEPEAUILimage@@PEAUTARGAHEAD@@@Z 00000001800824b0 f   il_targa.obj
 0001:00081650       ?iGetDateTime@@YAXPEAI00000@Z 0000000180082650 f   il_targa.obj
 0001:00081f00       ?SaveLittleShort@@YAEPEAUSIO@@F@Z 0000000180082f00 f i il_targa.obj
 0001:00081f60       ?ilLoadTextureL@@YAEPEAUILimage@@PEBXI@Z 0000000180082f60 f   il_texture.obj
 0001:00082000       ?ilIsValidTiffFunc@@YAEPEAUSIO@@@Z 0000000180083000 f   il_tiff.obj
 0001:000820f0       ?iLoadTiffInternal@@YAEPEAUILimage@@@Z 00000001800830f0 f   il_tiff.obj
 0001:00082240       ?iSaveTiffInternal@@YAEPEAUILimage@@@Z 0000000180083240 f   il_tiff.obj
 0001:000829f0       ?ilisValidTiffExtension@@YAEPEB_W@Z 00000001800839f0 f   il_tiff.obj
 0001:00082e70       ?iTIFFOpen@@YAPEAUtiff@@PEAUILimage@@PEAD@Z 0000000180083e70 f   il_tiff.obj
 0001:00082fa0       ?warningHandler@@YAXPEBD0PEAD@Z 0000000180083fa0 f   il_tiff.obj
 0001:00082fd0       ?errorHandler@@YAXPEBD0PEAD@Z 0000000180083fd0 f   il_tiff.obj
 0001:00083000       ?initTiffLoadState@@YAXPEAUtiff@@AEAUTiffLoadState@@PEAUILimage@@@Z 0000000180084000 f   il_tiff.obj
 0001:00083200       ?addFrame@@YAEAEAUTiffLoadState@@HEI@Z 0000000180084200 f   il_tiff.obj
 0001:00083330       ?decodeTiffLuminanceOrPaletted@@YAEPEAUILimage@@AEAUTiffLoadState@@H@Z 0000000180084330 f   il_tiff.obj
 0001:00083af0       ?decodeRGB16@@YAEPEAUILimage@@AEAUTiffLoadState@@H@Z 0000000180084af0 f   il_tiff.obj
 0001:00083db0       ?decodeOther@@YAEPEAUILimage@@AEAUTiffLoadState@@H@Z 0000000180084db0 f   il_tiff.obj
 0001:00083fd0       ?decodeFrame@@YAEPEAUILimage@@PEAUtiff@@H@Z 0000000180084fd0 f   il_tiff.obj
 0001:00084c80       ?iIsValidTpl@@YAEPEAUSIO@@@Z 0000000180085c80 f   il_tpl.obj
 0001:00084d20       ?iLoadTplInternal@@YAEPEAUILimage@@@Z 0000000180085d20 f   il_tpl.obj
 0001:000869f0       ?iCheckTpl@@YAEPEAUTPLHEAD@@@Z 00000001800879f0 f   il_tpl.obj
 0001:00086a30       ?TplGetIndexImage@@YAEPEAUILimage@@II@Z 0000000180087a30 f   il_tpl.obj
 0001:00087430       ?iGetTplHead@@YAEPEAUSIO@@PEAUTPLHEAD@@@Z 0000000180088430 f   il_tpl.obj
 0001:00087ea0       ?ilGetBppFormat@@YAEI@Z    0000000180088ea0 f   il_utility.obj
 0001:00087f40       ?ilGetFormatBpp@@YAIE@Z    0000000180088f40 f   il_utility.obj
 0001:00087fb0       ?ilGetBpcType@@YAEI@Z      0000000180088fb0 f   il_utility.obj
 0001:00088050       ?ilGetTypeBpc@@YAIE@Z      0000000180089050 f   il_utility.obj
 0001:000880c0       ?ilGetBppPal@@YAEI@Z       00000001800890c0 f   il_utility.obj
 0001:00088140       ?ilGetPalBaseType@@YAII@Z  0000000180089140 f   il_utility.obj
 0001:000881e0       ?ilNextPower2@@YAII@Z      00000001800891e0 f   il_utility.obj
 0001:00088230       ?iMemSwap@@YAXPEAE0I@Z     0000000180089230 f   il_utility.obj
 0001:000884a0       ?iLoadUtxInternal@@YAEPEAUILimage@@@Z 00000001800894a0 f   il_utx.obj
 0001:00089660       ?GetUtxHead@@YA_JPEAUSIO@@AEAUUTXHEADER@@@Z 000000018008a660 f   il_utx.obj
 0001:000896b0       ?CheckUtxHead@@YAEAEAUUTXHEADER@@@Z 000000018008a6b0 f   il_utx.obj
 0001:00089700       ?GetUtxName@@YA?AV?$basic_string@DU?$char_traits@D@std@@V?$allocator@D@2@@std@@PEAUSIO@@AEAUUTXHEADER@@@Z 000000018008a700 f   il_utx.obj
 0001:00089980       ?GetUtxNameTable@@YA_NPEAUSIO@@AEAV?$vector@UUTXENTRYNAME@@V?$allocator@UUTXENTRYNAME@@@std@@@std@@AEAUUTXHEADER@@@Z 000000018008a980 f   il_utx.obj
 0001:00089b20       ?UtxReadCompactInteger@@YAHPEAUSIO@@@Z 000000018008ab20 f   il_utx.obj
 0001:00089c40       ?ChangeObjectReference@@YAXPEAHPEAE@Z 000000018008ac40 f   il_utx.obj
 0001:00089cb0       ?GetUtxExportTable@@YA_NPEAUSIO@@AEAV?$vector@UUTXEXPORTTABLE@@V?$allocator@UUTXEXPORTTABLE@@@std@@@std@@AEAUUTXHEADER@@@Z 000000018008acb0 f   il_utx.obj
 0001:00089f00       ?GetUtxImportTable@@YA_NPEAUSIO@@AEAV?$vector@UUTXIMPORTTABLE@@V?$allocator@UUTXIMPORTTABLE@@@std@@@std@@AEAUUTXHEADER@@@Z 000000018008af00 f   il_utx.obj
 0001:0008a060       ?UtxFormatToDevIL@@YAII@Z  000000018008b060 f   il_utx.obj
 0001:0008a0b0       ?UtxFormatToBpp@@YAII@Z    000000018008b0b0 f   il_utx.obj
 0001:0008a810       ??$?8DD@std@@YA_NAEBV?$allocator@D@0@0@Z 000000018008b810 f i il_utx.obj
 0001:0008a830       ??$?8DU?$char_traits@D@std@@V?$allocator@D@1@@std@@YA_NAEBV?$basic_string@DU?$char_traits@D@std@@V?$allocator@D@2@@0@PEBD@Z 000000018008b830 f i il_utx.obj
 0001:0008a8a0       ??$?8V?$allocator@D@std@@V01@@std@@YA_NAEBU?$_Wrap_alloc@V?$allocator@D@std@@@0@0@Z 000000018008b8a0 f i il_utx.obj
 0001:0008a920       ??$?9V?$allocator@D@std@@V01@@std@@YA_NAEBU?$_Wrap_alloc@V?$allocator@D@std@@@0@0@Z 000000018008b920 f i il_utx.obj
 0001:0008a990       ??$_Allocate@UUTXENTRYNAME@@@std@@YAPEAUUTXENTRYNAME@@_KPEAU1@@Z 000000018008b990 f i il_utx.obj
 0001:0008aa20       ??$_Allocate@UUTXEXPORTTABLE@@@std@@YAPEAUUTXEXPORTTABLE@@_KPEAU1@@Z 000000018008ba20 f i il_utx.obj
 0001:0008aab0       ??$_Allocate@UUTXIMPORTTABLE@@@std@@YAPEAUUTXIMPORTTABLE@@_KPEAU1@@Z 000000018008bab0 f i il_utx.obj
 0001:0008ab40       ??$_Allocate@VUTXPALETTE@@@std@@YAPEAVUTXPALETTE@@_KPEAV1@@Z 000000018008bb40 f i il_utx.obj
 0001:0008abd0       ??$_Debug_pointer@UUTXENTRYNAME@@@std@@YAXPEAUUTXENTRYNAME@@PEB_WI@Z 000000018008bbd0 f i il_utx.obj
 0001:0008ac30       ??$_Debug_pointer@UUTXEXPORTTABLE@@@std@@YAXPEAUUTXEXPORTTABLE@@PEB_WI@Z 000000018008bc30 f i il_utx.obj
 0001:0008ac90       ??$_Debug_pointer@UUTXIMPORTTABLE@@@std@@YAXPEAUUTXIMPORTTABLE@@PEB_WI@Z 000000018008bc90 f i il_utx.obj
 0001:0008acf0       ??$_Debug_pointer@VUTXPALETTE@@@std@@YAXPEAVUTXPALETTE@@PEB_WI@Z 000000018008bcf0 f i il_utx.obj
 0001:0008ad50       ??$_Debug_range2@PEAUUTXENTRYNAME@@@std@@YAXPEAUUTXENTRYNAME@@0PEB_WIUrandom_access_iterator_tag@0@@Z 000000018008bd50 f i il_utx.obj
 0001:0008ae00       ??$_Debug_range2@PEAUUTXEXPORTTABLE@@@std@@YAXPEAUUTXEXPORTTABLE@@0PEB_WIUrandom_access_iterator_tag@0@@Z 000000018008be00 f i il_utx.obj
 0001:0008aeb0       ??$_Debug_range2@PEAUUTXIMPORTTABLE@@@std@@YAXPEAUUTXIMPORTTABLE@@0PEB_WIUrandom_access_iterator_tag@0@@Z 000000018008beb0 f i il_utx.obj
 0001:0008af60       ??$_Debug_range2@PEAVUTXPALETTE@@@std@@YAXPEAVUTXPALETTE@@0PEB_WIUrandom_access_iterator_tag@0@@Z 000000018008bf60 f i il_utx.obj
 0001:0008b010       ??$_Debug_range@PEAUUTXENTRYNAME@@@std@@YAXPEAUUTXENTRYNAME@@0PEB_WI@Z 000000018008c010 f i il_utx.obj
 0001:0008b090       ??$_Debug_range@PEAUUTXEXPORTTABLE@@@std@@YAXPEAUUTXEXPORTTABLE@@0PEB_WI@Z 000000018008c090 f i il_utx.obj
 0001:0008b110       ??$_Debug_range@PEAUUTXIMPORTTABLE@@@std@@YAXPEAUUTXIMPORTTABLE@@0PEB_WI@Z 000000018008c110 f i il_utx.obj
 0001:0008b190       ??$_Debug_range@PEAVUTXPALETTE@@@std@@YAXPEAVUTXPALETTE@@0PEB_WI@Z 000000018008c190 f i il_utx.obj
 0001:0008b210       ??$_Destroy_range@U?$_Wrap_alloc@V?$allocator@UUTXENTRYNAME@@@std@@@std@@@std@@YAXPEAUUTXENTRYNAME@@0AEAU?$_Wrap_alloc@V?$allocator@UUTXENTRYNAME@@@std@@@0@@Z 000000018008c210 f i il_utx.obj
 0001:0008b290       ??$_Destroy_range@U?$_Wrap_alloc@V?$allocator@UUTXENTRYNAME@@@std@@@std@@@std@@YAXPEAUUTXENTRYNAME@@0AEAU?$_Wrap_alloc@V?$allocator@UUTXENTRYNAME@@@std@@@0@U_Nonscalar_ptr_iterator_tag@0@@Z 000000018008c290 f i il_utx.obj
 0001:0008b310       ??$_Destroy_range@U?$_Wrap_alloc@V?$allocator@UUTXEXPORTTABLE@@@std@@@std@@@std@@YAXPEAUUTXEXPORTTABLE@@0AEAU?$_Wrap_alloc@V?$allocator@UUTXEXPORTTABLE@@@std@@@0@@Z 000000018008c310 f i il_utx.obj
 0001:0008b390       ??$_Destroy_range@U?$_Wrap_alloc@V?$allocator@UUTXEXPORTTABLE@@@std@@@std@@@std@@YAXPEAUUTXEXPORTTABLE@@0AEAU?$_Wrap_alloc@V?$allocator@UUTXEXPORTTABLE@@@std@@@0@U_Nonscalar_ptr_iterator_tag@0@@Z 000000018008c390 f i il_utx.obj
 0001:0008b410       ??$_Destroy_range@U?$_Wrap_alloc@V?$allocator@UUTXIMPORTTABLE@@@std@@@std@@@std@@YAXPEAUUTXIMPORTTABLE@@0AEAU?$_Wrap_alloc@V?$allocator@UUTXIMPORTTABLE@@@std@@@0@@Z 000000018008c410 f i il_utx.obj
 0001:0008b490       ??$_Destroy_range@U?$_Wrap_alloc@V?$allocator@UUTXIMPORTTABLE@@@std@@@std@@@std@@YAXPEAUUTXIMPORTTABLE@@0AEAU?$_Wrap_alloc@V?$allocator@UUTXIMPORTTABLE@@@std@@@0@U_Nonscalar_ptr_iterator_tag@0@@Z 000000018008c490 f i il_utx.obj
 0001:0008b510       ??$_Destroy_range@U?$_Wrap_alloc@V?$allocator@VUTXPALETTE@@@std@@@std@@@std@@YAXPEAVUTXPALETTE@@0AEAU?$_Wrap_alloc@V?$allocator@VUTXPALETTE@@@std@@@0@@Z 000000018008c510 f i il_utx.obj
 0001:0008b590       ??$_Destroy_range@U?$_Wrap_alloc@V?$allocator@VUTXPALETTE@@@std@@@std@@@std@@YAXPEAVUTXPALETTE@@0AEAU?$_Wrap_alloc@V?$allocator@VUTXPALETTE@@@std@@@0@U_Nonscalar_ptr_iterator_tag@0@@Z 000000018008c590 f i il_utx.obj
 0001:0008b610       ??$_Iter_cat@PEAUUTXENTRYNAME@@@std@@YA?AUrandom_access_iterator_tag@0@AEBQEAUUTXENTRYNAME@@@Z 000000018008c610 f i il_utx.obj
 0001:0008b680       ??$_Iter_cat@PEAUUTXEXPORTTABLE@@@std@@YA?AUrandom_access_iterator_tag@0@AEBQEAUUTXEXPORTTABLE@@@Z 000000018008c680 f i il_utx.obj
 0001:0008b6f0       ??$_Iter_cat@PEAUUTXIMPORTTABLE@@@std@@YA?AUrandom_access_iterator_tag@0@AEBQEAUUTXIMPORTTABLE@@@Z 000000018008c6f0 f i il_utx.obj
 0001:0008b760       ??$_Iter_cat@PEAVUTXPALETTE@@@std@@YA?AUrandom_access_iterator_tag@0@AEBQEAVUTXPALETTE@@@Z 000000018008c760 f i il_utx.obj
 0001:0008b7d0       ??$_Ptr_cat@UUTXENTRYNAME@@U1@@std@@YA?AU_Nonscalar_ptr_iterator_tag@0@PEAUUTXENTRYNAME@@0@Z 000000018008c7d0 f i il_utx.obj
 0001:0008b830       ??$_Ptr_cat@UUTXEXPORTTABLE@@U1@@std@@YA?AU_Nonscalar_ptr_iterator_tag@0@PEAUUTXEXPORTTABLE@@0@Z 000000018008c830 f i il_utx.obj
 0001:0008b890       ??$_Ptr_cat@UUTXIMPORTTABLE@@U1@@std@@YA?AU_Nonscalar_ptr_iterator_tag@0@PEAUUTXIMPORTTABLE@@0@Z 000000018008c890 f i il_utx.obj
 0001:0008b8f0       ??$_Ptr_cat@VUTXPALETTE@@V1@@std@@YA?AU_Nonscalar_ptr_iterator_tag@0@PEAVUTXPALETTE@@0@Z 000000018008c8f0 f i il_utx.obj
 0001:0008b950       ??$_Rechecked@PEAUUTXENTRYNAME@@PEAU1@@std@@YAAEAPEAUUTXENTRYNAME@@AEAPEAU1@PEAU1@@Z 000000018008c950 f i il_utx.obj
 0001:0008b980       ??$_Rechecked@PEAUUTXEXPORTTABLE@@PEAU1@@std@@YAAEAPEAUUTXEXPORTTABLE@@AEAPEAU1@PEAU1@@Z 000000018008c980 f i il_utx.obj
 0001:0008b9b0       ??$_Rechecked@PEAUUTXIMPORTTABLE@@PEAU1@@std@@YAAEAPEAUUTXIMPORTTABLE@@AEAPEAU1@PEAU1@@Z 000000018008c9b0 f i il_utx.obj
 0001:0008b9e0       ??$_Rechecked@PEAVUTXPALETTE@@PEAV1@@std@@YAAEAPEAVUTXPALETTE@@AEAPEAV1@PEAV1@@Z 000000018008c9e0 f i il_utx.obj
 0001:0008ba10       ??$_Umove@PEAUUTXENTRYNAME@@@?$vector@UUTXENTRYNAME@@V?$allocator@UUTXENTRYNAME@@@std@@@std@@IEAAPEAUUTXENTRYNAME@@PEAU2@00@Z 000000018008ca10 f i il_utx.obj
 0001:0008baa0       ??$_Umove@PEAUUTXEXPORTTABLE@@@?$vector@UUTXEXPORTTABLE@@V?$allocator@UUTXEXPORTTABLE@@@std@@@std@@IEAAPEAUUTXEXPORTTABLE@@PEAU2@00@Z 000000018008caa0 f i il_utx.obj
 0001:0008bb30       ??$_Umove@PEAUUTXIMPORTTABLE@@@?$vector@UUTXIMPORTTABLE@@V?$allocator@UUTXIMPORTTABLE@@@std@@@std@@IEAAPEAUUTXIMPORTTABLE@@PEAU2@00@Z 000000018008cb30 f i il_utx.obj
 0001:0008bbc0       ??$_Umove@PEAVUTXPALETTE@@@?$vector@VUTXPALETTE@@V?$allocator@VUTXPALETTE@@@std@@@std@@IEAAPEAVUTXPALETTE@@PEAV2@00@Z 000000018008cbc0 f i il_utx.obj
 0001:0008bc50       ??$_Unchecked@PEAUUTXENTRYNAME@@@std@@YAPEAUUTXENTRYNAME@@PEAU1@@Z 000000018008cc50 f i il_utx.obj
 0001:0008bc60       ??$_Unchecked@PEAUUTXEXPORTTABLE@@@std@@YAPEAUUTXEXPORTTABLE@@PEAU1@@Z 000000018008cc60 f i il_utx.obj
 0001:0008bc70       ??$_Unchecked@PEAUUTXIMPORTTABLE@@@std@@YAPEAUUTXIMPORTTABLE@@PEAU1@@Z 000000018008cc70 f i il_utx.obj
 0001:0008bc80       ??$_Unchecked@PEAVUTXPALETTE@@@std@@YAPEAVUTXPALETTE@@PEAV1@@Z 000000018008cc80 f i il_utx.obj
 0001:0008bc90       ??$_Uninit_def_fill_n@PEAUUTXENTRYNAME@@_KV?$allocator@UUTXENTRYNAME@@@std@@U1@@std@@YAXPEAUUTXENTRYNAME@@_KAEAU?$_Wrap_alloc@V?$allocator@UUTXENTRYNAME@@@std@@@0@0U_Nonscalar_ptr_iterator_tag@0@@Z 000000018008cc90 f i il_utx.obj
 0001:0008bd30       ??$_Uninit_def_fill_n@PEAUUTXEXPORTTABLE@@_KV?$allocator@UUTXEXPORTTABLE@@@std@@U1@@std@@YAXPEAUUTXEXPORTTABLE@@_KAEAU?$_Wrap_alloc@V?$allocator@UUTXEXPORTTABLE@@@std@@@0@0U_Nonscalar_ptr_iterator_tag@0@@Z 000000018008cd30 f i il_utx.obj
 0001:0008bdd0       ??$_Uninit_def_fill_n@PEAUUTXIMPORTTABLE@@_KV?$allocator@UUTXIMPORTTABLE@@@std@@U1@@std@@YAXPEAUUTXIMPORTTABLE@@_KAEAU?$_Wrap_alloc@V?$allocator@UUTXIMPORTTABLE@@@std@@@0@0U_Nonscalar_ptr_iterator_tag@0@@Z 000000018008cdd0 f i il_utx.obj
 0001:0008be70       ??$_Uninit_def_fill_n@PEAVUTXPALETTE@@_KV?$allocator@VUTXPALETTE@@@std@@V1@@std@@YAXPEAVUTXPALETTE@@_KAEAU?$_Wrap_alloc@V?$allocator@VUTXPALETTE@@@std@@@0@0U_Nonscalar_ptr_iterator_tag@0@@Z 000000018008ce70 f i il_utx.obj
 0001:0008bf10       ??$_Uninit_move@PEAUUTXENTRYNAME@@PEAU1@U?$_Wrap_alloc@V?$allocator@UUTXENTRYNAME@@@std@@@std@@@std@@YAPEAUUTXENTRYNAME@@PEAU1@00AEAU?$_Wrap_alloc@V?$allocator@UUTXENTRYNAME@@@std@@@0@@Z 000000018008cf10 f i il_utx.obj
 0001:0008bfb0       ??$_Uninit_move@PEAUUTXENTRYNAME@@PEAU1@V?$allocator@UUTXENTRYNAME@@@std@@U1@@std@@YAPEAUUTXENTRYNAME@@PEAU1@00AEAU?$_Wrap_alloc@V?$allocator@UUTXENTRYNAME@@@std@@@0@0U_Nonscalar_ptr_iterator_tag@0@@Z 000000018008cfb0 f i il_utx.obj
 0001:0008c0a0       ??$_Uninit_move@PEAUUTXEXPORTTABLE@@PEAU1@U?$_Wrap_alloc@V?$allocator@UUTXEXPORTTABLE@@@std@@@std@@@std@@YAPEAUUTXEXPORTTABLE@@PEAU1@00AEAU?$_Wrap_alloc@V?$allocator@UUTXEXPORTTABLE@@@std@@@0@@Z 000000018008d0a0 f i il_utx.obj
 0001:0008c140       ??$_Uninit_move@PEAUUTXEXPORTTABLE@@PEAU1@V?$allocator@UUTXEXPORTTABLE@@@std@@U1@@std@@YAPEAUUTXEXPORTTABLE@@PEAU1@00AEAU?$_Wrap_alloc@V?$allocator@UUTXEXPORTTABLE@@@std@@@0@0U_Nonscalar_ptr_iterator_tag@0@@Z 000000018008d140 f i il_utx.obj
 0001:0008c230       ??$_Uninit_move@PEAUUTXIMPORTTABLE@@PEAU1@U?$_Wrap_alloc@V?$allocator@UUTXIMPORTTABLE@@@std@@@std@@@std@@YAPEAUUTXIMPORTTABLE@@PEAU1@00AEAU?$_Wrap_alloc@V?$allocator@UUTXIMPORTTABLE@@@std@@@0@@Z 000000018008d230 f i il_utx.obj
 0001:0008c2d0       ??$_Uninit_move@PEAUUTXIMPORTTABLE@@PEAU1@V?$allocator@UUTXIMPORTTABLE@@@std@@U1@@std@@YAPEAUUTXIMPORTTABLE@@PEAU1@00AEAU?$_Wrap_alloc@V?$allocator@UUTXIMPORTTABLE@@@std@@@0@0U_Nonscalar_ptr_iterator_tag@0@@Z 000000018008d2d0 f i il_utx.obj
 0001:0008c3c0       ??$_Uninit_move@PEAVUTXPALETTE@@PEAV1@U?$_Wrap_alloc@V?$allocator@VUTXPALETTE@@@std@@@std@@@std@@YAPEAVUTXPALETTE@@PEAV1@00AEAU?$_Wrap_alloc@V?$allocator@VUTXPALETTE@@@std@@@0@@Z 000000018008d3c0 f i il_utx.obj
 0001:0008c460       ??$_Uninit_move@PEAVUTXPALETTE@@PEAV1@V?$allocator@VUTXPALETTE@@@std@@V1@@std@@YAPEAVUTXPALETTE@@PEAV1@00AEAU?$_Wrap_alloc@V?$allocator@VUTXPALETTE@@@std@@@0@0U_Nonscalar_ptr_iterator_tag@0@@Z 000000018008d460 f i il_utx.obj
 0001:0008c550       ??$_Uninitialized_default_fill_n@PEAUUTXENTRYNAME@@_KU?$_Wrap_alloc@V?$allocator@UUTXENTRYNAME@@@std@@@std@@@std@@YAXPEAUUTXENTRYNAME@@_KAEAU?$_Wrap_alloc@V?$allocator@UUTXENTRYNAME@@@std@@@0@@Z 000000018008d550 f i il_utx.obj
 0001:0008c5e0       ??$_Uninitialized_default_fill_n@PEAUUTXEXPORTTABLE@@_KU?$_Wrap_alloc@V?$allocator@UUTXEXPORTTABLE@@@std@@@std@@@std@@YAXPEAUUTXEXPORTTABLE@@_KAEAU?$_Wrap_alloc@V?$allocator@UUTXEXPORTTABLE@@@std@@@0@@Z 000000018008d5e0 f i il_utx.obj
 0001:0008c670       ??$_Uninitialized_default_fill_n@PEAUUTXIMPORTTABLE@@_KU?$_Wrap_alloc@V?$allocator@UUTXIMPORTTABLE@@@std@@@std@@@std@@YAXPEAUUTXIMPORTTABLE@@_KAEAU?$_Wrap_alloc@V?$allocator@UUTXIMPORTTABLE@@@std@@@0@@Z 000000018008d670 f i il_utx.obj
 0001:0008c700       ??$_Uninitialized_default_fill_n@PEAVUTXPALETTE@@_KU?$_Wrap_alloc@V?$allocator@VUTXPALETTE@@@std@@@std@@@std@@YAXPEAVUTXPALETTE@@_KAEAU?$_Wrap_alloc@V?$allocator@VUTXPALETTE@@@std@@@0@@Z 000000018008d700 f i il_utx.obj
 0001:0008c790       ??$_Uninitialized_move@PEAUUTXENTRYNAME@@PEAU1@U?$_Wrap_alloc@V?$allocator@UUTXENTRYNAME@@@std@@@std@@@std@@YAPEAUUTXENTRYNAME@@PEAU1@00AEAU?$_Wrap_alloc@V?$allocator@UUTXENTRYNAME@@@std@@@0@@Z 000000018008d790 f i il_utx.obj
 0001:0008c840       ??$_Uninitialized_move@PEAUUTXEXPORTTABLE@@PEAU1@U?$_Wrap_alloc@V?$allocator@UUTXEXPORTTABLE@@@std@@@std@@@std@@YAPEAUUTXEXPORTTABLE@@PEAU1@00AEAU?$_Wrap_alloc@V?$allocator@UUTXEXPORTTABLE@@@std@@@0@@Z 000000018008d840 f i il_utx.obj
 0001:0008c8f0       ??$_Uninitialized_move@PEAUUTXIMPORTTABLE@@PEAU1@U?$_Wrap_alloc@V?$allocator@UUTXIMPORTTABLE@@@std@@@std@@@std@@YAPEAUUTXIMPORTTABLE@@PEAU1@00AEAU?$_Wrap_alloc@V?$allocator@UUTXIMPORTTABLE@@@std@@@0@@Z 000000018008d8f0 f i il_utx.obj
 0001:0008c9a0       ??$_Uninitialized_move@PEAVUTXPALETTE@@PEAV1@U?$_Wrap_alloc@V?$allocator@VUTXPALETTE@@@std@@@std@@@std@@YAPEAVUTXPALETTE@@PEAV1@00AEAU?$_Wrap_alloc@V?$allocator@VUTXPALETTE@@@std@@@0@@Z 000000018008d9a0 f i il_utx.obj
 0001:0008ca50       ??$_Val_type@PEAUUTXENTRYNAME@@@std@@YAPEAUUTXENTRYNAME@@PEAU1@@Z 000000018008da50 f i il_utx.obj
 0001:0008ca60       ??$_Val_type@PEAUUTXEXPORTTABLE@@@std@@YAPEAUUTXEXPORTTABLE@@PEAU1@@Z 000000018008da60 f i il_utx.obj
 0001:0008ca70       ??$_Val_type@PEAUUTXIMPORTTABLE@@@std@@YAPEAUUTXIMPORTTABLE@@PEAU1@@Z 000000018008da70 f i il_utx.obj
 0001:0008ca80       ??$_Val_type@PEAVUTXPALETTE@@@std@@YAPEAVUTXPALETTE@@PEAV1@@Z 000000018008da80 f i il_utx.obj
 0001:0008ca90       ??$assign@V?$_String_iterator@V?$_String_val@U?$_Simple_types@D@std@@@std@@@std@@@?$basic_string@DU?$char_traits@D@std@@V?$allocator@D@2@@std@@QEAAAEAV01@V?$_String_iterator@V?$_String_val@U?$_Simple_types@D@std@@@std@@@1@0@Z 000000018008da90 f i il_utx.obj
 0001:0008ccf0       ??$construct@UUTXENTRYNAME@@$$$V@?$allocator_traits@V?$allocator@UUTXENTRYNAME@@@std@@@std@@SAXAEAV?$allocator@UUTXENTRYNAME@@@1@PEAUUTXENTRYNAME@@@Z 000000018008dcf0 f i il_utx.obj
 0001:0008cd40       ??$construct@UUTXENTRYNAME@@U1@@?$_Wrap_alloc@V?$allocator@UUTXENTRYNAME@@@std@@@std@@QEAAXPEAUUTXENTRYNAME@@$$QEAU2@@Z 000000018008dd40 f i il_utx.obj
 0001:0008cda0       ??$construct@UUTXENTRYNAME@@U1@@?$allocator@UUTXENTRYNAME@@@std@@QEAAXPEAUUTXENTRYNAME@@$$QEAU2@@Z 000000018008dda0 f i il_utx.obj
 0001:0008ce50       ??$construct@UUTXENTRYNAME@@U1@@?$allocator_traits@V?$allocator@UUTXENTRYNAME@@@std@@@std@@SAXAEAV?$allocator@UUTXENTRYNAME@@@1@PEAUUTXENTRYNAME@@$$QEAU3@@Z 000000018008de50 f i il_utx.obj
 0001:0008ceb0       ??$construct@UUTXEXPORTTABLE@@$$$V@?$allocator_traits@V?$allocator@UUTXEXPORTTABLE@@@std@@@std@@SAXAEAV?$allocator@UUTXEXPORTTABLE@@@1@PEAUUTXEXPORTTABLE@@@Z 000000018008deb0 f i il_utx.obj
 0001:0008cf00       ??$construct@UUTXEXPORTTABLE@@U1@@?$_Wrap_alloc@V?$allocator@UUTXEXPORTTABLE@@@std@@@std@@QEAAXPEAUUTXEXPORTTABLE@@$$QEAU2@@Z 000000018008df00 f i il_utx.obj
 0001:0008cf60       ??$construct@UUTXEXPORTTABLE@@U1@@?$allocator@UUTXEXPORTTABLE@@@std@@QEAAXPEAUUTXEXPORTTABLE@@$$QEAU2@@Z 000000018008df60 f i il_utx.obj
 0001:0008d010       ??$construct@UUTXEXPORTTABLE@@U1@@?$allocator_traits@V?$allocator@UUTXEXPORTTABLE@@@std@@@std@@SAXAEAV?$allocator@UUTXEXPORTTABLE@@@1@PEAUUTXEXPORTTABLE@@$$QEAU3@@Z 000000018008e010 f i il_utx.obj
 0001:0008d070       ??$construct@UUTXIMPORTTABLE@@$$$V@?$allocator_traits@V?$allocator@UUTXIMPORTTABLE@@@std@@@std@@SAXAEAV?$allocator@UUTXIMPORTTABLE@@@1@PEAUUTXIMPORTTABLE@@@Z 000000018008e070 f i il_utx.obj
 0001:0008d0c0       ??$construct@UUTXIMPORTTABLE@@U1@@?$_Wrap_alloc@V?$allocator@UUTXIMPORTTABLE@@@std@@@std@@QEAAXPEAUUTXIMPORTTABLE@@$$QEAU2@@Z 000000018008e0c0 f i il_utx.obj
 0001:0008d120       ??$construct@UUTXIMPORTTABLE@@U1@@?$allocator@UUTXIMPORTTABLE@@@std@@QEAAXPEAUUTXIMPORTTABLE@@$$QEAU2@@Z 000000018008e120 f i il_utx.obj
 0001:0008d1d0       ??$construct@UUTXIMPORTTABLE@@U1@@?$allocator_traits@V?$allocator@UUTXIMPORTTABLE@@@std@@@std@@SAXAEAV?$allocator@UUTXIMPORTTABLE@@@1@PEAUUTXIMPORTTABLE@@$$QEAU3@@Z 000000018008e1d0 f i il_utx.obj
 0001:0008d230       ??$construct@U_Container_proxy@std@@U12@@?$_Wrap_alloc@V?$allocator@U_Container_proxy@std@@@std@@@std@@QEAAXPEAU_Container_proxy@1@$$QEAU21@@Z 000000018008e230 f i il_utx.obj
 0001:0008d290       ??$construct@U_Container_proxy@std@@U12@@?$allocator_traits@V?$allocator@U_Container_proxy@std@@@std@@@std@@SAXAEAV?$allocator@U_Container_proxy@std@@@1@PEAU_Container_proxy@1@$$QEAU31@@Z 000000018008e290 f i il_utx.obj
 0001:0008d2f0       ??$construct@VUTXPALETTE@@$$$V@?$allocator_traits@V?$allocator@VUTXPALETTE@@@std@@@std@@SAXAEAV?$allocator@VUTXPALETTE@@@1@PEAVUTXPALETTE@@@Z 000000018008e2f0 f i il_utx.obj
 0001:0008d340       ??$construct@VUTXPALETTE@@V1@@?$_Wrap_alloc@V?$allocator@VUTXPALETTE@@@std@@@std@@QEAAXPEAVUTXPALETTE@@$$QEAV2@@Z 000000018008e340 f i il_utx.obj
 0001:0008d3a0       ??$construct@VUTXPALETTE@@V1@@?$allocator@VUTXPALETTE@@@std@@QEAAXPEAVUTXPALETTE@@$$QEAV2@@Z 000000018008e3a0 f i il_utx.obj
 0001:0008d450       ??$construct@VUTXPALETTE@@V1@@?$allocator_traits@V?$allocator@VUTXPALETTE@@@std@@@std@@SAXAEAV?$allocator@VUTXPALETTE@@@1@PEAVUTXPALETTE@@$$QEAV3@@Z 000000018008e450 f i il_utx.obj
 0001:0008d4b0       ??$destroy@UUTXENTRYNAME@@@?$_Wrap_alloc@V?$allocator@UUTXENTRYNAME@@@std@@@std@@QEAAXPEAUUTXENTRYNAME@@@Z 000000018008e4b0 f i il_utx.obj
 0001:0008d500       ??$destroy@UUTXENTRYNAME@@@?$allocator@UUTXENTRYNAME@@@std@@QEAAXPEAUUTXENTRYNAME@@@Z 000000018008e500 f i il_utx.obj
 0001:0008d550       ??$destroy@UUTXENTRYNAME@@@?$allocator_traits@V?$allocator@UUTXENTRYNAME@@@std@@@std@@SAXAEAV?$allocator@UUTXENTRYNAME@@@1@PEAUUTXENTRYNAME@@@Z 000000018008e550 f i il_utx.obj
 0001:0008d5a0       ??$destroy@UUTXEXPORTTABLE@@@?$_Wrap_alloc@V?$allocator@UUTXEXPORTTABLE@@@std@@@std@@QEAAXPEAUUTXEXPORTTABLE@@@Z 000000018008e5a0 f i il_utx.obj
 0001:0008d5f0       ??$destroy@UUTXEXPORTTABLE@@@?$allocator@UUTXEXPORTTABLE@@@std@@QEAAXPEAUUTXEXPORTTABLE@@@Z 000000018008e5f0 f i il_utx.obj
 0001:0008d600       ??$destroy@UUTXEXPORTTABLE@@@?$allocator_traits@V?$allocator@UUTXEXPORTTABLE@@@std@@@std@@SAXAEAV?$allocator@UUTXEXPORTTABLE@@@1@PEAUUTXEXPORTTABLE@@@Z 000000018008e600 f i il_utx.obj
 0001:0008d650       ??$destroy@UUTXIMPORTTABLE@@@?$_Wrap_alloc@V?$allocator@UUTXIMPORTTABLE@@@std@@@std@@QEAAXPEAUUTXIMPORTTABLE@@@Z 000000018008e650 f i il_utx.obj
 0001:0008d6a0       ??$destroy@UUTXIMPORTTABLE@@@?$allocator@UUTXIMPORTTABLE@@@std@@QEAAXPEAUUTXIMPORTTABLE@@@Z 000000018008e6a0 f i il_utx.obj
 0001:0008d6b0       ??$destroy@UUTXIMPORTTABLE@@@?$allocator_traits@V?$allocator@UUTXIMPORTTABLE@@@std@@@std@@SAXAEAV?$allocator@UUTXIMPORTTABLE@@@1@PEAUUTXIMPORTTABLE@@@Z 000000018008e6b0 f i il_utx.obj
 0001:0008d700       ??$destroy@U_Container_proxy@std@@@?$_Wrap_alloc@V?$allocator@U_Container_proxy@std@@@std@@@std@@QEAAXPEAU_Container_proxy@1@@Z 000000018008e700 f i il_utx.obj
 0001:0008d750       ??$destroy@U_Container_proxy@std@@@?$allocator_traits@V?$allocator@U_Container_proxy@std@@@std@@@std@@SAXAEAV?$allocator@U_Container_proxy@std@@@1@PEAU_Container_proxy@1@@Z 000000018008e750 f i il_utx.obj
 0001:0008d7a0       ??$destroy@VUTXPALETTE@@@?$_Wrap_alloc@V?$allocator@VUTXPALETTE@@@std@@@std@@QEAAXPEAVUTXPALETTE@@@Z 000000018008e7a0 f i il_utx.obj
 0001:0008d7f0       ??$destroy@VUTXPALETTE@@@?$allocator@VUTXPALETTE@@@std@@QEAAXPEAVUTXPALETTE@@@Z 000000018008e7f0 f i il_utx.obj
 0001:0008d840       ??$destroy@VUTXPALETTE@@@?$allocator_traits@V?$allocator@VUTXPALETTE@@@std@@@std@@SAXAEAV?$allocator@VUTXPALETTE@@@1@PEAVUTXPALETTE@@@Z 000000018008e840 f i il_utx.obj
 0001:0008d890       ??$forward@UUTXENTRYNAME@@@std@@YA$$QEAUUTXENTRYNAME@@AEAU1@@Z 000000018008e890 f i il_utx.obj
 0001:0008d8a0       ??$forward@UUTXEXPORTTABLE@@@std@@YA$$QEAUUTXEXPORTTABLE@@AEAU1@@Z 000000018008e8a0 f i il_utx.obj
 0001:0008d8b0       ??$forward@UUTXIMPORTTABLE@@@std@@YA$$QEAUUTXIMPORTTABLE@@AEAU1@@Z 000000018008e8b0 f i il_utx.obj
 0001:0008d8c0       ??$forward@V?$basic_string@DU?$char_traits@D@std@@V?$allocator@D@2@@std@@@std@@YA$$QEAV?$basic_string@DU?$char_traits@D@std@@V?$allocator@D@2@@0@AEAV10@@Z 000000018008e8c0 f i il_utx.obj
 0001:0008d8d0       ??$forward@VUTXPALETTE@@@std@@YA$$QEAVUTXPALETTE@@AEAV1@@Z 000000018008e8d0 f i il_utx.obj
 0001:0008d8e0       ??0?$_Iterator012@Urandom_access_iterator_tag@std@@D_JPEBDAEBDU_Iterator_base12@2@@std@@QEAA@AEBU01@@Z 000000018008e8e0 f i il_utx.obj
 0001:0008d930       ??0?$_Iterator012@Urandom_access_iterator_tag@std@@D_JPEBDAEBDU_Iterator_base12@2@@std@@QEAA@XZ 000000018008e930 f i il_utx.obj
 0001:0008d970       ??0?$_String_const_iterator@V?$_String_val@U?$_Simple_types@D@std@@@std@@@std@@QEAA@AEBV01@@Z 000000018008e970 f i il_utx.obj
 0001:0008d9e0       ??0?$_String_const_iterator@V?$_String_val@U?$_Simple_types@D@std@@@std@@@std@@QEAA@PEBDPEBU_Container_base12@1@@Z 000000018008e9e0 f i il_utx.obj
 0001:0008da60       ??0?$_String_iterator@V?$_String_val@U?$_Simple_types@D@std@@@std@@@std@@QEAA@AEBV01@@Z 000000018008ea60 f i il_utx.obj
 0001:0008dab0       ??0?$_String_iterator@V?$_String_val@U?$_Simple_types@D@std@@@std@@@std@@QEAA@PEADPEBU_Container_base12@1@@Z 000000018008eab0 f i il_utx.obj
 0001:0008db10       ??0?$_Vector_alloc@$0A@U?$_Vec_base_types@UUTXENTRYNAME@@V?$allocator@UUTXENTRYNAME@@@std@@@std@@@std@@QEAA@AEBV?$allocator@UUTXENTRYNAME@@@1@@Z 000000018008eb10 f i il_utx.obj
 0001:0008db70       ??0?$_Vector_alloc@$0A@U?$_Vec_base_types@UUTXEXPORTTABLE@@V?$allocator@UUTXEXPORTTABLE@@@std@@@std@@@std@@QEAA@AEBV?$allocator@UUTXEXPORTTABLE@@@1@@Z 000000018008eb70 f i il_utx.obj
 0001:0008dbd0       ??0?$_Vector_alloc@$0A@U?$_Vec_base_types@UUTXIMPORTTABLE@@V?$allocator@UUTXIMPORTTABLE@@@std@@@std@@@std@@QEAA@AEBV?$allocator@UUTXIMPORTTABLE@@@1@@Z 000000018008ebd0 f i il_utx.obj
 0001:0008dc30       ??0?$_Vector_alloc@$0A@U?$_Vec_base_types@VUTXPALETTE@@V?$allocator@VUTXPALETTE@@@std@@@std@@@std@@QEAA@AEBV?$allocator@VUTXPALETTE@@@1@@Z 000000018008ec30 f i il_utx.obj
 0001:0008dc90       ??0?$_Vector_val@U?$_Simple_types@UUTXENTRYNAME@@@std@@@std@@QEAA@XZ 000000018008ec90 f i il_utx.obj
 0001:0008dd10       ??0?$_Vector_val@U?$_Simple_types@UUTXEXPORTTABLE@@@std@@@std@@QEAA@XZ 000000018008ed10 f i il_utx.obj
 0001:0008dd90       ??0?$_Vector_val@U?$_Simple_types@UUTXIMPORTTABLE@@@std@@@std@@QEAA@XZ 000000018008ed90 f i il_utx.obj
 0001:0008de10       ??0?$_Vector_val@U?$_Simple_types@VUTXPALETTE@@@std@@@std@@QEAA@XZ 000000018008ee10 f i il_utx.obj
 0001:0008de90       ??0?$_Wrap_alloc@V?$allocator@D@std@@@std@@QEAA@AEBV?$allocator@D@1@@Z 000000018008ee90 f i il_utx.obj
 0001:0008dee0       ??0?$_Wrap_alloc@V?$allocator@UUTXENTRYNAME@@@std@@@std@@QEAA@XZ 000000018008eee0 f i il_utx.obj
 0001:0008df20       ??0?$_Wrap_alloc@V?$allocator@UUTXEXPORTTABLE@@@std@@@std@@QEAA@XZ 000000018008ef20 f i il_utx.obj
 0001:0008df60       ??0?$_Wrap_alloc@V?$allocator@UUTXIMPORTTABLE@@@std@@@std@@QEAA@XZ 000000018008ef60 f i il_utx.obj
 0001:0008dfa0       ??0?$_Wrap_alloc@V?$allocator@U_Container_proxy@std@@@std@@@std@@QEAA@XZ 000000018008efa0 f i il_utx.obj
 0001:0008dfe0       ??0?$_Wrap_alloc@V?$allocator@VUTXPALETTE@@@std@@@std@@QEAA@XZ 000000018008efe0 f i il_utx.obj
 0001:0008e020       ??0?$allocator@D@std@@QEAA@AEBV01@@Z 000000018008f020 f i il_utx.obj
 0001:0008e040       ??0?$allocator@UUTXENTRYNAME@@@std@@QEAA@XZ 000000018008f040 f i il_utx.obj
 0001:0008e050       ??0?$allocator@UUTXEXPORTTABLE@@@std@@QEAA@XZ 000000018008f050 f i il_utx.obj
 0001:0008e060       ??0?$allocator@UUTXIMPORTTABLE@@@std@@QEAA@XZ 000000018008f060 f i il_utx.obj
 0001:0008e070       ??0?$allocator@VUTXPALETTE@@@std@@QEAA@XZ 000000018008f070 f i il_utx.obj
 0001:0008e080       ??0?$basic_string@DU?$char_traits@D@std@@V?$allocator@D@2@@std@@QEAA@AEBV01@@Z 000000018008f080 f i il_utx.obj
 0001:0008e130       ??0?$basic_string@DU?$char_traits@D@std@@V?$allocator@D@2@@std@@QEAA@XZ 000000018008f130 f i il_utx.obj
 0001:0008e1a0       ??0?$vector@UUTXENTRYNAME@@V?$allocator@UUTXENTRYNAME@@@std@@@std@@QEAA@XZ 000000018008f1a0 f i il_utx.obj
 0001:0008e1f0       ??0?$vector@UUTXEXPORTTABLE@@V?$allocator@UUTXEXPORTTABLE@@@std@@@std@@QEAA@XZ 000000018008f1f0 f i il_utx.obj
 0001:0008e240       ??0?$vector@UUTXIMPORTTABLE@@V?$allocator@UUTXIMPORTTABLE@@@std@@@std@@QEAA@XZ 000000018008f240 f i il_utx.obj
 0001:0008e290       ??0?$vector@VUTXPALETTE@@V?$allocator@VUTXPALETTE@@@std@@@std@@QEAA@XZ 000000018008f290 f i il_utx.obj
 0001:0008e2e0       ??0UTXENTRYNAME@@QEAA@AEBU0@@Z 000000018008f2e0 f i il_utx.obj
 0001:0008e350       ??0UTXENTRYNAME@@QEAA@XZ   000000018008f350 f i il_utx.obj
 0001:0008e3a0       ??0UTXPALETTE@@QEAA@XZ     000000018008f3a0 f i il_utx.obj
 0001:0008e3c0       ??0_Iterator_base12@std@@QEAA@AEBU01@@Z 000000018008f3c0 f i il_utx.obj
 0001:0008e430       ??0_Iterator_base12@std@@QEAA@XZ 000000018008f430 f i il_utx.obj
 0001:0008e460       ??1?$_Iterator012@Urandom_access_iterator_tag@std@@D_JPEBDAEBDU_Iterator_base12@2@@std@@QEAA@XZ 000000018008f460 f i il_utx.obj
 0001:0008e4a0       ??1?$_String_const_iterator@V?$_String_val@U?$_Simple_types@D@std@@@std@@@std@@QEAA@XZ 000000018008f4a0 f i il_utx.obj
 0001:0008e4e0       ??1?$_String_iterator@V?$_String_val@U?$_Simple_types@D@std@@@std@@@std@@QEAA@XZ 000000018008f4e0 f i il_utx.obj
 0001:0008e520       ??1?$_Vector_alloc@$0A@U?$_Vec_base_types@UUTXENTRYNAME@@V?$allocator@UUTXENTRYNAME@@@std@@@std@@@std@@QEAA@XZ 000000018008f520 f i il_utx.obj
 0001:0008e570       ??1?$_Vector_alloc@$0A@U?$_Vec_base_types@UUTXEXPORTTABLE@@V?$allocator@UUTXEXPORTTABLE@@@std@@@std@@@std@@QEAA@XZ 000000018008f570 f i il_utx.obj
 0001:0008e5c0       ??1?$_Vector_alloc@$0A@U?$_Vec_base_types@UUTXIMPORTTABLE@@V?$allocator@UUTXIMPORTTABLE@@@std@@@std@@@std@@QEAA@XZ 000000018008f5c0 f i il_utx.obj
 0001:0008e610       ??1?$_Vector_alloc@$0A@U?$_Vec_base_types@VUTXPALETTE@@V?$allocator@VUTXPALETTE@@@std@@@std@@@std@@QEAA@XZ 000000018008f610 f i il_utx.obj
 0001:0008e660       ??1?$_Vector_val@U?$_Simple_types@UUTXENTRYNAME@@@std@@@std@@QEAA@XZ 000000018008f660 f i il_utx.obj
 0001:0008e6a0       ??1?$_Vector_val@U?$_Simple_types@UUTXEXPORTTABLE@@@std@@@std@@QEAA@XZ 000000018008f6a0 f i il_utx.obj
 0001:0008e6e0       ??1?$_Vector_val@U?$_Simple_types@UUTXIMPORTTABLE@@@std@@@std@@QEAA@XZ 000000018008f6e0 f i il_utx.obj
 0001:0008e720       ??1?$_Vector_val@U?$_Simple_types@VUTXPALETTE@@@std@@@std@@QEAA@XZ 000000018008f720 f i il_utx.obj
 0001:0008e760       ??1?$basic_string@DU?$char_traits@D@std@@V?$allocator@D@2@@std@@QEAA@XZ 000000018008f760 f i il_utx.obj
 0001:0008e7b0       ??1?$vector@UUTXENTRYNAME@@V?$allocator@UUTXENTRYNAME@@@std@@@std@@QEAA@XZ 000000018008f7b0 f i il_utx.obj
 0001:0008e800       ??1?$vector@UUTXEXPORTTABLE@@V?$allocator@UUTXEXPORTTABLE@@@std@@@std@@QEAA@XZ 000000018008f800 f i il_utx.obj
 0001:0008e850       ??1?$vector@UUTXIMPORTTABLE@@V?$allocator@UUTXIMPORTTABLE@@@std@@@std@@QEAA@XZ 000000018008f850 f i il_utx.obj
 0001:0008e8a0       ??1?$vector@VUTXPALETTE@@V?$allocator@VUTXPALETTE@@@std@@@std@@QEAA@XZ 000000018008f8a0 f i il_utx.obj
 0001:0008e8f0       ??1UTXENTRYNAME@@QEAA@XZ   000000018008f8f0 f i il_utx.obj
 0001:0008e930       ??1UTXPALETTE@@QEAA@XZ     000000018008f930 f i il_utx.obj
 0001:0008e980       ??1_Iterator_base12@std@@QEAA@XZ 000000018008f980 f i il_utx.obj
 0001:0008e9f0       ??4?$basic_string@DU?$char_traits@D@std@@V?$allocator@D@2@@std@@QEAAAEAV01@$$QEAV01@@Z 000000018008f9f0 f i il_utx.obj
 0001:0008eb80       ??4_Iterator_base12@std@@QEAAAEAU01@AEBU01@@Z 000000018008fb80 f i il_utx.obj
 0001:0008ec60       ??8?$_String_const_iterator@V?$_String_val@U?$_Simple_types@D@std@@@std@@@std@@QEBA_NAEBV01@@Z 000000018008fc60 f i il_utx.obj
 0001:0008ece0       ??A?$vector@UUTXENTRYNAME@@V?$allocator@UUTXENTRYNAME@@@std@@@std@@QEAAAEAUUTXENTRYNAME@@_K@Z 000000018008fce0 f i il_utx.obj
 0001:0008ee00       ??A?$vector@UUTXEXPORTTABLE@@V?$allocator@UUTXEXPORTTABLE@@@std@@@std@@QEAAAEAUUTXEXPORTTABLE@@_K@Z 000000018008fe00 f i il_utx.obj
 0001:0008ef20       ??A?$vector@UUTXIMPORTTABLE@@V?$allocator@UUTXIMPORTTABLE@@@std@@@std@@QEAAAEAUUTXIMPORTTABLE@@_K@Z 000000018008ff20 f i il_utx.obj
 0001:0008f040       ??A?$vector@VUTXPALETTE@@V?$allocator@VUTXPALETTE@@@std@@@std@@QEAAAEAVUTXPALETTE@@_K@Z 0000000180090040 f i il_utx.obj
 0001:0008f160       ??D?$_String_const_iterator@V?$_String_val@U?$_Simple_types@D@std@@@std@@@std@@QEBAAEBDXZ 0000000180090160 f i il_utx.obj
 0001:0008f2e0       ??D?$_String_iterator@V?$_String_val@U?$_Simple_types@D@std@@@std@@@std@@QEBAAEADXZ 00000001800902e0 f i il_utx.obj
 0001:0008f320       ??G?$_String_const_iterator@V?$_String_val@U?$_Simple_types@D@std@@@std@@@std@@QEBA_JAEBV01@@Z 0000000180090320 f i il_utx.obj
 0001:0008f380       ??G?$_String_iterator@V?$_String_val@U?$_Simple_types@D@std@@@std@@@std@@QEBA_JAEBV?$_String_const_iterator@V?$_String_val@U?$_Simple_types@D@std@@@std@@@1@@Z 0000000180090380 f i il_utx.obj
 0001:0008f410       ??_GUTXENTRYNAME@@QEAAPEAXI@Z 0000000180090410 f i il_utx.obj
 0001:0008f470       ??_GUTXPALETTE@@QEAAPEAXI@Z 0000000180090470 f i il_utx.obj
 0001:0008f4d0       ?GetLittleFloat@@YAMPEAUSIO@@@Z 00000001800904d0 f i il_utx.obj
 0001:0008f550       ?_Adopt@_Iterator_base12@std@@QEAAXPEBU_Container_base12@2@@Z 0000000180090550 f i il_utx.obj
 0001:0008f670       ?_Alloc_proxy@?$_Vector_alloc@$0A@U?$_Vec_base_types@UUTXENTRYNAME@@V?$allocator@UUTXENTRYNAME@@@std@@@std@@@std@@QEAAXXZ 0000000180090670 f i il_utx.obj
 0001:0008f720       ?_Alloc_proxy@?$_Vector_alloc@$0A@U?$_Vec_base_types@UUTXEXPORTTABLE@@V?$allocator@UUTXEXPORTTABLE@@@std@@@std@@@std@@QEAAXXZ 0000000180090720 f i il_utx.obj
 0001:0008f7d0       ?_Alloc_proxy@?$_Vector_alloc@$0A@U?$_Vec_base_types@UUTXIMPORTTABLE@@V?$allocator@UUTXIMPORTTABLE@@@std@@@std@@@std@@QEAAXXZ 00000001800907d0 f i il_utx.obj
 0001:0008f880       ?_Alloc_proxy@?$_Vector_alloc@$0A@U?$_Vec_base_types@VUTXPALETTE@@V?$allocator@VUTXPALETTE@@@std@@@std@@@std@@QEAAXXZ 0000000180090880 f i il_utx.obj
 0001:0008f930       ?_Assign_rv@?$basic_string@DU?$char_traits@D@std@@V?$allocator@D@2@@std@@QEAAX$$QEAV12@@Z 0000000180090930 f i il_utx.obj
 0001:0008fa60       ?_Change_alloc@?$_String_alloc@$0A@U?$_String_base_types@DV?$allocator@D@std@@@std@@@std@@QEAAXAEBU?$_Wrap_alloc@V?$allocator@D@std@@@2@@Z 0000000180090a60 f i il_utx.obj
 0001:0008fa70       ?_Clrcont@_Iterator_base12@std@@QEAAXXZ 0000000180090a70 f i il_utx.obj
 0001:0008fa90       ?_Compat@?$_String_const_iterator@V?$_String_val@U?$_Simple_types@D@std@@@std@@@std@@QEBAXAEBV12@@Z 0000000180090a90 f i il_utx.obj
 0001:0008fbc0       ?_Destroy@?$vector@UUTXENTRYNAME@@V?$allocator@UUTXENTRYNAME@@@std@@@std@@IEAAXPEAUUTXENTRYNAME@@0@Z 0000000180090bc0 f i il_utx.obj
 0001:0008fc40       ?_Destroy@?$vector@UUTXEXPORTTABLE@@V?$allocator@UUTXEXPORTTABLE@@@std@@@std@@IEAAXPEAUUTXEXPORTTABLE@@0@Z 0000000180090c40 f i il_utx.obj
 0001:0008fcc0       ?_Destroy@?$vector@UUTXIMPORTTABLE@@V?$allocator@UUTXIMPORTTABLE@@@std@@@std@@IEAAXPEAUUTXIMPORTTABLE@@0@Z 0000000180090cc0 f i il_utx.obj
 0001:0008fd40       ?_Destroy@?$vector@VUTXPALETTE@@V?$allocator@VUTXPALETTE@@@std@@@std@@IEAAXPEAVUTXPALETTE@@0@Z 0000000180090d40 f i il_utx.obj
 0001:0008fdc0       ?_Free_proxy@?$_Vector_alloc@$0A@U?$_Vec_base_types@UUTXENTRYNAME@@V?$allocator@UUTXENTRYNAME@@@std@@@std@@@std@@QEAAXXZ 0000000180090dc0 f i il_utx.obj
 0001:0008fe60       ?_Free_proxy@?$_Vector_alloc@$0A@U?$_Vec_base_types@UUTXEXPORTTABLE@@V?$allocator@UUTXEXPORTTABLE@@@std@@@std@@@std@@QEAAXXZ 0000000180090e60 f i il_utx.obj
 0001:0008ff00       ?_Free_proxy@?$_Vector_alloc@$0A@U?$_Vec_base_types@UUTXIMPORTTABLE@@V?$allocator@UUTXIMPORTTABLE@@@std@@@std@@@std@@QEAAXXZ 0000000180090f00 f i il_utx.obj
 0001:0008ffa0       ?_Free_proxy@?$_Vector_alloc@$0A@U?$_Vec_base_types@VUTXPALETTE@@V?$allocator@VUTXPALETTE@@@std@@@std@@@std@@QEAAXXZ 0000000180090fa0 f i il_utx.obj
 0001:00090040       ?_Getal@?$_Vector_alloc@$0A@U?$_Vec_base_types@UUTXENTRYNAME@@V?$allocator@UUTXENTRYNAME@@@std@@@std@@@std@@QEBA?AU?$_Wrap_alloc@V?$allocator@UUTXENTRYNAME@@@std@@@2@XZ 0000000180091040 f i il_utx.obj
 0001:00090090       ?_Getal@?$_Vector_alloc@$0A@U?$_Vec_base_types@UUTXEXPORTTABLE@@V?$allocator@UUTXEXPORTTABLE@@@std@@@std@@@std@@QEBA?AU?$_Wrap_alloc@V?$allocator@UUTXEXPORTTABLE@@@std@@@2@XZ 0000000180091090 f i il_utx.obj
 0001:000900e0       ?_Getal@?$_Vector_alloc@$0A@U?$_Vec_base_types@UUTXIMPORTTABLE@@V?$allocator@UUTXIMPORTTABLE@@@std@@@std@@@std@@QEBA?AU?$_Wrap_alloc@V?$allocator@UUTXIMPORTTABLE@@@std@@@2@XZ 00000001800910e0 f i il_utx.obj
 0001:00090130       ?_Getal@?$_Vector_alloc@$0A@U?$_Vec_base_types@VUTXPALETTE@@V?$allocator@VUTXPALETTE@@@std@@@std@@@std@@QEBA?AU?$_Wrap_alloc@V?$allocator@VUTXPALETTE@@@std@@@2@XZ 0000000180091130 f i il_utx.obj
 0001:00090180       ?_Getcont@_Iterator_base12@std@@QEBAPEBU_Container_base12@2@XZ 0000000180091180 f i il_utx.obj
 0001:000901e0       ?_Getpnext@_Iterator_base12@std@@QEAAPEAPEAU12@XZ 00000001800911e0 f i il_utx.obj
 0001:00090200       ?_Grow_to@?$vector@UUTXENTRYNAME@@V?$allocator@UUTXENTRYNAME@@@std@@@std@@IEBA_K_K@Z 0000000180091200 f i il_utx.obj
 0001:000902f0       ?_Grow_to@?$vector@UUTXEXPORTTABLE@@V?$allocator@UUTXEXPORTTABLE@@@std@@@std@@IEBA_K_K@Z 00000001800912f0 f i il_utx.obj
 0001:000903e0       ?_Grow_to@?$vector@UUTXIMPORTTABLE@@V?$allocator@UUTXIMPORTTABLE@@@std@@@std@@IEBA_K_K@Z 00000001800913e0 f i il_utx.obj
 0001:000904d0       ?_Grow_to@?$vector@VUTXPALETTE@@V?$allocator@VUTXPALETTE@@@std@@@std@@IEBA_K_K@Z 00000001800914d0 f i il_utx.obj
 0001:000905c0       ?_Orphan_me@_Iterator_base12@std@@QEAAXXZ 00000001800915c0 f i il_utx.obj
 0001:000906a0       ?_Orphan_range@?$vector@UUTXENTRYNAME@@V?$allocator@UUTXENTRYNAME@@@std@@@std@@IEBAXPEAUUTXENTRYNAME@@0@Z 00000001800916a0 f i il_utx.obj
 0001:000907c0       ?_Orphan_range@?$vector@UUTXEXPORTTABLE@@V?$allocator@UUTXEXPORTTABLE@@@std@@@std@@IEBAXPEAUUTXEXPORTTABLE@@0@Z 00000001800917c0 f i il_utx.obj
 0001:000908e0       ?_Orphan_range@?$vector@UUTXIMPORTTABLE@@V?$allocator@UUTXIMPORTTABLE@@@std@@@std@@IEBAXPEAUUTXIMPORTTABLE@@0@Z 00000001800918e0 f i il_utx.obj
 0001:00090a00       ?_Orphan_range@?$vector@VUTXPALETTE@@V?$allocator@VUTXPALETTE@@@std@@@std@@IEBAXPEAVUTXPALETTE@@0@Z 0000000180091a00 f i il_utx.obj
 0001:00090b20       ?_Pdif@?$basic_string@DU?$char_traits@D@std@@V?$allocator@D@2@@std@@SA_KV?$_String_const_iterator@V?$_String_val@U?$_Simple_types@D@std@@@std@@@2@0@Z 0000000180091b20 f i il_utx.obj
 0001:00090bd0       ?_Pop_back_n@?$vector@UUTXENTRYNAME@@V?$allocator@UUTXENTRYNAME@@@std@@@std@@QEAAX_K@Z 0000000180091bd0 f i il_utx.obj
 0001:00090c80       ?_Pop_back_n@?$vector@UUTXEXPORTTABLE@@V?$allocator@UUTXEXPORTTABLE@@@std@@@std@@QEAAX_K@Z 0000000180091c80 f i il_utx.obj
 0001:00090d30       ?_Pop_back_n@?$vector@UUTXIMPORTTABLE@@V?$allocator@UUTXIMPORTTABLE@@@std@@@std@@QEAAX_K@Z 0000000180091d30 f i il_utx.obj
 0001:00090de0       ?_Pop_back_n@?$vector@VUTXPALETTE@@V?$allocator@VUTXPALETTE@@@std@@@std@@QEAAX_K@Z 0000000180091de0 f i il_utx.obj
 0001:00090e90       ?_Reallocate@?$vector@UUTXENTRYNAME@@V?$allocator@UUTXENTRYNAME@@@std@@@std@@IEAAX_K@Z 0000000180091e90 f i il_utx.obj
 0001:00091030       ?_Reallocate@?$vector@UUTXEXPORTTABLE@@V?$allocator@UUTXEXPORTTABLE@@@std@@@std@@IEAAX_K@Z 0000000180092030 f i il_utx.obj
 0001:000911d0       ?_Reallocate@?$vector@UUTXIMPORTTABLE@@V?$allocator@UUTXIMPORTTABLE@@@std@@@std@@IEAAX_K@Z 00000001800921d0 f i il_utx.obj
 0001:00091370       ?_Reallocate@?$vector@VUTXPALETTE@@V?$allocator@VUTXPALETTE@@@std@@@std@@IEAAX_K@Z 0000000180092370 f i il_utx.obj
 0001:00091510       ?_Reserve@?$vector@UUTXENTRYNAME@@V?$allocator@UUTXENTRYNAME@@@std@@@std@@IEAAX_K@Z 0000000180092510 f i il_utx.obj
 0001:000915d0       ?_Reserve@?$vector@UUTXEXPORTTABLE@@V?$allocator@UUTXEXPORTTABLE@@@std@@@std@@IEAAX_K@Z 00000001800925d0 f i il_utx.obj
 0001:00091690       ?_Reserve@?$vector@UUTXIMPORTTABLE@@V?$allocator@UUTXIMPORTTABLE@@@std@@@std@@IEAAX_K@Z 0000000180092690 f i il_utx.obj
 0001:00091750       ?_Reserve@?$vector@VUTXPALETTE@@V?$allocator@VUTXPALETTE@@@std@@@std@@IEAAX_K@Z 0000000180092750 f i il_utx.obj
 0001:00091810       ?_Tidy@?$vector@UUTXENTRYNAME@@V?$allocator@UUTXENTRYNAME@@@std@@@std@@IEAAXXZ 0000000180092810 f i il_utx.obj
 0001:00091920       ?_Tidy@?$vector@UUTXEXPORTTABLE@@V?$allocator@UUTXEXPORTTABLE@@@std@@@std@@IEAAXXZ 0000000180092920 f i il_utx.obj
 0001:00091a20       ?_Tidy@?$vector@UUTXIMPORTTABLE@@V?$allocator@UUTXIMPORTTABLE@@@std@@@std@@IEAAXXZ 0000000180092a20 f i il_utx.obj
 0001:00091b30       ?_Tidy@?$vector@VUTXPALETTE@@V?$allocator@VUTXPALETTE@@@std@@@std@@IEAAXXZ 0000000180092b30 f i il_utx.obj
 0001:00091c30       ?_Unused_capacity@?$vector@UUTXENTRYNAME@@V?$allocator@UUTXENTRYNAME@@@std@@@std@@QEBA_KXZ 0000000180092c30 f i il_utx.obj
 0001:00091c60       ?_Unused_capacity@?$vector@UUTXEXPORTTABLE@@V?$allocator@UUTXEXPORTTABLE@@@std@@@std@@QEBA_KXZ 0000000180092c60 f i il_utx.obj
 0001:00091c90       ?_Unused_capacity@?$vector@UUTXIMPORTTABLE@@V?$allocator@UUTXIMPORTTABLE@@@std@@@std@@QEBA_KXZ 0000000180092c90 f i il_utx.obj
 0001:00091cc0       ?_Unused_capacity@?$vector@VUTXPALETTE@@V?$allocator@VUTXPALETTE@@@std@@@std@@QEBA_KXZ 0000000180092cc0 f i il_utx.obj
 0001:00091cf0       ?_Xlen@?$vector@UUTXENTRYNAME@@V?$allocator@UUTXENTRYNAME@@@std@@@std@@IEBAXXZ 0000000180092cf0 f i il_utx.obj
 0001:00091d30       ?_Xlen@?$vector@UUTXEXPORTTABLE@@V?$allocator@UUTXEXPORTTABLE@@@std@@@std@@IEBAXXZ 0000000180092d30 f i il_utx.obj
 0001:00091d70       ?_Xlen@?$vector@UUTXIMPORTTABLE@@V?$allocator@UUTXIMPORTTABLE@@@std@@@std@@IEBAXXZ 0000000180092d70 f i il_utx.obj
 0001:00091db0       ?_Xlen@?$vector@VUTXPALETTE@@V?$allocator@VUTXPALETTE@@@std@@@std@@IEBAXXZ 0000000180092db0 f i il_utx.obj
 0001:00091df0       ?allocate@?$_Wrap_alloc@V?$allocator@UUTXENTRYNAME@@@std@@@std@@QEAAPEAUUTXENTRYNAME@@_K@Z 0000000180092df0 f i il_utx.obj
 0001:00091e40       ?allocate@?$_Wrap_alloc@V?$allocator@UUTXEXPORTTABLE@@@std@@@std@@QEAAPEAUUTXEXPORTTABLE@@_K@Z 0000000180092e40 f i il_utx.obj
 0001:00091e90       ?allocate@?$_Wrap_alloc@V?$allocator@UUTXIMPORTTABLE@@@std@@@std@@QEAAPEAUUTXIMPORTTABLE@@_K@Z 0000000180092e90 f i il_utx.obj
 0001:00091ee0       ?allocate@?$_Wrap_alloc@V?$allocator@U_Container_proxy@std@@@std@@@std@@QEAAPEAU_Container_proxy@2@_K@Z 0000000180092ee0 f i il_utx.obj
 0001:00091f30       ?allocate@?$_Wrap_alloc@V?$allocator@VUTXPALETTE@@@std@@@std@@QEAAPEAVUTXPALETTE@@_K@Z 0000000180092f30 f i il_utx.obj
 0001:00091f80       ?allocate@?$allocator@UUTXENTRYNAME@@@std@@QEAAPEAUUTXENTRYNAME@@_K@Z 0000000180092f80 f i il_utx.obj
 0001:00091fd0       ?allocate@?$allocator@UUTXEXPORTTABLE@@@std@@QEAAPEAUUTXEXPORTTABLE@@_K@Z 0000000180092fd0 f i il_utx.obj
 0001:00092020       ?allocate@?$allocator@UUTXIMPORTTABLE@@@std@@QEAAPEAUUTXIMPORTTABLE@@_K@Z 0000000180093020 f i il_utx.obj
 0001:00092070       ?allocate@?$allocator@VUTXPALETTE@@@std@@QEAAPEAVUTXPALETTE@@_K@Z 0000000180093070 f i il_utx.obj
 0001:000920c0       ?begin@?$basic_string@DU?$char_traits@D@std@@V?$allocator@D@2@@std@@QEAA?AV?$_String_iterator@V?$_String_val@U?$_Simple_types@D@std@@@std@@@2@XZ 00000001800930c0 f i il_utx.obj
 0001:00092120       ?capacity@?$vector@UUTXENTRYNAME@@V?$allocator@UUTXENTRYNAME@@@std@@@std@@QEBA_KXZ 0000000180093120 f i il_utx.obj
 0001:00092150       ?capacity@?$vector@UUTXEXPORTTABLE@@V?$allocator@UUTXEXPORTTABLE@@@std@@@std@@QEBA_KXZ 0000000180093150 f i il_utx.obj
 0001:00092180       ?capacity@?$vector@UUTXIMPORTTABLE@@V?$allocator@UUTXIMPORTTABLE@@@std@@@std@@QEBA_KXZ 0000000180093180 f i il_utx.obj
 0001:000921b0       ?capacity@?$vector@VUTXPALETTE@@V?$allocator@VUTXPALETTE@@@std@@@std@@QEBA_KXZ 00000001800931b0 f i il_utx.obj
 0001:000921e0       ?compare@?$basic_string@DU?$char_traits@D@std@@V?$allocator@D@2@@std@@QEBAHPEBD@Z 00000001800931e0 f i il_utx.obj
 0001:00092270       ?compare@?$basic_string@DU?$char_traits@D@std@@V?$allocator@D@2@@std@@QEBAH_K0PEBD0@Z 0000000180093270 f i il_utx.obj
 0001:00092400       ?compare@?$char_traits@D@std@@SAHPEBD0_K@Z 0000000180093400 f i il_utx.obj
 0001:00092480       ?construct@?$_Wrap_alloc@V?$allocator@UUTXENTRYNAME@@@std@@@std@@QEAAXPEAUUTXENTRYNAME@@@Z 0000000180093480 f i il_utx.obj
 0001:000924d0       ?construct@?$_Wrap_alloc@V?$allocator@UUTXEXPORTTABLE@@@std@@@std@@QEAAXPEAUUTXEXPORTTABLE@@@Z 00000001800934d0 f i il_utx.obj
 0001:00092520       ?construct@?$_Wrap_alloc@V?$allocator@UUTXIMPORTTABLE@@@std@@@std@@QEAAXPEAUUTXIMPORTTABLE@@@Z 0000000180093520 f i il_utx.obj
 0001:00092570       ?construct@?$_Wrap_alloc@V?$allocator@VUTXPALETTE@@@std@@@std@@QEAAXPEAVUTXPALETTE@@@Z 0000000180093570 f i il_utx.obj
 0001:000925c0       ?construct@?$allocator@UUTXENTRYNAME@@@std@@QEAAXPEAUUTXENTRYNAME@@@Z 00000001800935c0 f i il_utx.obj
 0001:00092650       ?construct@?$allocator@UUTXEXPORTTABLE@@@std@@QEAAXPEAUUTXEXPORTTABLE@@@Z 0000000180093650 f i il_utx.obj
 0001:000926e0       ?construct@?$allocator@UUTXIMPORTTABLE@@@std@@QEAAXPEAUUTXIMPORTTABLE@@@Z 00000001800936e0 f i il_utx.obj
 0001:00092770       ?construct@?$allocator@VUTXPALETTE@@@std@@QEAAXPEAVUTXPALETTE@@@Z 0000000180093770 f i il_utx.obj
 0001:00092800       ?deallocate@?$_Wrap_alloc@V?$allocator@UUTXENTRYNAME@@@std@@@std@@QEAAXPEAUUTXENTRYNAME@@_K@Z 0000000180093800 f i il_utx.obj
 0001:00092860       ?deallocate@?$_Wrap_alloc@V?$allocator@UUTXEXPORTTABLE@@@std@@@std@@QEAAXPEAUUTXEXPORTTABLE@@_K@Z 0000000180093860 f i il_utx.obj
 0001:000928c0       ?deallocate@?$_Wrap_alloc@V?$allocator@UUTXIMPORTTABLE@@@std@@@std@@QEAAXPEAUUTXIMPORTTABLE@@_K@Z 00000001800938c0 f i il_utx.obj
 0001:00092920       ?deallocate@?$_Wrap_alloc@V?$allocator@U_Container_proxy@std@@@std@@@std@@QEAAXPEAU_Container_proxy@2@_K@Z 0000000180093920 f i il_utx.obj
 0001:00092980       ?deallocate@?$_Wrap_alloc@V?$allocator@VUTXPALETTE@@@std@@@std@@QEAAXPEAVUTXPALETTE@@_K@Z 0000000180093980 f i il_utx.obj
 0001:000929e0       ?deallocate@?$allocator@UUTXENTRYNAME@@@std@@QEAAXPEAUUTXENTRYNAME@@_K@Z 00000001800939e0 f i il_utx.obj
 0001:00092a30       ?deallocate@?$allocator@UUTXEXPORTTABLE@@@std@@QEAAXPEAUUTXEXPORTTABLE@@_K@Z 0000000180093a30 f i il_utx.obj
 0001:00092a80       ?deallocate@?$allocator@UUTXIMPORTTABLE@@@std@@QEAAXPEAUUTXIMPORTTABLE@@_K@Z 0000000180093a80 f i il_utx.obj
 0001:00092ad0       ?deallocate@?$allocator@VUTXPALETTE@@@std@@QEAAXPEAVUTXPALETTE@@_K@Z 0000000180093ad0 f i il_utx.obj
 0001:00092b20       ?end@?$basic_string@DU?$char_traits@D@std@@V?$allocator@D@2@@std@@QEAA?AV?$_String_iterator@V?$_String_val@U?$_Simple_types@D@std@@@std@@@2@XZ 0000000180093b20 f i il_utx.obj
 0001:00092b90       ?max_size@?$_Wrap_alloc@V?$allocator@UUTXENTRYNAME@@@std@@@std@@QEBA_KXZ 0000000180093b90 f i il_utx.obj
 0001:00092bd0       ?max_size@?$_Wrap_alloc@V?$allocator@UUTXEXPORTTABLE@@@std@@@std@@QEBA_KXZ 0000000180093bd0 f i il_utx.obj
 0001:00092c10       ?max_size@?$_Wrap_alloc@V?$allocator@UUTXIMPORTTABLE@@@std@@@std@@QEBA_KXZ 0000000180093c10 f i il_utx.obj
 0001:00092c50       ?max_size@?$_Wrap_alloc@V?$allocator@VUTXPALETTE@@@std@@@std@@QEBA_KXZ 0000000180093c50 f i il_utx.obj
 0001:00092c90       ?max_size@?$allocator@UUTXENTRYNAME@@@std@@QEBA_KXZ 0000000180093c90 f i il_utx.obj
 0001:00092cb0       ?max_size@?$allocator@UUTXEXPORTTABLE@@@std@@QEBA_KXZ 0000000180093cb0 f i il_utx.obj
 0001:00092cd0       ?max_size@?$allocator@UUTXIMPORTTABLE@@@std@@QEBA_KXZ 0000000180093cd0 f i il_utx.obj
 0001:00092cf0       ?max_size@?$allocator@VUTXPALETTE@@@std@@QEBA_KXZ 0000000180093cf0 f i il_utx.obj
 0001:00092d10       ?max_size@?$allocator_traits@V?$allocator@UUTXENTRYNAME@@@std@@@std@@SA_KAEBV?$allocator@UUTXENTRYNAME@@@2@@Z 0000000180093d10 f i il_utx.obj
 0001:00092d50       ?max_size@?$allocator_traits@V?$allocator@UUTXEXPORTTABLE@@@std@@@std@@SA_KAEBV?$allocator@UUTXEXPORTTABLE@@@2@@Z 0000000180093d50 f i il_utx.obj
 0001:00092d90       ?max_size@?$allocator_traits@V?$allocator@UUTXIMPORTTABLE@@@std@@@std@@SA_KAEBV?$allocator@UUTXIMPORTTABLE@@@2@@Z 0000000180093d90 f i il_utx.obj
 0001:00092dd0       ?max_size@?$allocator_traits@V?$allocator@VUTXPALETTE@@@std@@@std@@SA_KAEBV?$allocator@VUTXPALETTE@@@2@@Z 0000000180093dd0 f i il_utx.obj
 0001:00092e10       ?max_size@?$vector@UUTXENTRYNAME@@V?$allocator@UUTXENTRYNAME@@@std@@@std@@QEBA_KXZ 0000000180093e10 f i il_utx.obj
 0001:00092e60       ?max_size@?$vector@UUTXEXPORTTABLE@@V?$allocator@UUTXEXPORTTABLE@@@std@@@std@@QEBA_KXZ 0000000180093e60 f i il_utx.obj
 0001:00092eb0       ?max_size@?$vector@UUTXIMPORTTABLE@@V?$allocator@UUTXIMPORTTABLE@@@std@@@std@@QEBA_KXZ 0000000180093eb0 f i il_utx.obj
 0001:00092f00       ?max_size@?$vector@VUTXPALETTE@@V?$allocator@VUTXPALETTE@@@std@@@std@@QEBA_KXZ 0000000180093f00 f i il_utx.obj
 0001:00092f50       ?replace@?$basic_string@DU?$char_traits@D@std@@V?$allocator@D@2@@std@@QEAAAEAV12@V?$_String_const_iterator@V?$_String_val@U?$_Simple_types@D@std@@@std@@@2@0V?$_String_iterator@V?$_String_val@U?$_Simple_types@D@std@@@std@@@2@1@Z 0000000180093f50 f i il_utx.obj
 0001:000933e0       ?replace@?$basic_string@DU?$char_traits@D@std@@V?$allocator@D@2@@std@@QEAAAEAV12@_K0AEBV12@00@Z 00000001800943e0 f i il_utx.obj
 0001:00093b20       ?replace@?$basic_string@DU?$char_traits@D@std@@V?$allocator@D@2@@std@@QEAAAEAV12@_K0PEBD0@Z 0000000180094b20 f i il_utx.obj
 0001:00093e30       ?resize@?$vector@UUTXENTRYNAME@@V?$allocator@UUTXENTRYNAME@@@std@@@std@@QEAAX_K@Z 0000000180094e30 f i il_utx.obj
 0001:00093f90       ?resize@?$vector@UUTXEXPORTTABLE@@V?$allocator@UUTXEXPORTTABLE@@@std@@@std@@QEAAX_K@Z 0000000180094f90 f i il_utx.obj
 0001:000940f0       ?resize@?$vector@UUTXIMPORTTABLE@@V?$allocator@UUTXIMPORTTABLE@@@std@@@std@@QEAAX_K@Z 00000001800950f0 f i il_utx.obj
 0001:00094250       ?resize@?$vector@VUTXPALETTE@@V?$allocator@VUTXPALETTE@@@std@@@std@@QEAAX_K@Z 0000000180095250 f i il_utx.obj
 0001:000943b0       ?select_on_container_copy_construction@?$_Wrap_alloc@V?$allocator@D@std@@@std@@QEBA?AU12@XZ 00000001800953b0 f i il_utx.obj
 0001:00094410       ?select_on_container_copy_construction@?$allocator@D@std@@QEBA?AV12@XZ 0000000180095410 f i il_utx.obj
 0001:00094460       ?select_on_container_copy_construction@?$allocator_traits@V?$allocator@D@std@@@std@@SA?AV?$allocator@D@2@AEBV32@@Z 0000000180095460 f i il_utx.obj
 0001:000944b0       ?size@?$vector@UUTXENTRYNAME@@V?$allocator@UUTXENTRYNAME@@@std@@@std@@QEBA_KXZ 00000001800954b0 f i il_utx.obj
 0001:000944e0       ?size@?$vector@UUTXEXPORTTABLE@@V?$allocator@UUTXEXPORTTABLE@@@std@@@std@@QEBA_KXZ 00000001800954e0 f i il_utx.obj
 0001:00094510       ?size@?$vector@UUTXIMPORTTABLE@@V?$allocator@UUTXIMPORTTABLE@@@std@@@std@@QEBA_KXZ 0000000180095510 f i il_utx.obj
 0001:00094540       ?size@?$vector@VUTXPALETTE@@V?$allocator@VUTXPALETTE@@@std@@@std@@QEBA_KXZ 0000000180095540 f i il_utx.obj
 0001:00094570       ?iIsValidVtf@@YAEPEAUSIO@@@Z 0000000180095570 f   il_vtf.obj
 0001:00094650       ?iLoadVtfInternal@@YAEPEAUILimage@@@Z 0000000180095650 f   il_vtf.obj
 0001:00095c80       ?iSaveVtfInternal@@YAEPEAUILimage@@@Z 0000000180096c80 f   il_vtf.obj
 0001:000961a0       ?iCheckVtf@@YAEPEAUVTFHEAD@@@Z 00000001800971a0 f   il_vtf.obj
 0001:000963c0       ?VtfInitFacesMipmaps@@YAEPEAUILimage@@IPEAUVTFHEAD@@@Z 00000001800973c0 f   il_vtf.obj
 0001:000964f0       ?VtfInitMipmaps@@YAEPEAUILimage@@PEAUVTFHEAD@@@Z 00000001800974f0 f   il_vtf.obj
 0001:000966a0       ?iGetVtfHead@@YAEPEAUSIO@@PEAUVTFHEAD@@@Z 00000001800976a0 f   il_vtf.obj
 0001:00096730       ?GetFaceFlag@@YAII@Z       0000000180097730 f   il_vtf.obj
 0001:00097060       ?SaveLittleFloat@@YAEPEAUSIO@@M@Z 0000000180098060 f i il_vtf.obj
 0001:000970c0       ?iLoadWalInternal@@YAEPEAUILimage@@@Z 00000001800980c0 f   il_wal.obj
 0001:00097710       ?iLoadWbmpInternal@@YAEPEAUILimage@@@Z 0000000180098710 f   il_wbmp.obj
 0001:000979a0       ?iSaveWbmpInternal@@YAEPEAUILimage@@@Z 00000001800989a0 f   il_wbmp.obj
 0001:00097bd0       ?WbmpGetMultibyte@@YAIPEAUSIO@@@Z 0000000180098bd0 f   il_wbmp.obj
 0001:00097c60       ?WbmpPutMultibyte@@YAEPEAUSIO@@I@Z 0000000180098c60 f   il_wbmp.obj
 0001:00097e90       ?iIsValidXpm@@YAEPEAUSIO@@@Z 0000000180098e90 f   il_xpm.obj
 0001:00097f50       ?iLoadXpmInternal@@YAEPEAUILimage@@@Z 0000000180098f50 f   il_xpm.obj
 0001:00098340       ?XpmGetsInternal@@YAHPEAUSIO@@PEAEH@Z 0000000180099340 f   il_xpm.obj
 0001:000984f0       ?XpmCreateHashTable@@YAPEAPEAUXPMHASHENTRY@@XZ 00000001800994f0 f   il_xpm.obj
 0001:00098540       ?XpmDestroyHashTable@@YAXPEAPEAUXPMHASHENTRY@@@Z 0000000180099540 f   il_xpm.obj
 0001:000985f0       ?XpmInsertEntry@@YAXPEAPEAUXPMHASHENTRY@@PEBEHQEAE@Z 00000001800995f0 f   il_xpm.obj
 0001:000986b0       ?XpmGetEntry@@YAXPEAPEAUXPMHASHENTRY@@PEBEHQEAE@Z 00000001800996b0 f   il_xpm.obj
 0001:00098760       ?XpmGets@@YAHPEAUSIO@@PEAEH@Z 0000000180099760 f   il_xpm.obj
 0001:00098970       ?XpmGetInt@@YAHPEAEHPEAH@Z 0000000180099970 f   il_xpm.obj
 0001:00098af0       ?XpmPredefCol@@YAEPEADPEAY03E@Z 0000000180099af0 f   il_xpm.obj
 0001:00099120       ?XpmGetColour@@YAEPEAEHHPEAPEAUXPMHASHENTRY@@@Z 000000018009a120 f   il_xpm.obj
 0001:00099c80       png_create_read_struct     000000018009ac80 f   libPNG:pngread.obj
 0001:00099cf0       png_create_read_struct_2   000000018009acf0 f   libPNG:pngread.obj
 0001:00099de0       png_read_info              000000018009ade0 f   libPNG:pngread.obj
 0001:0009a290       png_start_read_image       000000018009b290 f   libPNG:pngread.obj
 0001:0009a300       png_read_update_info       000000018009b300 f   libPNG:pngread.obj
 0001:0009a380       png_read_rows              000000018009b380 f   libPNG:pngread.obj
 0001:0009a510       png_read_row               000000018009b510 f   libPNG:pngread.obj
 0001:0009acf0       png_read_image             000000018009bcf0 f   libPNG:pngread.obj
 0001:0009ae30       png_read_end               000000018009be30 f   libPNG:pngread.obj
 0001:0009b2c0       png_destroy_read_struct    000000018009c2c0 f   libPNG:pngread.obj
 0001:0009b360       png_set_read_status_fn     000000018009c360 f   libPNG:pngread.obj
 0001:0009b390       png_read_png               000000018009c390 f   libPNG:pngread.obj
 0001:0009b6b0       png_image_begin_read_from_file 000000018009c6b0 f   libPNG:pngread.obj
 0001:0009b7e0       png_image_begin_read_from_stdio 000000018009c7e0 f   libPNG:pngread.obj
 0001:0009b8a0       png_image_begin_read_from_memory 000000018009c8a0 f   libPNG:pngread.obj
 0001:0009b9b0       png_image_finish_read      000000018009c9b0 f   libPNG:pngread.obj
 0001:000a1810       png_set_longjmp_fn         00000001800a2810 f   libPNG:pngerror.obj
 0001:000a1960       png_longjmp                00000001800a2960 f   libPNG:pngerror.obj
 0001:000a19e0       png_set_error_fn           00000001800a29e0 f   libPNG:pngerror.obj
 0001:000a1a40       png_get_error_ptr          00000001800a2a40 f   libPNG:pngerror.obj
 0001:000a1a70       png_error                  00000001800a2a70 f   libPNG:pngerror.obj
 0001:000a1ae0       png_chunk_error            00000001800a2ae0 f   libPNG:pngerror.obj
 0001:000a1b80       png_warning                00000001800a2b80 f   libPNG:pngerror.obj
 0001:000a1c60       png_chunk_warning          00000001800a2c60 f   libPNG:pngerror.obj
 0001:000a1d20       png_benign_error           00000001800a2d20 f   libPNG:pngerror.obj
 0001:000a1df0       png_chunk_benign_error     00000001800a2df0 f   libPNG:pngerror.obj
 0001:000a1e60       png_free_jmpbuf            00000001800a2e60 f   libPNG:pngerror.obj
 0001:000a1fb0       png_fixed_error            00000001800a2fb0 f   libPNG:pngerror.obj
 0001:000a20b0       png_safecat                00000001800a30b0 f   libPNG:pngerror.obj
 0001:000a2160       png_format_number          00000001800a3160 f   libPNG:pngerror.obj
 0001:000a23a0       png_warning_parameter      00000001800a33a0 f   libPNG:pngerror.obj
 0001:000a2410       png_warning_parameter_unsigned 00000001800a3410 f   libPNG:pngerror.obj
 0001:000a24b0       png_warning_parameter_signed 00000001800a34b0 f   libPNG:pngerror.obj
 0001:000a25b0       png_formatted_warning      00000001800a35b0 f   libPNG:pngerror.obj
 0001:000a2850       png_app_warning            00000001800a3850 f   libPNG:pngerror.obj
 0001:000a28c0       png_app_error              00000001800a38c0 f   libPNG:pngerror.obj
 0001:000a2930       png_chunk_report           00000001800a3930 f   libPNG:pngerror.obj
 0001:000a29e0       png_safe_error             00000001800a39e0 f   libPNG:pngerror.obj
 0001:000a2af0       png_safe_warning           00000001800a3af0 f   libPNG:pngerror.obj
 0001:000a2b80       png_safe_execute           00000001800a3b80 f   libPNG:pngerror.obj
 0001:000a2fd0       png_access_version_number  00000001800a3fd0 f   libPNG:png.obj
 0001:000a2fe0       png_set_sig_bytes          00000001800a3fe0 f   libPNG:png.obj
 0001:000a3060       png_sig_cmp                00000001800a4060 f   libPNG:png.obj
 0001:000a3170       png_reset_zstream          00000001800a4170 f   libPNG:png.obj
 0001:000a31c0       png_create_info_struct     00000001800a41c0 f   libPNG:png.obj
 0001:000a3230       png_info_init_3            00000001800a4230 f   libPNG:png.obj
 0001:000a32d0       png_convert_to_rfc1123     00000001800a42d0 f   libPNG:png.obj
 0001:000a3350       png_convert_to_rfc1123_buffer 00000001800a4350 f   libPNG:png.obj
 0001:000a36a0       png_build_grayscale_palette 00000001800a46a0 f   libPNG:png.obj
 0001:000a37d0       png_destroy_info_struct    00000001800a47d0 f   libPNG:png.obj
 0001:000a3880       png_init_io                00000001800a4880 f   libPNG:png.obj
 0001:000a38b0       png_get_io_ptr             00000001800a48b0 f   libPNG:png.obj
 0001:000a38e0       png_free_data              00000001800a48e0 f   libPNG:png.obj
 0001:000a4080       png_data_freer             00000001800a5080 f   libPNG:png.obj
 0001:000a4130       png_handle_as_unknown      00000001800a5130 f   libPNG:png.obj
 0001:000a4200       png_get_copyright          00000001800a5200 f   libPNG:png.obj
 0001:000a4220       png_get_header_ver         00000001800a5220 f   libPNG:png.obj
 0001:000a4240       png_get_header_version     00000001800a5240 f   libPNG:png.obj
 0001:000a4260       png_get_libpng_ver         00000001800a5260 f   libPNG:png.obj
 0001:000a42a0       png_save_int_32            00000001800a52a0 f   libPNG:png.obj
 0001:000a4330       png_image_free             00000001800a5330 f   libPNG:png.obj
 0001:000a43a0       png_set_option             00000001800a53a0 f   libPNG:png.obj
 0001:000a4490       png_zstream_error          00000001800a5490 f   libPNG:png.obj
 0001:000a4610       png_fixed                  00000001800a5610 f   libPNG:png.obj
 0001:000a46a0       png_user_version_check     00000001800a56a0 f   libPNG:png.obj
 0001:000a49b0       png_create_png_struct      00000001800a59b0 f   libPNG:png.obj
 0001:000a4bb0       png_zalloc                 00000001800a5bb0 f   libPNG:png.obj
 0001:000a4c60       png_zfree                  00000001800a5c60 f   libPNG:png.obj
 0001:000a4ca0       png_reset_crc              00000001800a5ca0 f   libPNG:png.obj
 0001:000a4cf0       png_calculate_crc          00000001800a5cf0 f   libPNG:png.obj
 0001:000a4e10       png_chunk_unknown_handling 00000001800a5e10 f   libPNG:png.obj
 0001:000a4ee0       png_colorspace_set_gamma   00000001800a5ee0 f   libPNG:png.obj
 0001:000a4ff0       png_colorspace_sync_info   00000001800a5ff0 f   libPNG:png.obj
 0001:000a5120       png_colorspace_sync        00000001800a6120 f   libPNG:png.obj
 0001:000a5190       png_colorspace_set_chromaticities 00000001800a6190 f   libPNG:png.obj
 0001:000a52c0       png_colorspace_set_endpoints 00000001800a62c0 f   libPNG:png.obj
 0001:000a5410       png_colorspace_set_sRGB    00000001800a6410 f   libPNG:png.obj
 0001:000a5620       png_colorspace_set_ICC     00000001800a6620 f   libPNG:png.obj
 0001:000a5710       png_icc_check_length       00000001800a6710 f   libPNG:png.obj
 0001:000a5790       png_icc_check_header       00000001800a6790 f   libPNG:png.obj
 0001:000a5d10       png_icc_check_tag_table    00000001800a6d10 f   libPNG:png.obj
 0001:000a5f00       png_icc_set_sRGB           00000001800a6f00 f   libPNG:png.obj
 0001:000a5fa0       png_colorspace_set_rgb_coefficients 00000001800a6fa0 f   libPNG:png.obj
 0001:000a6270       png_check_IHDR             00000001800a7270 f   libPNG:png.obj
 0001:000a6560       png_ascii_from_fp          00000001800a7560 f   libPNG:png.obj
 0001:000a6db0       png_ascii_from_fixed       00000001800a7db0 f   libPNG:png.obj
 0001:000a7030       png_check_fp_number        00000001800a8030 f   libPNG:png.obj
 0001:000a7350       png_check_fp_string        00000001800a8350 f   libPNG:png.obj
 0001:000a73f0       png_muldiv                 00000001800a83f0 f   libPNG:png.obj
 0001:000a74f0       png_muldiv_warn            00000001800a84f0 f   libPNG:png.obj
 0001:000a7580       png_reciprocal             00000001800a8580 f   libPNG:png.obj
 0001:000a7600       png_reciprocal2            00000001800a8600 f   libPNG:png.obj
 0001:000a76b0       png_gamma_significant      00000001800a86b0 f   libPNG:png.obj
 0001:000a7700       png_gamma_correct          00000001800a8700 f   libPNG:png.obj
 0001:000a7770       png_gamma_16bit_correct    00000001800a8770 f   libPNG:png.obj
 0001:000a7820       png_gamma_8bit_correct     00000001800a8820 f   libPNG:png.obj
 0001:000a78d0       png_destroy_gamma_table    00000001800a88d0 f   libPNG:png.obj
 0001:000a7b50       png_build_gamma_table      00000001800a8b50 f   libPNG:png.obj
 0001:000a7f10       png_image_error            00000001800a8f10 f   libPNG:png.obj
 0001:000aa260       png_set_expand             00000001800ab260 f   libPNG:pngrtran.obj
 0001:000aa2c0       png_set_expand_gray_1_2_4_to_8 00000001800ab2c0 f   libPNG:pngrtran.obj
 0001:000aa320       png_set_palette_to_rgb     00000001800ab320 f   libPNG:pngrtran.obj
 0001:000aa380       png_set_tRNS_to_alpha      00000001800ab380 f   libPNG:pngrtran.obj
 0001:000aa3e0       png_set_expand_16          00000001800ab3e0 f   libPNG:pngrtran.obj
 0001:000aa440       png_set_gray_to_rgb        00000001800ab440 f   libPNG:pngrtran.obj
 0001:000aa4a0       png_set_rgb_to_gray        00000001800ab4a0 f   libPNG:pngrtran.obj
 0001:000aa530       png_set_rgb_to_gray_fixed  00000001800ab530 f   libPNG:pngrtran.obj
 0001:000aa710       png_set_alpha_mode         00000001800ab710 f   libPNG:pngrtran.obj
 0001:000aa770       png_set_alpha_mode_fixed   00000001800ab770 f   libPNG:pngrtran.obj
 0001:000aaa40       png_set_strip_alpha        00000001800aba40 f   libPNG:pngrtran.obj
 0001:000aaaa0       png_set_background         00000001800abaa0 f   libPNG:pngrtran.obj
 0001:000aab10       png_set_background_fixed   00000001800abb10 f   libPNG:pngrtran.obj
 0001:000aac50       png_set_scale_16           00000001800abc50 f   libPNG:pngrtran.obj
 0001:000aacb0       png_set_strip_16           00000001800abcb0 f   libPNG:pngrtran.obj
 0001:000aad10       png_set_quantize           00000001800abd10 f   libPNG:pngrtran.obj
 0001:000ac050       png_set_gamma              00000001800ad050 f   libPNG:pngrtran.obj
 0001:000ac0c0       png_set_gamma_fixed        00000001800ad0c0 f   libPNG:pngrtran.obj
 0001:000ac1a0       png_set_crc_action         00000001800ad1a0 f   libPNG:pngrtran.obj
 0001:000ac3b0       png_set_read_user_transform_fn 00000001800ad3b0 f   libPNG:pngrtran.obj
 0001:000ac3f0       png_read_transform_info    00000001800ad3f0 f   libPNG:pngrtran.obj
 0001:000ac890       png_do_read_transformations 00000001800ad890 f   libPNG:pngrtran.obj
 0001:000ad0f0       png_init_read_transformations 00000001800ae0f0 f   libPNG:pngrtran.obj
 0001:000b66e0       png_set_bgr                00000001800b76e0 f   libPNG:pngtrans.obj
 0001:000b6720       png_set_swap_alpha         00000001800b7720 f   libPNG:pngtrans.obj
 0001:000b6760       png_set_invert_alpha       00000001800b7760 f   libPNG:pngtrans.obj
 0001:000b67a0       png_set_filler             00000001800b77a0 f   libPNG:pngtrans.obj
 0001:000b68e0       png_set_add_alpha          00000001800b78e0 f   libPNG:pngtrans.obj
 0001:000b6960       png_set_swap               00000001800b7960 f   libPNG:pngtrans.obj
 0001:000b69b0       png_set_packing            00000001800b79b0 f   libPNG:pngtrans.obj
 0001:000b6a00       png_set_packswap           00000001800b7a00 f   libPNG:pngtrans.obj
 0001:000b6a50       png_set_shift              00000001800b7a50 f   libPNG:pngtrans.obj
 0001:000b6aa0       png_set_interlace_handling 00000001800b7aa0 f   libPNG:pngtrans.obj
 0001:000b6af0       png_set_invert_mono        00000001800b7af0 f   libPNG:pngtrans.obj
 0001:000b6b30       png_set_user_transform_info 00000001800b7b30 f   libPNG:pngtrans.obj
 0001:000b6be0       png_get_user_transform_ptr 00000001800b7be0 f   libPNG:pngtrans.obj
 0001:000b6c10       png_get_current_row_number 00000001800b7c10 f   libPNG:pngtrans.obj
 0001:000b6c40       png_get_current_pass_number 00000001800b7c40 f   libPNG:pngtrans.obj
 0001:000b6c70       png_do_strip_channel       00000001800b7c70 f   libPNG:pngtrans.obj
 0001:000b70a0       png_do_swap                00000001800b80a0 f   libPNG:pngtrans.obj
 0001:000b7150       png_do_packswap            00000001800b8150 f   libPNG:pngtrans.obj
 0001:000b7240       png_do_invert              00000001800b8240 f   libPNG:pngtrans.obj
 0001:000b73f0       png_do_bgr                 00000001800b83f0 f   libPNG:pngtrans.obj
 0001:000b7690       png_do_check_palette_indexes 00000001800b8690 f   libPNG:pngtrans.obj
 0001:000b79b0       png_set_read_fn            00000001800b89b0 f   libPNG:pngrio.obj
 0001:000b7a70       png_default_read_data      00000001800b8a70 f   libPNG:pngrio.obj
 0001:000b7b00       png_read_data              00000001800b8b00 f   libPNG:pngrio.obj
 0001:000b7b70       png_get_compression_buffer_size 00000001800b8b70 f   libPNG:pngget.obj
 0001:000b7bc0       png_get_rgb_to_gray_status 00000001800b8bc0 f   libPNG:pngget.obj
 0001:000b7c10       png_get_user_chunk_ptr     00000001800b8c10 f   libPNG:pngget.obj
 0001:000b7c60       png_get_valid              00000001800b8c60 f   libPNG:pngget.obj
 0001:000b7ca0       png_get_rowbytes           00000001800b8ca0 f   libPNG:pngget.obj
 0001:000b7cd0       png_get_rows               00000001800b8cd0 f   libPNG:pngget.obj
 0001:000b7d10       png_get_channels           00000001800b8d10 f   libPNG:pngget.obj
 0001:000b7d40       png_get_image_width        00000001800b8d40 f   libPNG:pngget.obj
 0001:000b7d70       png_get_image_height       00000001800b8d70 f   libPNG:pngget.obj
 0001:000b7da0       png_get_bit_depth          00000001800b8da0 f   libPNG:pngget.obj
 0001:000b7dd0       png_get_color_type         00000001800b8dd0 f   libPNG:pngget.obj
 0001:000b7e00       png_get_filter_type        00000001800b8e00 f   libPNG:pngget.obj
 0001:000b7e30       png_get_interlace_type     00000001800b8e30 f   libPNG:pngget.obj
 0001:000b7e60       png_get_compression_type   00000001800b8e60 f   libPNG:pngget.obj
 0001:000b7e90       png_get_pixels_per_meter   00000001800b8e90 f   libPNG:pngget.obj
 0001:000b7f00       png_get_x_pixels_per_meter 00000001800b8f00 f   libPNG:pngget.obj
 0001:000b7f60       png_get_y_pixels_per_meter 00000001800b8f60 f   libPNG:pngget.obj
 0001:000b7fc0       png_get_pixel_aspect_ratio 00000001800b8fc0 f   libPNG:pngget.obj
 0001:000b8050       png_get_pixel_aspect_ratio_fixed 00000001800b9050 f   libPNG:pngget.obj
 0001:000b8130       png_get_x_offset_pixels    00000001800b9130 f   libPNG:pngget.obj
 0001:000b8190       png_get_y_offset_pixels    00000001800b9190 f   libPNG:pngget.obj
 0001:000b81f0       png_get_x_offset_microns   00000001800b91f0 f   libPNG:pngget.obj
 0001:000b8250       png_get_y_offset_microns   00000001800b9250 f   libPNG:pngget.obj
 0001:000b82b0       png_get_signature          00000001800b92b0 f   libPNG:pngget.obj
 0001:000b82e0       png_get_bKGD               00000001800b92e0 f   libPNG:pngget.obj
 0001:000b8340       png_get_cHRM               00000001800b9340 f   libPNG:pngget.obj
 0001:000b84f0       png_get_cHRM_XYZ           00000001800b94f0 f   libPNG:pngget.obj
 0001:000b86c0       png_get_cHRM_fixed         00000001800b96c0 f   libPNG:pngget.obj
 0001:000b87d0       png_get_cHRM_XYZ_fixed     00000001800b97d0 f   libPNG:pngget.obj
 0001:000b8900       png_get_gAMA               00000001800b9900 f   libPNG:pngget.obj
 0001:000b8970       png_get_gAMA_fixed         00000001800b9970 f   libPNG:pngget.obj
 0001:000b89d0       png_get_hIST               00000001800b99d0 f   libPNG:pngget.obj
 0001:000b8a30       png_get_IHDR               00000001800b9a30 f   libPNG:pngget.obj
 0001:000b8ba0       png_get_oFFs               00000001800b9ba0 f   libPNG:pngget.obj
 0001:000b8c40       png_get_pCAL               00000001800b9c40 f   libPNG:pngget.obj
 0001:000b8d70       png_get_pHYs               00000001800b9d70 f   libPNG:pngget.obj
 0001:000b8e50       png_get_PLTE               00000001800b9e50 f   libPNG:pngget.obj
 0001:000b8ec0       png_get_sBIT               00000001800b9ec0 f   libPNG:pngget.obj
 0001:000b8f20       png_get_sRGB               00000001800b9f20 f   libPNG:pngget.obj
 0001:000b8f80       png_get_iCCP               00000001800b9f80 f   libPNG:pngget.obj
 0001:000b9090       png_get_sPLT               00000001800ba090 f   libPNG:pngget.obj
 0001:000b90f0       png_get_text               00000001800ba0f0 f   libPNG:pngget.obj
 0001:000b9190       png_get_tIME               00000001800ba190 f   libPNG:pngget.obj
 0001:000b91f0       png_get_tRNS               00000001800ba1f0 f   libPNG:pngget.obj
 0001:000b9310       png_get_sCAL               00000001800ba310 f   libPNG:pngget.obj
 0001:000b93c0       png_get_sCAL_fixed         00000001800ba3c0 f   libPNG:pngget.obj
 0001:000b94a0       png_get_sCAL_s             00000001800ba4a0 f   libPNG:pngget.obj
 0001:000b9530       png_get_unknown_chunks     00000001800ba530 f   libPNG:pngget.obj
 0001:000b9590       png_get_user_width_max     00000001800ba590 f   libPNG:pngget.obj
 0001:000b95e0       png_get_user_height_max    00000001800ba5e0 f   libPNG:pngget.obj
 0001:000b9630       png_get_chunk_cache_max    00000001800ba630 f   libPNG:pngget.obj
 0001:000b9680       png_get_chunk_malloc_max   00000001800ba680 f   libPNG:pngget.obj
 0001:000b96d0       png_get_pixels_per_inch    00000001800ba6d0 f   libPNG:pngget.obj
 0001:000b9720       png_get_x_pixels_per_inch  00000001800ba720 f   libPNG:pngget.obj
 0001:000b9770       png_get_y_pixels_per_inch  00000001800ba770 f   libPNG:pngget.obj
 0001:000b97c0       png_get_x_offset_inches    00000001800ba7c0 f   libPNG:pngget.obj
 0001:000b9810       png_get_x_offset_inches_fixed 00000001800ba810 f   libPNG:pngget.obj
 0001:000b9860       png_get_y_offset_inches    00000001800ba860 f   libPNG:pngget.obj
 0001:000b98b0       png_get_y_offset_inches_fixed 00000001800ba8b0 f   libPNG:pngget.obj
 0001:000b9900       png_get_pHYs_dpi           00000001800ba900 f   libPNG:pngget.obj
 0001:000b9a50       png_get_io_state           00000001800baa50 f   libPNG:pngget.obj
 0001:000b9a70       png_get_io_chunk_type      00000001800baa70 f   libPNG:pngget.obj
 0001:000b9a90       png_get_palette_max        00000001800baa90 f   libPNG:pngget.obj
 0001:000b9bd0       png_create_write_struct    00000001800babd0 f   libPNG:pngwrite.obj
 0001:000b9c40       png_create_write_struct_2  00000001800bac40 f   libPNG:pngwrite.obj
 0001:000b9da0       png_write_info_before_PLTE 00000001800bada0 f   libPNG:pngwrite.obj
 0001:000ba030       png_write_info             00000001800bb030 f   libPNG:pngwrite.obj
 0001:000ba640       png_convert_from_struct_tm 00000001800bb640 f   libPNG:pngwrite.obj
 0001:000ba6c0       png_convert_from_time_t    00000001800bb6c0 f   libPNG:pngwrite.obj
 0001:000ba710       png_set_flush              00000001800bb710 f   libPNG:pngwrite.obj
 0001:000ba770       png_write_flush            00000001800bb770 f   libPNG:pngwrite.obj
 0001:000ba7f0       png_write_row              00000001800bb7f0 f   libPNG:pngwrite.obj
 0001:000bad20       png_write_rows             00000001800bbd20 f   libPNG:pngwrite.obj
 0001:000badb0       png_write_image            00000001800bbdb0 f   libPNG:pngwrite.obj
 0001:000bae70       png_write_end              00000001800bbe70 f   libPNG:pngwrite.obj
 0001:000bb1d0       png_destroy_write_struct   00000001800bc1d0 f   libPNG:pngwrite.obj
 0001:000bb250       png_set_filter             00000001800bc250 f   libPNG:pngwrite.obj
 0001:000bb610       png_set_filter_heuristics  00000001800bc610 f   libPNG:pngwrite.obj
 0001:000bb810       png_set_filter_heuristics_fixed 00000001800bc810 f   libPNG:pngwrite.obj
 0001:000bba20       png_set_compression_level  00000001800bca20 f   libPNG:pngwrite.obj
 0001:000bba50       png_set_compression_mem_level 00000001800bca50 f   libPNG:pngwrite.obj
 0001:000bba80       png_set_compression_strategy 00000001800bca80 f   libPNG:pngwrite.obj
 0001:000bbad0       png_set_compression_window_bits 00000001800bcad0 f   libPNG:pngwrite.obj
 0001:000bbb60       png_set_compression_method 00000001800bcb60 f   libPNG:pngwrite.obj
 0001:000bbbc0       png_set_text_compression_level 00000001800bcbc0 f   libPNG:pngwrite.obj
 0001:000bbbf0       png_set_text_compression_mem_level 00000001800bcbf0 f   libPNG:pngwrite.obj
 0001:000bbc20       png_set_text_compression_strategy 00000001800bcc20 f   libPNG:pngwrite.obj
 0001:000bbc50       png_set_text_compression_window_bits 00000001800bcc50 f   libPNG:pngwrite.obj
 0001:000bbce0       png_set_text_compression_method 00000001800bcce0 f   libPNG:pngwrite.obj
 0001:000bbd40       png_set_write_status_fn    00000001800bcd40 f   libPNG:pngwrite.obj
 0001:000bbd70       png_set_write_user_transform_fn 00000001800bcd70 f   libPNG:pngwrite.obj
 0001:000bbdc0       png_write_png              00000001800bcdc0 f   libPNG:pngwrite.obj
 0001:000bbfa0       png_image_write_to_file    00000001800bcfa0 f   libPNG:pngwrite.obj
 0001:000bc150       png_image_write_to_stdio   00000001800bd150 f   libPNG:pngwrite.obj
 0001:000be460       png_set_write_fn           00000001800bf460 f   libPNG:pngwio.obj
 0001:000be550       png_default_write_data     00000001800bf550 f   libPNG:pngwio.obj
 0001:000be5e0       png_default_flush          00000001800bf5e0 f   libPNG:pngwio.obj
 0001:000be630       png_write_data             00000001800bf630 f   libPNG:pngwio.obj
 0001:000be6a0       png_flush                  00000001800bf6a0 f   libPNG:pngwio.obj
 0001:000be6f0       png_set_compression_buffer_size 00000001800bf6f0 f   libPNG:pngset.obj
 0001:000be830       png_set_read_user_chunk_fn 00000001800bf830 f   libPNG:pngset.obj
 0001:000be880       png_set_benign_errors      00000001800bf880 f   libPNG:pngset.obj
 0001:000be8e0       png_set_rows               00000001800bf8e0 f   libPNG:pngset.obj
 0001:000be990       png_set_bKGD               00000001800bf990 f   libPNG:pngset.obj
 0001:000be9f0       png_set_cHRM               00000001800bf9f0 f   libPNG:pngset.obj
 0001:000beb90       png_set_cHRM_XYZ           00000001800bfb90 f   libPNG:pngset.obj
 0001:000bed50       png_set_cHRM_fixed         00000001800bfd50 f   libPNG:pngset.obj
 0001:000bee90       png_set_cHRM_XYZ_fixed     00000001800bfe90 f   libPNG:pngset.obj
 0001:000befd0       png_set_gAMA               00000001800bffd0 f   libPNG:pngset.obj
 0001:000bf030       png_set_gAMA_fixed         00000001800c0030 f   libPNG:pngset.obj
 0001:000bf0a0       png_set_hIST               00000001800c00a0 f   libPNG:pngset.obj
 0001:000bf1f0       png_set_IHDR               00000001800c01f0 f   libPNG:pngset.obj
 0001:000bf3e0       png_set_oFFs               00000001800c03e0 f   libPNG:pngset.obj
 0001:000bf460       png_set_pCAL               00000001800c0460 f   libPNG:pngset.obj
 0001:000bf830       png_set_pHYs               00000001800c0830 f   libPNG:pngset.obj
 0001:000bf8b0       png_set_PLTE               00000001800c08b0 f   libPNG:pngset.obj
 0001:000bfa50       png_set_sBIT               00000001800c0a50 f   libPNG:pngset.obj
 0001:000bfab0       png_set_sRGB               00000001800c0ab0 f   libPNG:pngset.obj
 0001:000bfb20       png_set_sRGB_gAMA_and_cHRM 00000001800c0b20 f   libPNG:pngset.obj
 0001:000bfbb0       png_set_iCCP               00000001800c0bb0 f   libPNG:pngset.obj
 0001:000bfdd0       png_set_sPLT               00000001800c0dd0 f   libPNG:pngset.obj
 0001:000c0070       png_set_text               00000001800c1070 f   libPNG:pngset.obj
 0001:000c00e0       png_set_tIME               00000001800c10e0 f   libPNG:pngset.obj
 0001:000c01e0       png_set_tRNS               00000001800c11e0 f   libPNG:pngset.obj
 0001:000c03d0       png_set_sCAL               00000001800c13d0 f   libPNG:pngset.obj
 0001:000c0510       png_set_sCAL_fixed         00000001800c1510 f   libPNG:pngset.obj
 0001:000c0640       png_set_sCAL_s             00000001800c1640 f   libPNG:pngset.obj
 0001:000c08b0       png_set_keep_unknown_chunks 00000001800c18b0 f   libPNG:pngset.obj
 0001:000c0bd0       png_set_unknown_chunks     00000001800c1bd0 f   libPNG:pngset.obj
 0001:000c0e20       png_set_unknown_chunk_location 00000001800c1e20 f   libPNG:pngset.obj
 0001:000c0ef0       png_set_invalid            00000001800c1ef0 f   libPNG:pngset.obj
 0001:000c0f40       png_permit_mng_features    00000001800c1f40 f   libPNG:pngset.obj
 0001:000c0f80       png_set_user_limits        00000001800c1f80 f   libPNG:pngset.obj
 0001:000c0fc0       png_set_chunk_cache_max    00000001800c1fc0 f   libPNG:pngset.obj
 0001:000c0ff0       png_set_chunk_malloc_max   00000001800c1ff0 f   libPNG:pngset.obj
 0001:000c1020       png_set_check_for_invalid_index 00000001800c2020 f   libPNG:pngset.obj
 0001:000c1060       png_set_text_2             00000001800c2060 f   libPNG:pngset.obj
 0001:000c1890       png_set_mem_fn             00000001800c2890 f   libPNG:pngmem.obj
 0001:000c18f0       png_get_mem_ptr            00000001800c28f0 f   libPNG:pngmem.obj
 0001:000c1920       png_malloc                 00000001800c2920 f   libPNG:pngmem.obj
 0001:000c1990       png_calloc                 00000001800c2990 f   libPNG:pngmem.obj
 0001:000c1a00       png_malloc_warn            00000001800c2a00 f   libPNG:pngmem.obj
 0001:000c1a70       png_free                   00000001800c2a70 f   libPNG:pngmem.obj
 0001:000c1af0       png_malloc_default         00000001800c2af0 f   libPNG:pngmem.obj
 0001:000c1b60       png_free_default           00000001800c2b60 f   libPNG:pngmem.obj
 0001:000c1bb0       png_malloc_base            00000001800c2bb0 f   libPNG:pngmem.obj
 0001:000c1c30       png_malloc_array           00000001800c2c30 f   libPNG:pngmem.obj
 0001:000c1ca0       png_realloc_array          00000001800c2ca0 f   libPNG:pngmem.obj
 0001:000c1dc0       png_destroy_png_struct     00000001800c2dc0 f   libPNG:pngmem.obj
 0001:000c1ef0       png_get_uint_32            00000001800c2ef0 f   libPNG:pngrutil.obj
 0001:000c1f60       png_get_uint_16            00000001800c2f60 f   libPNG:pngrutil.obj
 0001:000c1fb0       png_get_int_32             00000001800c2fb0 f   libPNG:pngrutil.obj
 0001:000c2030       png_get_uint_31            00000001800c3030 f   libPNG:pngrutil.obj
 0001:000c20c0       png_read_sig               00000001800c30c0 f   libPNG:pngrutil.obj
 0001:000c2200       png_read_chunk_header      00000001800c3200 f   libPNG:pngrutil.obj
 0001:000c2350       png_crc_read               00000001800c3350 f   libPNG:pngrutil.obj
 0001:000c23c0       png_crc_finish             00000001800c33c0 f   libPNG:pngrutil.obj
 0001:000c2550       png_crc_error              00000001800c3550 f   libPNG:pngrutil.obj
 0001:000c2680       png_combine_row            00000001800c3680 f   libPNG:pngrutil.obj
 0001:000c33c0       png_do_read_interlace      00000001800c43c0 f   libPNG:pngrutil.obj
 0001:000c3d90       png_read_filter_row        00000001800c4d90 f   libPNG:pngrutil.obj
 0001:000c3e20       png_read_IDAT_data         00000001800c4e20 f   libPNG:pngrutil.obj
 0001:000c4280       png_read_finish_IDAT       00000001800c5280 f   libPNG:pngrutil.obj
 0001:000c4380       png_read_finish_row        00000001800c5380 f   libPNG:pngrutil.obj
 0001:000c4580       png_read_start_row         00000001800c5580 f   libPNG:pngrutil.obj
 0001:000c4c90       png_handle_IHDR            00000001800c5c90 f   libPNG:pngrutil.obj
 0001:000c5040       png_handle_PLTE            00000001800c6040 f   libPNG:pngrutil.obj
 0001:000c5400       png_handle_IEND            00000001800c6400 f   libPNG:pngrutil.obj
 0001:000c54b0       png_handle_bKGD            00000001800c64b0 f   libPNG:pngrutil.obj
 0001:000c58b0       png_handle_cHRM            00000001800c68b0 f   libPNG:pngrutil.obj
 0001:000c5bd0       png_handle_gAMA            00000001800c6bd0 f   libPNG:pngrutil.obj
 0001:000c5d00       png_handle_hIST            00000001800c6d00 f   libPNG:pngrutil.obj
 0001:000c5f30       png_handle_iCCP            00000001800c6f30 f   libPNG:pngrutil.obj
 0001:000c67d0       png_handle_iTXt            00000001800c77d0 f   libPNG:pngrutil.obj
 0001:000c6cf0       png_handle_oFFs            00000001800c7cf0 f   libPNG:pngrutil.obj
 0001:000c6fb0       png_handle_pCAL            00000001800c7fb0 f   libPNG:pngrutil.obj
 0001:000c7530       png_handle_pHYs            00000001800c8530 f   libPNG:pngrutil.obj
 0001:000c7750       png_handle_sBIT            00000001800c8750 f   libPNG:pngrutil.obj
 0001:000c7a80       png_handle_sCAL            00000001800c8a80 f   libPNG:pngrutil.obj
 0001:000c7e50       png_handle_sPLT            00000001800c8e50 f   libPNG:pngrutil.obj
 0001:000c83c0       png_handle_sRGB            00000001800c93c0 f   libPNG:pngrutil.obj
 0001:000c8550       png_handle_tEXt            00000001800c9550 f   libPNG:pngrutil.obj
 0001:000c8810       png_handle_tIME            00000001800c9810 f   libPNG:pngrutil.obj
 0001:000c8a20       png_handle_tRNS            00000001800c9a20 f   libPNG:pngrutil.obj
 0001:000c8e70       png_handle_zTXt            00000001800c9e70 f   libPNG:pngrutil.obj
 0001:000c9210       png_check_chunk_name       00000001800ca210 f   libPNG:pngrutil.obj
 0001:000c92a0       png_handle_unknown         00000001800ca2a0 f   libPNG:pngrutil.obj
 0001:000cad00       png_write_sig              00000001800cbd00 f   libPNG:pngwutil.obj
 0001:000cadf0       png_write_chunk            00000001800cbdf0 f   libPNG:pngwutil.obj
 0001:000caeb0       png_write_chunk_start      00000001800cbeb0 f   libPNG:pngwutil.obj
 0001:000caf70       png_write_chunk_data       00000001800cbf70 f   libPNG:pngwutil.obj
 0001:000caff0       png_write_chunk_end        00000001800cbff0 f   libPNG:pngwutil.obj
 0001:000cb070       png_save_uint_32           00000001800cc070 f   libPNG:pngwutil.obj
 0001:000cb100       png_save_uint_16           00000001800cc100 f   libPNG:pngwutil.obj
 0001:000cb150       png_free_buffer_list       00000001800cc150 f   libPNG:pngwutil.obj
 0001:000cb1d0       png_write_IHDR             00000001800cc1d0 f   libPNG:pngwutil.obj
 0001:000cb760       png_write_PLTE             00000001800cc760 f   libPNG:pngwutil.obj
 0001:000cb910       png_compress_IDAT          00000001800cc910 f   libPNG:pngwutil.obj
 0001:000cbd00       png_write_IEND             00000001800ccd00 f   libPNG:pngwutil.obj
 0001:000cbd60       png_write_gAMA_fixed       00000001800ccd60 f   libPNG:pngwutil.obj
 0001:000cbdd0       png_write_sBIT             00000001800ccdd0 f   libPNG:pngwutil.obj
 0001:000cbfe0       png_write_cHRM_fixed       00000001800ccfe0 f   libPNG:pngwutil.obj
 0001:000cc120       png_write_sRGB             00000001800cd120 f   libPNG:pngwutil.obj
 0001:000cc1b0       png_write_iCCP             00000001800cd1b0 f   libPNG:pngwutil.obj
 0001:000cc480       png_write_sPLT             00000001800cd480 f   libPNG:pngwutil.obj
 0001:000cc7a0       png_write_tRNS             00000001800cd7a0 f   libPNG:pngwutil.obj
 0001:000cc9b0       png_write_bKGD             00000001800cd9b0 f   libPNG:pngwutil.obj
 0001:000ccbd0       png_write_hIST             00000001800cdbd0 f   libPNG:pngwutil.obj
 0001:000cccb0       png_write_tEXt             00000001800cdcb0 f   libPNG:pngwutil.obj
 0001:000cce40       png_write_zTXt             00000001800cde40 f   libPNG:pngwutil.obj
 0001:000cd070       png_write_iTXt             00000001800ce070 f   libPNG:pngwutil.obj
 0001:000cd440       png_write_oFFs             00000001800ce440 f   libPNG:pngwutil.obj
 0001:000cd510       png_write_pCAL             00000001800ce510 f   libPNG:pngwutil.obj
 0001:000cd850       png_write_pHYs             00000001800ce850 f   libPNG:pngwutil.obj
 0001:000cd920       png_write_tIME             00000001800ce920 f   libPNG:pngwutil.obj
 0001:000cda80       png_write_sCAL_s           00000001800cea80 f   libPNG:pngwutil.obj
 0001:000cdbd0       png_write_finish_row       00000001800cebd0 f   libPNG:pngwutil.obj
 0001:000cdeb0       png_write_start_row        00000001800ceeb0 f   libPNG:pngwutil.obj
 0001:000ce270       png_do_write_interlace     00000001800cf270 f   libPNG:pngwutil.obj
 0001:000ce880       png_write_find_filter      00000001800cf880 f   libPNG:pngwutil.obj
 0001:000d1dc0       png_do_write_transformations 00000001800d2dc0 f   libPNG:pngwtran.obj
 0001:000d3470       cmsCreateProfilePlaceholder 00000001800d4470 f   lcms:cmsio0.obj
 0001:000d3540       cmsGetProfileContextID     00000001800d4540 f   lcms:cmsio0.obj
 0001:000d3590       cmsGetTagCount             00000001800d4590 f   lcms:cmsio0.obj
 0001:000d35e0       cmsGetTagSignature         00000001800d45e0 f   lcms:cmsio0.obj
 0001:000d3640       cmsIsTag                   00000001800d4640 f   lcms:cmsio0.obj
 0001:000d36b0       cmsReadTag                 00000001800d46b0 f   lcms:cmsio0.obj
 0001:000d3ab0       cmsWriteTag                00000001800d4ab0 f   lcms:cmsio0.obj
 0001:000d3f60       cmsLinkTag                 00000001800d4f60 f   lcms:cmsio0.obj
 0001:000d40b0       cmsTagLinkedTo             00000001800d50b0 f   lcms:cmsio0.obj
 0001:000d4120       cmsReadRawTag              00000001800d5120 f   lcms:cmsio0.obj
 0001:000d4600       cmsWriteRawTag             00000001800d5600 f   lcms:cmsio0.obj
 0001:000d4750       cmsGetHeaderFlags          00000001800d5750 f   lcms:cmsio0.obj
 0001:000d4790       cmsGetHeaderAttributes     00000001800d5790 f   lcms:cmsio0.obj
 0001:000d47f0       cmsGetHeaderProfileID      00000001800d57f0 f   lcms:cmsio0.obj
 0001:000d4850       cmsGetHeaderCreationDateTime 00000001800d5850 f   lcms:cmsio0.obj
 0001:000d48b0       cmsGetHeaderRenderingIntent 00000001800d58b0 f   lcms:cmsio0.obj
 0001:000d48f0       cmsSetHeaderFlags          00000001800d58f0 f   lcms:cmsio0.obj
 0001:000d4940       cmsGetHeaderManufacturer   00000001800d5940 f   lcms:cmsio0.obj
 0001:000d4980       cmsSetHeaderManufacturer   00000001800d5980 f   lcms:cmsio0.obj
 0001:000d49d0       cmsGetHeaderCreator        00000001800d59d0 f   lcms:cmsio0.obj
 0001:000d4a10       cmsGetHeaderModel          00000001800d5a10 f   lcms:cmsio0.obj
 0001:000d4a50       cmsSetHeaderModel          00000001800d5a50 f   lcms:cmsio0.obj
 0001:000d4aa0       cmsSetHeaderAttributes     00000001800d5aa0 f   lcms:cmsio0.obj
 0001:000d4b00       cmsSetHeaderProfileID      00000001800d5b00 f   lcms:cmsio0.obj
 0001:000d4b60       cmsSetHeaderRenderingIntent 00000001800d5b60 f   lcms:cmsio0.obj
 0001:000d4bb0       cmsGetPCS                  00000001800d5bb0 f   lcms:cmsio0.obj
 0001:000d4bf0       cmsSetPCS                  00000001800d5bf0 f   lcms:cmsio0.obj
 0001:000d4c40       cmsGetColorSpace           00000001800d5c40 f   lcms:cmsio0.obj
 0001:000d4c80       cmsSetColorSpace           00000001800d5c80 f   lcms:cmsio0.obj
 0001:000d4cd0       cmsGetDeviceClass          00000001800d5cd0 f   lcms:cmsio0.obj
 0001:000d4d10       cmsSetDeviceClass          00000001800d5d10 f   lcms:cmsio0.obj
 0001:000d4d60       cmsSetProfileVersion       00000001800d5d60 f   lcms:cmsio0.obj
 0001:000d4de0       cmsGetProfileVersion       00000001800d5de0 f   lcms:cmsio0.obj
 0001:000d4e50       cmsGetEncodedICCversion    00000001800d5e50 f   lcms:cmsio0.obj
 0001:000d4e90       cmsSetEncodedICCversion    00000001800d5e90 f   lcms:cmsio0.obj
 0001:000d4ee0       cmsOpenIOhandlerFromFile   00000001800d5ee0 f   lcms:cmsio0.obj
 0001:000d5180       cmsOpenIOhandlerFromStream 00000001800d6180 f   lcms:cmsio0.obj
 0001:000d5290       cmsOpenIOhandlerFromMem    00000001800d6290 f   lcms:cmsio0.obj
 0001:000d55a0       cmsOpenIOhandlerFromNULL   00000001800d65a0 f   lcms:cmsio0.obj
 0001:000d56f0       cmsCloseIOhandler          00000001800d66f0 f   lcms:cmsio0.obj
 0001:000d5730       cmsOpenProfileFromFile     00000001800d6730 f   lcms:cmsio0.obj
 0001:000d5770       cmsOpenProfileFromFileTHR  00000001800d6770 f   lcms:cmsio0.obj
 0001:000d5850       cmsOpenProfileFromStream   00000001800d6850 f   lcms:cmsio0.obj
 0001:000d5890       cmsOpenProfileFromStreamTHR 00000001800d6890 f   lcms:cmsio0.obj
 0001:000d5960       cmsOpenProfileFromMem      00000001800d6960 f   lcms:cmsio0.obj
 0001:000d59a0       cmsOpenProfileFromMemTHR   00000001800d69a0 f   lcms:cmsio0.obj
 0001:000d5a50       cmsOpenProfileFromIOhandlerTHR 00000001800d6a50 f   lcms:cmsio0.obj
 0001:000d5ae0       cmsOpenProfileFromIOhandler2THR 00000001800d6ae0 f   lcms:cmsio0.obj
 0001:000d5b90       cmsCloseProfile            00000001800d6b90 f   lcms:cmsio0.obj
 0001:000d5d70       cmsSaveProfileToFile       00000001800d6d70 f   lcms:cmsio0.obj
 0001:000d5e30       cmsSaveProfileToStream     00000001800d6e30 f   lcms:cmsio0.obj
 0001:000d5ee0       cmsSaveProfileToMem        00000001800d6ee0 f   lcms:cmsio0.obj
 0001:000d6000       cmsSaveProfileToIOhandler  00000001800d7000 f   lcms:cmsio0.obj
 0001:000d6220       _cmsReadHeader             00000001800d7220 f   lcms:cmsio0.obj
 0001:000d6690       _cmsWriteHeader            00000001800d7690 f   lcms:cmsio0.obj
 0001:000d6a50       _cmsSearchTag              00000001800d7a50 f   lcms:cmsio0.obj
 0001:000d6ae0       _cmsGetTagTrueType         00000001800d7ae0 f   lcms:cmsio0.obj
 0001:000d7d30       cmsCreateTransformTHR      00000001800d8d30 f   lcms:cmsxform.obj
 0001:000d7e10       cmsCreateTransform         00000001800d8e10 f   lcms:cmsxform.obj
 0001:000d7e90       cmsCreateProofingTransformTHR 00000001800d8e90 f   lcms:cmsxform.obj
 0001:000d81a0       cmsCreateProofingTransform 00000001800d91a0 f   lcms:cmsxform.obj
 0001:000d8230       cmsCreateMultiprofileTransformTHR 00000001800d9230 f   lcms:cmsxform.obj
 0001:000d8400       cmsCreateMultiprofileTransform 00000001800d9400 f   lcms:cmsxform.obj
 0001:000d84b0       cmsCreateExtendedTransform 00000001800d94b0 f   lcms:cmsxform.obj
 0001:000d8b00       cmsDeleteTransform         00000001800d9b00 f   lcms:cmsxform.obj
 0001:000d8c40       cmsDoTransform             00000001800d9c40 f   lcms:cmsxform.obj
 0001:000d8cb0       cmsDoTransformStride       00000001800d9cb0 f   lcms:cmsxform.obj
 0001:000d8d20       cmsSetAlarmCodes           00000001800d9d20 f   lcms:cmsxform.obj
 0001:000d8d80       cmsGetAlarmCodes           00000001800d9d80 f   lcms:cmsxform.obj
 0001:000d8de0       cmsSetAlarmCodesTHR        00000001800d9de0 f   lcms:cmsxform.obj
 0001:000d8e70       cmsGetAlarmCodesTHR        00000001800d9e70 f   lcms:cmsxform.obj
 0001:000d8f00       cmsSetAdaptationState      00000001800d9f00 f   lcms:cmsxform.obj
 0001:000d8f40       cmsSetAdaptationStateTHR   00000001800d9f40 f   lcms:cmsxform.obj
 0001:000d8fc0       cmsGetTransformContextID   00000001800d9fc0 f   lcms:cmsxform.obj
 0001:000d9010       cmsGetTransformInputFormat 00000001800da010 f   lcms:cmsxform.obj
 0001:000d9060       cmsGetTransformOutputFormat 00000001800da060 f   lcms:cmsxform.obj
 0001:000d90b0       cmsChangeBuffersFormat     00000001800da0b0 f   lcms:cmsxform.obj
 0001:000d91f0       _cmsSetTransformUserData   00000001800da1f0 f   lcms:cmsxform.obj
 0001:000d9270       _cmsGetTransformUserData   00000001800da270 f   lcms:cmsxform.obj
 0001:000d92d0       _cmsGetTransformFormatters16 00000001800da2d0 f   lcms:cmsxform.obj
 0001:000d9360       _cmsGetTransformFormattersFloat 00000001800da360 f   lcms:cmsxform.obj
 0001:000d93f0       _cmsRegisterTransformPlugin 00000001800da3f0 f   lcms:cmsxform.obj
 0001:000d94c0       _cmsAllocAlarmCodesChunk   00000001800da4c0 f   lcms:cmsxform.obj
 0001:000d9550       _cmsAllocAdaptationStateChunk 00000001800da550 f   lcms:cmsxform.obj
 0001:000d95e0       _cmsAllocTransformPluginChunk 00000001800da5e0 f   lcms:cmsxform.obj
 0001:000dac80       cmsstrcasecmp              00000001800dbc80 f   lcms:cmserr.obj
 0001:000dad80       cmsfilelength              00000001800dbd80 f   lcms:cmserr.obj
 0001:000dae00       cmsSetLogErrorHandler      00000001800dbe00 f   lcms:cmserr.obj
 0001:000dae40       cmsSetLogErrorHandlerTHR   00000001800dbe40 f   lcms:cmserr.obj
 0001:000daec0       cmsSignalError             00000001800dbec0 f   lcms:cmserr.obj
 0001:000dafb0       _cmsMalloc                 00000001800dbfb0 f   lcms:cmserr.obj
 0001:000db010       _cmsMallocZero             00000001800dc010 f   lcms:cmserr.obj
 0001:000db070       _cmsCalloc                 00000001800dc070 f   lcms:cmserr.obj
 0001:000db0d0       _cmsRealloc                00000001800dc0d0 f   lcms:cmserr.obj
 0001:000db130       _cmsFree                   00000001800dc130 f   lcms:cmserr.obj
 0001:000db190       _cmsDupMem                 00000001800dc190 f   lcms:cmserr.obj
 0001:000db1f0       _cmsCreateMutex            00000001800dc1f0 f   lcms:cmserr.obj
 0001:000db250       _cmsDestroyMutex           00000001800dc250 f   lcms:cmserr.obj
 0001:000db2c0       _cmsLockMutex              00000001800dc2c0 f   lcms:cmserr.obj
 0001:000db330       _cmsUnlockMutex            00000001800dc330 f   lcms:cmserr.obj
 0001:000db3a0       _cmsRegisterMemHandlerPlugin 00000001800dc3a0 f   lcms:cmserr.obj
 0001:000db480       _cmsRegisterMutexPlugin    00000001800dc480 f   lcms:cmserr.obj
 0001:000db5a0       _cmsCreateSubAlloc         00000001800dc5a0 f   lcms:cmserr.obj
 0001:000db640       _cmsSubAllocDestroy        00000001800dc640 f   lcms:cmserr.obj
 0001:000db6e0       _cmsSubAlloc               00000001800dc6e0 f   lcms:cmserr.obj
 0001:000db7f0       _cmsSubAllocDup            00000001800dc7f0 f   lcms:cmserr.obj
 0001:000db870       _cmsInstallAllocFunctions  00000001800dc870 f   lcms:cmserr.obj
 0001:000db990       _cmsAllocLogErrorChunk     00000001800dc990 f   lcms:cmserr.obj
 0001:000dba20       _cmsAllocMemPluginChunk    00000001800dca20 f   lcms:cmserr.obj
 0001:000dbae0       _cmsAllocMutexPluginChunk  00000001800dcae0 f   lcms:cmserr.obj
 0001:000dbb70       _cmsTagSignature2String    00000001800dcb70 f   lcms:cmserr.obj
 0001:000dc0b0       _cmsDestroyMutexPrimitive  00000001800dd0b0 f i lcms:cmserr.obj
 0001:000dc0f0       _cmsInitMutexPrimitive     00000001800dd0f0 f i lcms:cmserr.obj
 0001:000dc130       _cmsLockPrimitive          00000001800dd130 f i lcms:cmserr.obj
 0001:000dc170       _cmsUnlockPrimitive        00000001800dd170 f i lcms:cmserr.obj
 0001:000dc1b0       cmsD50_XYZ                 00000001800dd1b0 f   lcms:cmswtpnt.obj
 0001:000dc1d0       cmsD50_xyY                 00000001800dd1d0 f   lcms:cmswtpnt.obj
 0001:000dc210       cmsWhitePointFromTemp      00000001800dd210 f   lcms:cmswtpnt.obj
 0001:000dc450       cmsTempFromWhitePoint      00000001800dd450 f   lcms:cmswtpnt.obj
 0001:000dc730       cmsAdaptToIlluminant       00000001800dd730 f   lcms:cmswtpnt.obj
 0001:000dc940       _cmsAdaptationMatrix       00000001800dd940 f   lcms:cmswtpnt.obj
 0001:000dca80       _cmsBuildRGB2XYZtransferMatrix 00000001800dda80 f   lcms:cmswtpnt.obj
 0001:000dd230       cmsCreateContext           00000001800de230 f   lcms:cmsplugin.obj
 0001:000dd490       cmsDeleteContext           00000001800de490 f   lcms:cmsplugin.obj
 0001:000dd620       cmsDupContext              00000001800de620 f   lcms:cmsplugin.obj
 0001:000dd890       cmsGetContextUserData      00000001800de890 f   lcms:cmsplugin.obj
 0001:000dd8d0       cmsPlugin                  00000001800de8d0 f   lcms:cmsplugin.obj
 0001:000dd910       cmsPluginTHR               00000001800de910 f   lcms:cmsplugin.obj
 0001:000ddbf0       cmsUnregisterPlugins       00000001800debf0 f   lcms:cmsplugin.obj
 0001:000ddc20       cmsUnregisterPluginsTHR    00000001800dec20 f   lcms:cmsplugin.obj
 0001:000ddcd0       _cmsAdjustEndianess16      00000001800decd0 f   lcms:cmsplugin.obj
 0001:000ddd60       _cmsAdjustEndianess32      00000001800ded60 f   lcms:cmsplugin.obj
 0001:000dde00       _cmsAdjustEndianess64      00000001800dee00 f   lcms:cmsplugin.obj
 0001:000ddf90       _cmsReadUInt8Number        00000001800def90 f   lcms:cmsplugin.obj
 0001:000de050       _cmsReadUInt16Number       00000001800df050 f   lcms:cmsplugin.obj
 0001:000de110       _cmsReadUInt32Number       00000001800df110 f   lcms:cmsplugin.obj
 0001:000de1d0       _cmsReadFloat32Number      00000001800df1d0 f   lcms:cmsplugin.obj
 0001:000de2a0       _cmsReadUInt64Number       00000001800df2a0 f   lcms:cmsplugin.obj
 0001:000de360       _cmsRead15Fixed16Number    00000001800df360 f   lcms:cmsplugin.obj
 0001:000de420       _cmsReadXYZNumber          00000001800df420 f   lcms:cmsplugin.obj
 0001:000de540       _cmsReadUInt16Array        00000001800df540 f   lcms:cmsplugin.obj
 0001:000de610       _cmsWriteUInt8Number       00000001800df610 f   lcms:cmsplugin.obj
 0001:000de690       _cmsWriteUInt16Number      00000001800df690 f   lcms:cmsplugin.obj
 0001:000de740       _cmsWriteUInt32Number      00000001800df740 f   lcms:cmsplugin.obj
 0001:000de7f0       _cmsWriteFloat32Number     00000001800df7f0 f   lcms:cmsplugin.obj
 0001:000de8a0       _cmsWriteUInt64Number      00000001800df8a0 f   lcms:cmsplugin.obj
 0001:000de950       _cmsWrite15Fixed16Number   00000001800df950 f   lcms:cmsplugin.obj
 0001:000dea00       _cmsWriteXYZNumber         00000001800dfa00 f   lcms:cmsplugin.obj
 0001:000deb20       _cmsWriteUInt16Array       00000001800dfb20 f   lcms:cmsplugin.obj
 0001:000debf0       _cmsReadTypeBase           00000001800dfbf0 f   lcms:cmsplugin.obj
 0001:000decb0       _cmsWriteTypeBase          00000001800dfcb0 f   lcms:cmsplugin.obj
 0001:000ded80       _cmsReadAlignment          00000001800dfd80 f   lcms:cmsplugin.obj
 0001:000dee80       _cmsWriteAlignment         00000001800dfe80 f   lcms:cmsplugin.obj
 0001:000def70       _cmsIOPrintf               00000001800dff70 f   lcms:cmsplugin.obj
 0001:000df0c0       _cms8Fixed8toDouble        00000001800e00c0 f   lcms:cmsplugin.obj
 0001:000df130       _cmsDoubleTo8Fixed8        00000001800e0130 f   lcms:cmsplugin.obj
 0001:000df180       _cms15Fixed16toDouble      00000001800e0180 f   lcms:cmsplugin.obj
 0001:000df230       _cmsDoubleTo15Fixed16      00000001800e0230 f   lcms:cmsplugin.obj
 0001:000df280       _cmsEncodeDateTimeNumber   00000001800e0280 f   lcms:cmsplugin.obj
 0001:000df3a0       _cmsDecodeDateTimeNumber   00000001800e03a0 f   lcms:cmsplugin.obj
 0001:000df4f0       _cmsPluginMalloc           00000001800e04f0 f   lcms:cmsplugin.obj
 0001:000df590       _cmsGetContext             00000001800e0590 f   lcms:cmsplugin.obj
 0001:000df620       _cmsContextGetClientChunk  00000001800e0620 f   lcms:cmsplugin.obj
 0001:000df7e0       _cmsEnterCriticalSectionPrimitive 00000001800e07e0 f i lcms:cmsplugin.obj
 0001:000df820       _cmsLeaveCriticalSectionPrimitive 00000001800e0820 f i lcms:cmsplugin.obj
 0001:000df860       _cmsRegisterTagTypePlugin  00000001800e0860 f   lcms:cmstypes.obj
 0001:000df8b0       _cmsRegisterTagPlugin      00000001800e08b0 f   lcms:cmstypes.obj
 0001:000df990       _cmsRegisterMultiProcessElementPlugin 00000001800e0990 f   lcms:cmstypes.obj
 0001:000df9e0       _cmsAllocTagTypePluginChunk 00000001800e09e0 f   lcms:cmstypes.obj
 0001:000dfa60       _cmsAllocMPETypePluginChunk 00000001800e0a60 f   lcms:cmstypes.obj
 0001:000dfae0       _cmsAllocTagPluginChunk    00000001800e0ae0 f   lcms:cmstypes.obj
 0001:000dfb60       _cmsGetTagTypeHandler      00000001800e0b60 f   lcms:cmstypes.obj
 0001:000dfbc0       _cmsGetTagDescriptor       00000001800e0bc0 f   lcms:cmstypes.obj
 0001:000ede00       _cmsQuickFloor             00000001800eee00 f i lcms:cmstypes.obj
 0001:000ede80       _cmsQuickFloorWord         00000001800eee80 f i lcms:cmstypes.obj
 0001:000edec0       _cmsQuickSaturateWord      00000001800eeec0 f i lcms:cmstypes.obj
 0001:000edf30       cmsPipelineAlloc           00000001800eef30 f   lcms:cmslut.obj
 0001:000ee020       cmsPipelineFree            00000001800ef020 f   lcms:cmslut.obj
 0001:000ee0d0       cmsPipelineDup             00000001800ef0d0 f   lcms:cmslut.obj
 0001:000ee270       cmsGetPipelineContextID    00000001800ef270 f   lcms:cmslut.obj
 0001:000ee2d0       cmsPipelineInputChannels   00000001800ef2d0 f   lcms:cmslut.obj
 0001:000ee330       cmsPipelineOutputChannels  00000001800ef330 f   lcms:cmslut.obj
 0001:000ee390       cmsPipelineStageCount      00000001800ef390 f   lcms:cmslut.obj
 0001:000ee400       cmsPipelineGetPtrToFirstStage 00000001800ef400 f   lcms:cmslut.obj
 0001:000ee420       cmsPipelineGetPtrToLastStage 00000001800ef420 f   lcms:cmslut.obj
 0001:000ee490       cmsPipelineEval16          00000001800ef490 f   lcms:cmslut.obj
 0001:000ee510       cmsPipelineEvalFloat       00000001800ef510 f   lcms:cmslut.obj
 0001:000ee590       cmsPipelineEvalReverseFloat 00000001800ef590 f   lcms:cmslut.obj
 0001:000eeb80       cmsPipelineCat             00000001800efb80 f   lcms:cmslut.obj
 0001:000eec40       cmsPipelineSetSaveAs8bitsFlag 00000001800efc40 f   lcms:cmslut.obj
 0001:000eec90       cmsPipelineInsertStage     00000001800efc90 f   lcms:cmslut.obj
 0001:000eeda0       cmsPipelineUnlinkStage     00000001800efda0 f   lcms:cmslut.obj
 0001:000eef00       cmsPipelineCheckAndRetreiveStages 00000001800eff00 f   lcms:cmslut.obj
 0001:000ef060       cmsStageAllocIdentity      00000001800f0060 f   lcms:cmslut.obj
 0001:000ef0d0       cmsStageAllocToneCurves    00000001800f00d0 f   lcms:cmslut.obj
 0001:000ef280       cmsStageAllocMatrix        00000001800f0280 f   lcms:cmslut.obj
 0001:000ef4d0       cmsStageAllocCLut16bit     00000001800f04d0 f   lcms:cmslut.obj
 0001:000ef5a0       cmsStageAllocCLutFloat     00000001800f05a0 f   lcms:cmslut.obj
 0001:000ef670       cmsStageAllocCLut16bitGranular 00000001800f0670 f   lcms:cmslut.obj
 0001:000ef8e0       cmsStageAllocCLutFloatGranular 00000001800f08e0 f   lcms:cmslut.obj
 0001:000efb50       cmsStageDup                00000001800f0b50 f   lcms:cmslut.obj
 0001:000efc60       cmsStageFree               00000001800f0c60 f   lcms:cmslut.obj
 0001:000efcc0       cmsStageNext               00000001800f0cc0 f   lcms:cmslut.obj
 0001:000efce0       cmsStageInputChannels      00000001800f0ce0 f   lcms:cmslut.obj
 0001:000efd00       cmsStageOutputChannels     00000001800f0d00 f   lcms:cmslut.obj
 0001:000efd20       cmsStageType               00000001800f0d20 f   lcms:cmslut.obj
 0001:000efd40       cmsStageData               00000001800f0d40 f   lcms:cmslut.obj
 0001:000efd60       cmsStageSampleCLut16bit    00000001800f0d60 f   lcms:cmslut.obj
 0001:000f0080       cmsStageSampleCLutFloat    00000001800f1080 f   lcms:cmslut.obj
 0001:000f03a0       cmsSliceSpace16            00000001800f13a0 f   lcms:cmslut.obj
 0001:000f0540       cmsSliceSpaceFloat         00000001800f1540 f   lcms:cmslut.obj
 0001:000f0710       _cmsStageAllocPlaceholder  00000001800f1710 f   lcms:cmslut.obj
 0001:000f07f0       _cmsPipelineSetOptimizationParameters 00000001800f17f0 f   lcms:cmslut.obj
 0001:000f0850       _cmsStageAllocLab2XYZ      00000001800f1850 f   lcms:cmslut.obj
 0001:000f08c0       _cmsStageAllocXYZ2Lab      00000001800f18c0 f   lcms:cmslut.obj
 0001:000f0930       _cmsStageAllocLabPrelin    00000001800f1930 f   lcms:cmslut.obj
 0001:000f0a30       _cmsStageAllocLabV2ToV4    00000001800f1a30 f   lcms:cmslut.obj
 0001:000f0ab0       _cmsStageAllocLabV2ToV4curves 00000001800f1ab0 f   lcms:cmslut.obj
 0001:000f0c70       _cmsStageAllocLabV4ToV2    00000001800f1c70 f   lcms:cmslut.obj
 0001:000f0cf0       _cmsStageAllocIdentityCurves 00000001800f1cf0 f   lcms:cmslut.obj
 0001:000f0d60       _cmsStageAllocIdentityCLut 00000001800f1d60 f   lcms:cmslut.obj
 0001:000f0e80       _cmsStageNormalizeFromLabFloat 00000001800f1e80 f   lcms:cmslut.obj
 0001:000f0f00       _cmsStageNormalizeFromXyzFloat 00000001800f1f00 f   lcms:cmslut.obj
 0001:000f0f80       _cmsStageNormalizeToLabFloat 00000001800f1f80 f   lcms:cmslut.obj
 0001:000f1000       _cmsStageNormalizeToXyzFloat 00000001800f2000 f   lcms:cmslut.obj
 0001:000f1080       _cmsStageGetPtrToCurveSet  00000001800f2080 f   lcms:cmslut.obj
 0001:000f10c0       _cmsQuantizeVal            00000001800f20c0 f   lcms:cmslut.obj
 0001:000f25b0       cmsMLUalloc                00000001800f35b0 f   lcms:cmsnamed.obj
 0001:000f2680       cmsMLUfree                 00000001800f3680 f   lcms:cmsnamed.obj
 0001:000f2710       cmsMLUdup                  00000001800f3710 f   lcms:cmsnamed.obj
 0001:000f28b0       cmsMLUsetASCII             00000001800f38b0 f   lcms:cmsnamed.obj
 0001:000f29e0       cmsMLUsetWide              00000001800f39e0 f   lcms:cmsnamed.obj
 0001:000f2a90       cmsMLUgetASCII             00000001800f3a90 f   lcms:cmsnamed.obj
 0001:000f2c40       cmsMLUgetWide              00000001800f3c40 f   lcms:cmsnamed.obj
 0001:000f2da0       cmsMLUgetTranslation       00000001800f3da0 f   lcms:cmsnamed.obj
 0001:000f2ed0       cmsMLUtranslationsCount    00000001800f3ed0 f   lcms:cmsnamed.obj
 0001:000f2f00       cmsMLUtranslationsCodes    00000001800f3f00 f   lcms:cmsnamed.obj
 0001:000f2fa0       cmsAllocNamedColorList     00000001800f3fa0 f   lcms:cmsnamed.obj
 0001:000f30b0       cmsFreeNamedColorList      00000001800f40b0 f   lcms:cmsnamed.obj
 0001:000f3120       cmsDupNamedColorList       00000001800f4120 f   lcms:cmsnamed.obj
 0001:000f3260       cmsAppendNamedColor        00000001800f4260 f   lcms:cmsnamed.obj
 0001:000f3450       cmsNamedColorCount         00000001800f4450 f   lcms:cmsnamed.obj
 0001:000f3480       cmsNamedColorIndex         00000001800f4480 f   lcms:cmsnamed.obj
 0001:000f3530       cmsNamedColorInfo          00000001800f4530 f   lcms:cmsnamed.obj
 0001:000f3680       cmsGetNamedColorList       00000001800f4680 f   lcms:cmsnamed.obj
 0001:000f36e0       cmsAllocProfileSequenceDescription 00000001800f46e0 f   lcms:cmsnamed.obj
 0001:000f3820       cmsDupProfileSequenceDescription 00000001800f4820 f   lcms:cmsnamed.obj
 0001:000f3aa0       cmsFreeProfileSequenceDescription 00000001800f4aa0 f   lcms:cmsnamed.obj
 0001:000f3bd0       cmsDictAlloc               00000001800f4bd0 f   lcms:cmsnamed.obj
 0001:000f3c30       cmsDictFree                00000001800f4c30 f   lcms:cmsnamed.obj
 0001:000f3d70       cmsDictDup                 00000001800f4d70 f   lcms:cmsnamed.obj
 0001:000f3e60       cmsDictAddEntry            00000001800f4e60 f   lcms:cmsnamed.obj
 0001:000f3fa0       cmsDictGetEntryList        00000001800f4fa0 f   lcms:cmsnamed.obj
 0001:000f3ff0       cmsDictNextEntry           00000001800f4ff0 f   lcms:cmsnamed.obj
 0001:000f4020       _cmsStageAllocNamedColor   00000001800f5020 f   lcms:cmsnamed.obj
 0001:000f4b20       cmsXYZ2xyY                 00000001800f5b20 f   lcms:cmspcs.obj
 0001:000f4bd0       cmsxyY2XYZ                 00000001800f5bd0 f   lcms:cmspcs.obj
 0001:000f4c60       cmsXYZ2Lab                 00000001800f5c60 f   lcms:cmspcs.obj
 0001:000f4d70       cmsLab2XYZ                 00000001800f5d70 f   lcms:cmspcs.obj
 0001:000f4e80       cmsLab2LCh                 00000001800f5e80 f   lcms:cmspcs.obj
 0001:000f4f30       cmsLCh2Lab                 00000001800f5f30 f   lcms:cmspcs.obj
 0001:000f4fe0       cmsLabEncoded2Float        00000001800f5fe0 f   lcms:cmspcs.obj
 0001:000f5080       cmsLabEncoded2FloatV2      00000001800f6080 f   lcms:cmspcs.obj
 0001:000f5120       cmsFloat2LabEncoded        00000001800f6120 f   lcms:cmspcs.obj
 0001:000f5210       cmsFloat2LabEncodedV2      00000001800f6210 f   lcms:cmspcs.obj
 0001:000f5300       cmsXYZEncoded2Float        00000001800f6300 f   lcms:cmspcs.obj
 0001:000f53a0       cmsFloat2XYZEncoded        00000001800f63a0 f   lcms:cmspcs.obj
 0001:000f5540       cmsDeltaE                  00000001800f6540 f   lcms:cmspcs.obj
 0001:000f5620       cmsCIE94DeltaE             00000001800f6620 f   lcms:cmspcs.obj
 0001:000f58e0       cmsBFDdeltaE               00000001800f68e0 f   lcms:cmspcs.obj
 0001:000f5ff0       cmsCMCdeltaE               00000001800f6ff0 f   lcms:cmspcs.obj
 0001:000f6470       cmsCIE2000DeltaE           00000001800f7470 f   lcms:cmspcs.obj
 0001:000f6e20       _cmsICCcolorSpace          00000001800f7e20 f   lcms:cmspcs.obj
 0001:000f6fd0       _cmsLCMScolorSpace         00000001800f7fd0 f   lcms:cmspcs.obj
 0001:000f7320       cmsChannelsOf              00000001800f8320 f   lcms:cmspcs.obj
 0001:000f75f0       _cmsReasonableGridpointsByColorspace 00000001800f85f0 f   lcms:cmspcs.obj
 0001:000f76d0       _cmsEndPointsBySpace       00000001800f86d0 f   lcms:cmspcs.obj
 0001:000f8070       cmsGetSupportedIntents     00000001800f9070 f   lcms:cmscnvrt.obj
 0001:000f80c0       cmsGetSupportedIntentsTHR  00000001800f90c0 f   lcms:cmscnvrt.obj
 0001:000f8210       _cmsDefaultICCintents      00000001800f9210 f   lcms:cmscnvrt.obj
 0001:000f8280       _cmsRegisterRenderingIntentPlugin 00000001800f9280 f   lcms:cmscnvrt.obj
 0001:000f8390       _cmsAllocIntentsPluginChunk 00000001800f9390 f   lcms:cmscnvrt.obj
 0001:000f8410       _cmsLinkProfiles           00000001800f9410 f   lcms:cmscnvrt.obj
 0001:000facc0       cmsIsIntentSupported       00000001800fbcc0 f   lcms:cmsio1.obj
 0001:000fad20       cmsIsMatrixShaper          00000001800fbd20 f   lcms:cmsio1.obj
 0001:000fae20       cmsIsCLUT                  00000001800fbe20 f   lcms:cmsio1.obj
 0001:000faf50       cmsGetProfileInfo          00000001800fbf50 f   lcms:cmsio1.obj
 0001:000fafd0       cmsGetProfileInfoASCII     00000001800fbfd0 f   lcms:cmsio1.obj
 0001:000fb050       _cmsReadInputLUT           00000001800fc050 f   lcms:cmsio1.obj
 0001:000fb2e0       _cmsReadOutputLUT          00000001800fc2e0 f   lcms:cmsio1.obj
 0001:000fb4e0       _cmsReadDevicelinkLUT      00000001800fc4e0 f   lcms:cmsio1.obj
 0001:000fb7c0       _cmsReadMediaWhitePoint    00000001800fc7c0 f   lcms:cmsio1.obj
 0001:000fb8b0       _cmsReadCHAD               00000001800fc8b0 f   lcms:cmsio1.obj
 0001:000fb9c0       _cmsReadProfileSequence    00000001800fc9c0 f   lcms:cmsio1.obj
 0001:000fbb30       _cmsWriteProfileSequence   00000001800fcb30 f   lcms:cmsio1.obj
 0001:000fbbb0       _cmsCompileProfileSequence 00000001800fcbb0 f   lcms:cmsio1.obj
 0001:000fceb0       _cmsRegisterOptimizationPlugin 00000001800fdeb0 f   lcms:cmsopt.obj
 0001:000fcf80       _cmsAllocOptimizationPluginChunk 00000001800fdf80 f   lcms:cmsopt.obj
 0001:000fd000       _cmsOptimizePipeline       00000001800fe000 f   lcms:cmsopt.obj
 0001:00102000       _cmsToFixedDomain          0000000180103000 f i lcms:cmsopt.obj
 0001:00102020       cmsDetectTAC               0000000180103020 f   lcms:cmsgmt.obj
 0001:00102210       cmsDesaturateLab           0000000180103210 f   lcms:cmsgmt.obj
 0001:00102590       _cmsCreateGamutCheckPipeline 0000000180103590 f   lcms:cmsgmt.obj
 0001:00102a50       _cmsChain2Lab              0000000180103a50 f   lcms:cmsgmt.obj
 0001:00102ca0       _cmsBuildKToneCurve        0000000180103ca0 f   lcms:cmsgmt.obj
 0001:001035f0       cmsFormatterForColorspaceOfProfile 00000001801045f0 f   lcms:cmspack.obj
 0001:00103690       cmsFormatterForPCSOfProfile 0000000180104690 f   lcms:cmspack.obj
 0001:00103730       _cmsRegisterFormattersPlugin 0000000180104730 f   lcms:cmspack.obj
 0001:001037f0       _cmsAllocFormattersPluginChunk 00000001801047f0 f   lcms:cmspack.obj
 0001:00103890       _cmsFormatterIsFloat       0000000180104890 f   lcms:cmspack.obj
 0001:001038e0       _cmsFormatterIs8bit        00000001801048e0 f   lcms:cmspack.obj
 0001:00103930       _cmsGetFormatter           0000000180104930 f   lcms:cmspack.obj
 0001:0010c420       FomLabV2ToLabV4            000000018010d420 f i lcms:cmspack.obj
 0001:0010c470       FomLabV4ToLabV2            000000018010d470 f i lcms:cmspack.obj
 0001:0010c490       IsInkSpace                 000000018010d490 f i lcms:cmspack.obj
 0001:0010c4f0       _cmsVEC3init               000000018010d4f0 f   lcms:cmsmtrx.obj
 0001:0010c560       _cmsVEC3minus              000000018010d560 f   lcms:cmsmtrx.obj
 0001:0010c630       _cmsVEC3cross              000000018010d630 f   lcms:cmsmtrx.obj
 0001:0010c780       _cmsVEC3dot                000000018010d780 f   lcms:cmsmtrx.obj
 0001:0010c830       _cmsVEC3length             000000018010d830 f   lcms:cmsmtrx.obj
 0001:0010c8e0       _cmsVEC3distance           000000018010d8e0 f   lcms:cmsmtrx.obj
 0001:0010c9d0       _cmsMAT3identity           000000018010d9d0 f   lcms:cmsmtrx.obj
 0001:0010ca80       _cmsMAT3isIdentity         000000018010da80 f   lcms:cmsmtrx.obj
 0001:0010cbb0       _cmsMAT3per                000000018010dbb0 f   lcms:cmsmtrx.obj
 0001:0010d430       _cmsMAT3inverse            000000018010e430 f   lcms:cmsmtrx.obj
 0001:0010dbb0       _cmsMAT3solve              000000018010ebb0 f   lcms:cmsmtrx.obj
 0001:0010dc80       _cmsMAT3eval               000000018010ec80 f   lcms:cmsmtrx.obj
 0001:0010df30       _cmsRegisterInterpPlugin   000000018010ef30 f   lcms:cmsintrp.obj
 0001:0010dfb0       _cmsAllocInterpPluginChunk 000000018010efb0 f   lcms:cmsintrp.obj
 0001:0010e090       _cmsComputeInterpParams    000000018010f090 f   lcms:cmsintrp.obj
 0001:0010e170       _cmsComputeInterpParamsEx  000000018010f170 f   lcms:cmsintrp.obj
 0001:0010e360       _cmsFreeInterpParams       000000018010f360 f   lcms:cmsintrp.obj
 0001:0010e3b0       _cmsSetInterpolationRoutine 000000018010f3b0 f   lcms:cmsintrp.obj
 0001:00113a20       LinearInterp               0000000180114a20 f i lcms:cmsintrp.obj
 0001:00113a80       fclamp                     0000000180114a80 f i lcms:cmsintrp.obj
 0001:00113b00       cmsBuildSegmentedToneCurve 0000000180114b00 f   lcms:cmsgamma.obj
 0001:00113c70       cmsBuildParametricToneCurve 0000000180114c70 f   lcms:cmsgamma.obj
 0001:00113e00       cmsBuildGamma              0000000180114e00 f   lcms:cmsgamma.obj
 0001:00113e50       cmsBuildTabulatedToneCurve16 0000000180114e50 f   lcms:cmsgamma.obj
 0001:00113eb0       cmsBuildTabulatedToneCurveFloat 0000000180114eb0 f   lcms:cmsgamma.obj
 0001:001141a0       cmsFreeToneCurve           00000001801151a0 f   lcms:cmsgamma.obj
 0001:00114310       cmsFreeToneCurveTriple     0000000180115310 f   lcms:cmsgamma.obj
 0001:00114430       cmsDupToneCurve            0000000180115430 f   lcms:cmsgamma.obj
 0001:001144a0       cmsReverseToneCurve        00000001801154a0 f   lcms:cmsgamma.obj
 0001:00114510       cmsReverseToneCurveEx      0000000180115510 f   lcms:cmsgamma.obj
 0001:001148a0       cmsJoinToneCurve           00000001801158a0 f   lcms:cmsgamma.obj
 0001:00114a50       cmsSmoothToneCurve         0000000180115a50 f   lcms:cmsgamma.obj
 0001:00114e30       cmsEvalToneCurveFloat      0000000180115e30 f   lcms:cmsgamma.obj
 0001:00114ef0       cmsEvalToneCurve16         0000000180115ef0 f   lcms:cmsgamma.obj
 0001:00114f90       cmsIsToneCurveMultisegment 0000000180115f90 f   lcms:cmsgamma.obj
 0001:00115010       cmsIsToneCurveLinear       0000000180116010 f   lcms:cmsgamma.obj
 0001:001150e0       cmsIsToneCurveMonotonic    00000001801160e0 f   lcms:cmsgamma.obj
 0001:00115260       cmsIsToneCurveDescending   0000000180116260 f   lcms:cmsgamma.obj
 0001:00115300       cmsGetToneCurveParametricType 0000000180116300 f   lcms:cmsgamma.obj
 0001:00115380       cmsEstimateGamma           0000000180116380 f   lcms:cmsgamma.obj
 0001:00115580       cmsGetToneCurveEstimatedTableEntries 0000000180116580 f   lcms:cmsgamma.obj
 0001:001155e0       cmsGetToneCurveEstimatedTable 00000001801165e0 f   lcms:cmsgamma.obj
 0001:00115640       _cmsRegisterParametricCurvesPlugin 0000000180116640 f   lcms:cmsgamma.obj
 0001:001157a0       _cmsAllocCurvesPluginChunk 00000001801167a0 f   lcms:cmsgamma.obj
 0001:00117d60       cmsCreateRGBProfileTHR     0000000180118d60 f   lcms:cmsvirt.obj
 0001:00118280       cmsCreateRGBProfile        0000000180119280 f   lcms:cmsvirt.obj
 0001:001182d0       cmsCreateGrayProfileTHR    00000001801192d0 f   lcms:cmsvirt.obj
 0001:00118440       cmsCreateGrayProfile       0000000180119440 f   lcms:cmsvirt.obj
 0001:00118480       cmsCreateLinearizationDeviceLinkTHR 0000000180119480 f   lcms:cmsvirt.obj
 0001:001185f0       cmsCreateLinearizationDeviceLink 00000001801195f0 f   lcms:cmsvirt.obj
 0001:00118630       cmsCreateInkLimitingDeviceLinkTHR 0000000180119630 f   lcms:cmsvirt.obj
 0001:001188c0       cmsCreateInkLimitingDeviceLink 00000001801198c0 f   lcms:cmsvirt.obj
 0001:00118900       cmsCreateLab2ProfileTHR    0000000180119900 f   lcms:cmsvirt.obj
 0001:00118a80       cmsCreateLab2Profile       0000000180119a80 f   lcms:cmsvirt.obj
 0001:00118ac0       cmsCreateLab4ProfileTHR    0000000180119ac0 f   lcms:cmsvirt.obj
 0001:00118c30       cmsCreateLab4Profile       0000000180119c30 f   lcms:cmsvirt.obj
 0001:00118c70       cmsCreateXYZProfileTHR     0000000180119c70 f   lcms:cmsvirt.obj
 0001:00118dc0       cmsCreateXYZProfile        0000000180119dc0 f   lcms:cmsvirt.obj
 0001:00118df0       cmsCreate_sRGBProfileTHR   0000000180119df0 f   lcms:cmsvirt.obj
 0001:00118ff0       cmsCreate_sRGBProfile      0000000180119ff0 f   lcms:cmsvirt.obj
 0001:00119020       cmsCreateBCHSWabstractProfileTHR 000000018011a020 f   lcms:cmsvirt.obj
 0001:001192f0       cmsCreateBCHSWabstractProfile 000000018011a2f0 f   lcms:cmsvirt.obj
 0001:00119370       cmsCreateNULLProfileTHR    000000018011a370 f   lcms:cmsvirt.obj
 0001:00119540       cmsCreateNULLProfile       000000018011a540 f   lcms:cmsvirt.obj
 0001:00119570       cmsTransform2DeviceLink    000000018011a570 f   lcms:cmsvirt.obj
 0001:0011a890       cmsDetectBlackPoint        000000018011b890 f   lcms:cmssamp.obj
 0001:0011aa40       cmsDetectDestinationBlackPoint 000000018011ba40 f   lcms:cmssamp.obj
 0001:0011c0e0       _cmsHalf2Float             000000018011d0e0 f   lcms:cmshalf.obj
 0001:0011c180       _cmsFloat2Half             000000018011d180 f   lcms:cmshalf.obj
 0001:0011c220       TIFFCleanup                000000018011d220 f   libTIFF:tif_close.obj
 0001:0011c4a0       TIFFClose                  000000018011d4a0 f   libTIFF:tif_close.obj
 0001:0011c500       TIFFGetField               000000018011d500 f   libTIFF:tif_dir.obj
 0001:0011c580       TIFFVGetField              000000018011d580 f   libTIFF:tif_dir.obj
 0001:0011c640       TIFFNumberOfDirectories    000000018011d640 f   libTIFF:tif_dir.obj
 0001:0011c6f0       TIFFCurrentDirOffset       000000018011d6f0 f   libTIFF:tif_dir.obj
 0001:0011c710       TIFFFreeDirectory          000000018011d710 f   libTIFF:tif_dir.obj
 0001:0011cb80       TIFFCreateDirectory        000000018011db80 f   libTIFF:tif_dir.obj
 0001:0011cc00       TIFFCreateCustomDirectory  000000018011dc00 f   libTIFF:tif_dir.obj
 0001:0011cca0       TIFFCreateEXIFDirectory    000000018011dca0 f   libTIFF:tif_dir.obj
 0001:0011ccf0       TIFFLastDirectory          000000018011dcf0 f   libTIFF:tif_dir.obj
 0001:0011cd40       TIFFSetDirectory           000000018011dd40 f   libTIFF:tif_dir.obj
 0001:0011ce40       TIFFSetSubDirectory        000000018011de40 f   libTIFF:tif_dir.obj
 0001:0011cea0       TIFFUnlinkDirectory        000000018011dea0 f   libTIFF:tif_dir.obj
 0001:0011d2a0       TIFFSetField               000000018011e2a0 f   libTIFF:tif_dir.obj
 0001:0011d320       TIFFVSetField              000000018011e320 f   libTIFF:tif_dir.obj
 0001:0011d390       TIFFUnsetField             000000018011e390 f   libTIFF:tif_dir.obj
 0001:0011d570       TIFFSetTagExtender         000000018011e570 f   libTIFF:tif_dir.obj
 0001:0011d5c0       TIFFDefaultDirectory       000000018011e5c0 f   libTIFF:tif_dir.obj
 0001:0011d7d0       _TIFFsetByteArray          000000018011e7d0 f   libTIFF:tif_dir.obj
 0001:0011d820       _TIFFsetString             000000018011e820 f   libTIFF:tif_dir.obj
 0001:0011d880       _TIFFsetShortArray         000000018011e880 f   libTIFF:tif_dir.obj
 0001:0011d8d0       _TIFFsetLongArray          000000018011e8d0 f   libTIFF:tif_dir.obj
 0001:0011d920       _TIFFsetFloatArray         000000018011e920 f   libTIFF:tif_dir.obj
 0001:0011d970       _TIFFsetDoubleArray        000000018011e970 f   libTIFF:tif_dir.obj
 0001:0011da90       _TIFFsetNString            000000018011ea90 f   libTIFF:tif_dir.obj
 0001:0011dae0       _TIFFsetLong8Array         000000018011eae0 f   libTIFF:tif_dir.obj
 0001:00121d30       TIFFGetFieldDefaulted      0000000180122d30 f   libTIFF:tif_aux.obj
 0001:00121db0       TIFFVGetFieldDefaulted     0000000180122db0 f   libTIFF:tif_aux.obj
 0001:00122650       _TIFFMultiply32            0000000180123650 f   libTIFF:tif_aux.obj
 0001:001226e0       _TIFFMultiply64            00000001801236e0 f   libTIFF:tif_aux.obj
 0001:00122780       _TIFFCheckMalloc           0000000180123780 f   libTIFF:tif_aux.obj
 0001:001227e0       _TIFFCheckRealloc          00000001801237e0 f   libTIFF:tif_aux.obj
 0001:001228b0       _TIFFUInt64ToDouble        00000001801238b0 f   libTIFF:tif_aux.obj
 0001:00122940       _TIFFUInt64ToFloat         0000000180123940 f   libTIFF:tif_aux.obj
 0001:00122f00       TIFFReadDirectory          0000000180123f00 f   libTIFF:tif_dirread.obj
 0001:00124ad0       TIFFReadCustomDirectory    0000000180125ad0 f   libTIFF:tif_dirread.obj
 0001:00124f40       TIFFReadEXIFDirectory      0000000180125f40 f   libTIFF:tif_dirread.obj
 0001:00124f90       _TIFFFillStriles           0000000180125f90 f   libTIFF:tif_dirread.obj
 0001:001311f0       TIFFScanlineSize64         00000001801321f0 f   libTIFF:tif_strip.obj
 0001:00131550       TIFFScanlineSize           0000000180132550 f   libTIFF:tif_strip.obj
 0001:001315d0       TIFFRasterScanlineSize64   00000001801325d0 f   libTIFF:tif_strip.obj
 0001:00131700       TIFFRasterScanlineSize     0000000180132700 f   libTIFF:tif_strip.obj
 0001:00131780       TIFFStripSize64            0000000180132780 f   libTIFF:tif_strip.obj
 0001:001317f0       TIFFStripSize              00000001801327f0 f   libTIFF:tif_strip.obj
 0001:00131870       TIFFRawStripSize64         0000000180132870 f   libTIFF:tif_strip.obj
 0001:00131910       TIFFRawStripSize           0000000180132910 f   libTIFF:tif_strip.obj
 0001:001319b0       TIFFVStripSize64           00000001801329b0 f   libTIFF:tif_strip.obj
 0001:00131d80       TIFFVStripSize             0000000180132d80 f   libTIFF:tif_strip.obj
 0001:00131e10       TIFFDefaultStripSize       0000000180132e10 f   libTIFF:tif_strip.obj
 0001:00131e60       TIFFComputeStrip           0000000180132e60 f   libTIFF:tif_strip.obj
 0001:00131f30       TIFFNumberOfStrips         0000000180132f30 f   libTIFF:tif_strip.obj
 0001:00132010       _TIFFDefaultStripSize      0000000180133010 f   libTIFF:tif_strip.obj
 0001:001320b0       TIFFWriteBufferSetup       00000001801330b0 f   libTIFF:tif_write.obj
 0001:00132270       TIFFSetupStrips            0000000180133270 f   libTIFF:tif_write.obj
 0001:001324c0       TIFFWriteCheck             00000001801334c0 f   libTIFF:tif_write.obj
 0001:00132770       TIFFWriteScanline          0000000180133770 f   libTIFF:tif_write.obj
 0001:00132c30       TIFFWriteTile              0000000180133c30 f   libTIFF:tif_write.obj
 0001:00132ce0       TIFFWriteEncodedStrip      0000000180133ce0 f   libTIFF:tif_write.obj
 0001:00133120       TIFFWriteRawStrip          0000000180134120 f   libTIFF:tif_write.obj
 0001:001332e0       TIFFWriteEncodedTile       00000001801342e0 f   libTIFF:tif_write.obj
 0001:00133780       TIFFWriteRawTile           0000000180134780 f   libTIFF:tif_write.obj
 0001:00133870       TIFFSetWriteOffset         0000000180134870 f   libTIFF:tif_write.obj
 0001:001338a0       TIFFFlushData1             00000001801348a0 f   libTIFF:tif_write.obj
 0001:00133ef0       TIFFReadRGBAImage          0000000180134ef0 f   libTIFF:tif_getimage.obj
 0001:00133f50       TIFFReadRGBAImageOriented  0000000180134f50 f   libTIFF:tif_getimage.obj
 0001:001340e0       TIFFReadRGBAStrip          00000001801350e0 f   libTIFF:tif_getimage.obj
 0001:00134330       TIFFReadRGBATile           0000000180135330 f   libTIFF:tif_getimage.obj
 0001:001347a0       TIFFRGBAImageOK            00000001801357a0 f   libTIFF:tif_getimage.obj
 0001:00134c00       TIFFRGBAImageBegin         0000000180135c00 f   libTIFF:tif_getimage.obj
 0001:001356f0       TIFFRGBAImageGet           00000001801366f0 f   libTIFF:tif_getimage.obj
 0001:001357c0       TIFFRGBAImageEnd           00000001801367c0 f   libTIFF:tif_getimage.obj
 0001:001438f0       TIFFFileno                 00000001801448f0 f   libTIFF:tif_open.obj
 0001:00143910       TIFFSetFileno              0000000180144910 f   libTIFF:tif_open.obj
 0001:00143960       TIFFClientdata             0000000180144960 f   libTIFF:tif_open.obj
 0001:00143980       TIFFSetClientdata          0000000180144980 f   libTIFF:tif_open.obj
 0001:001439e0       TIFFGetMode                00000001801449e0 f   libTIFF:tif_open.obj
 0001:00143a00       TIFFSetMode                0000000180144a00 f   libTIFF:tif_open.obj
 0001:00143a50       TIFFIsTiled                0000000180144a50 f   libTIFF:tif_open.obj
 0001:00143aa0       TIFFIsByteSwapped          0000000180144aa0 f   libTIFF:tif_open.obj
 0001:00143af0       TIFFIsUpSampled            0000000180144af0 f   libTIFF:tif_open.obj
 0001:00143b40       TIFFIsMSB2LSB              0000000180144b40 f   libTIFF:tif_open.obj
 0001:00143b90       TIFFIsBigEndian            0000000180144b90 f   libTIFF:tif_open.obj
 0001:00143be0       TIFFGetReadProc            0000000180144be0 f   libTIFF:tif_open.obj
 0001:00143c00       TIFFGetWriteProc           0000000180144c00 f   libTIFF:tif_open.obj
 0001:00143c20       TIFFGetSeekProc            0000000180144c20 f   libTIFF:tif_open.obj
 0001:00143c40       TIFFGetCloseProc           0000000180144c40 f   libTIFF:tif_open.obj
 0001:00143c60       TIFFGetSizeProc            0000000180144c60 f   libTIFF:tif_open.obj
 0001:00143c80       TIFFGetMapFileProc         0000000180144c80 f   libTIFF:tif_open.obj
 0001:00143ca0       TIFFGetUnmapFileProc       0000000180144ca0 f   libTIFF:tif_open.obj
 0001:00143cc0       TIFFCurrentRow             0000000180144cc0 f   libTIFF:tif_open.obj
 0001:00143ce0       TIFFCurrentDirectory       0000000180144ce0 f   libTIFF:tif_open.obj
 0001:00143d00       TIFFCurrentStrip           0000000180144d00 f   libTIFF:tif_open.obj
 0001:00143d20       TIFFCurrentTile            0000000180144d20 f   libTIFF:tif_open.obj
 0001:00143d40       TIFFClientOpen             0000000180144d40 f   libTIFF:tif_open.obj
 0001:001449c0       TIFFFileName               00000001801459c0 f   libTIFF:tif_open.obj
 0001:001449e0       TIFFSetFileName            00000001801459e0 f   libTIFF:tif_open.obj
 0001:00144a30       _TIFFgetMode               0000000180145a30 f   libTIFF:tif_open.obj
 0001:00144b50       TIFFError                  0000000180145b50 f   libTIFF:tif_error.obj
 0001:00144bf0       TIFFErrorExt               0000000180145bf0 f   libTIFF:tif_error.obj
 0001:00144c90       TIFFSetErrorHandler        0000000180145c90 f   libTIFF:tif_error.obj
 0001:00144ce0       TIFFSetErrorHandlerExt     0000000180145ce0 f   libTIFF:tif_error.obj
 0001:00144d20       TIFFWarning                0000000180145d20 f   libTIFF:tif_warning.obj
 0001:00144dc0       TIFFWarningExt             0000000180145dc0 f   libTIFF:tif_warning.obj
 0001:00144e60       TIFFSetWarningHandler      0000000180145e60 f   libTIFF:tif_warning.obj
 0001:00144eb0       TIFFSetWarningHandlerExt   0000000180145eb0 f   libTIFF:tif_warning.obj
 0001:00144ef0       TIFFReadBufferSetup        0000000180145ef0 f   libTIFF:tif_read.obj
 0001:001450d0       TIFFReadScanline           00000001801460d0 f   libTIFF:tif_read.obj
 0001:001451d0       TIFFReadTile               00000001801461d0 f   libTIFF:tif_read.obj
 0001:00145290       TIFFReadEncodedStrip       0000000180146290 f   libTIFF:tif_read.obj
 0001:00145490       TIFFReadRawStrip           0000000180146490 f   libTIFF:tif_read.obj
 0001:00145660       TIFFReadEncodedTile        0000000180146660 f   libTIFF:tif_read.obj
 0001:001457c0       TIFFReadRawTile            00000001801467c0 f   libTIFF:tif_read.obj
 0001:00145950       _TIFFNoPostDecode          0000000180146950 f   libTIFF:tif_read.obj
 0001:00145970       _TIFFSwab16BitData         0000000180146970 f   libTIFF:tif_read.obj
 0001:001459f0       _TIFFSwab24BitData         00000001801469f0 f   libTIFF:tif_read.obj
 0001:00145a80       _TIFFSwab32BitData         0000000180146a80 f   libTIFF:tif_read.obj
 0001:00145b00       _TIFFSwab64BitData         0000000180146b00 f   libTIFF:tif_read.obj
 0001:00145b80       TIFFFillStrip              0000000180146b80 f   libTIFF:tif_read.obj
 0001:00145fb0       TIFFFillTile               0000000180146fb0 f   libTIFF:tif_read.obj
 0001:001476a0       _TIFFmalloc                00000001801486a0 f   libTIFF:tif_win32.obj
 0001:001476e0       _TIFFrealloc               00000001801486e0 f   libTIFF:tif_win32.obj
 0001:00147720       _TIFFmemset                0000000180148720 f   libTIFF:tif_win32.obj
 0001:00147770       _TIFFmemcpy                0000000180148770 f   libTIFF:tif_win32.obj
 0001:001477c0       _TIFFmemcmp                00000001801487c0 f   libTIFF:tif_win32.obj
 0001:00147810       _TIFFfree                  0000000180148810 f   libTIFF:tif_win32.obj
 0001:00147850       TIFFOpen                   0000000180148850 f   libTIFF:tif_win32.obj
 0001:001479e0       TIFFOpenW                  00000001801489e0 f   libTIFF:tif_win32.obj
 0001:00147c60       TIFFFdOpen                 0000000180148c60 f   libTIFF:tif_win32.obj
 0001:00148340       TIFFFlush                  0000000180149340 f   libTIFF:tif_flush.obj
 0001:00148620       TIFFFlushData              0000000180149620 f   libTIFF:tif_flush.obj
 0001:001486b0       TIFFFindField              00000001801496b0 f   libTIFF:tif_dirinfo.obj
 0001:00148830       TIFFFieldWithTag           0000000180149830 f   libTIFF:tif_dirinfo.obj
 0001:001488b0       TIFFFieldWithName          00000001801498b0 f   libTIFF:tif_dirinfo.obj
 0001:00148930       TIFFFieldTag               0000000180149930 f   libTIFF:tif_dirinfo.obj
 0001:00148950       TIFFFieldName              0000000180149950 f   libTIFF:tif_dirinfo.obj
 0001:00148970       TIFFFieldDataType          0000000180149970 f   libTIFF:tif_dirinfo.obj
 0001:00148990       TIFFFieldPassCount         0000000180149990 f   libTIFF:tif_dirinfo.obj
 0001:001489b0       TIFFFieldReadCount         00000001801499b0 f   libTIFF:tif_dirinfo.obj
 0001:001489d0       TIFFFieldWriteCount        00000001801499d0 f   libTIFF:tif_dirinfo.obj
 0001:001489f0       TIFFDataWidth              00000001801499f0 f   libTIFF:tif_dirinfo.obj
 0001:00148ab0       TIFFMergeFieldInfo         0000000180149ab0 f   libTIFF:tif_dirinfo.obj
 0001:00148ec0       _TIFFGetFields             0000000180149ec0 f   libTIFF:tif_dirinfo.obj
 0001:00148ee0       _TIFFGetExifFields         0000000180149ee0 f   libTIFF:tif_dirinfo.obj
 0001:00148f00       _TIFFSetupFields           0000000180149f00 f   libTIFF:tif_dirinfo.obj
 0001:00149050       _TIFFPrintFieldInfo        000000018014a050 f   libTIFF:tif_dirinfo.obj
 0001:001491c0       _TIFFMergeFields           000000018014a1c0 f   libTIFF:tif_dirinfo.obj
 0001:00149390       _TIFFFindOrRegisterField   000000018014a390 f   libTIFF:tif_dirinfo.obj
 0001:00149420       _TIFFCreateAnonField       000000018014a420 f   libTIFF:tif_dirinfo.obj
 0001:00149730       _TIFFDataSize              000000018014a730 f   libTIFF:tif_dirinfo.obj
 0001:001499f0       _TIFFFindFieldByName       000000018014a9f0 f   libTIFF:tif_dirinfo.obj
 0001:0014a080       TIFFSwabShort              000000018014b080 f   libTIFF:tif_swab.obj
 0001:0014a100       TIFFSwabLong               000000018014b100 f   libTIFF:tif_swab.obj
 0001:0014a1d0       TIFFSwabLong8              000000018014b1d0 f   libTIFF:tif_swab.obj
 0001:0014a340       TIFFSwabFloat              000000018014b340 f   libTIFF:tif_swab.obj
 0001:0014a410       TIFFSwabDouble             000000018014b410 f   libTIFF:tif_swab.obj
 0001:0014a580       TIFFSwabArrayOfShort       000000018014b580 f   libTIFF:tif_swab.obj
 0001:0014a650       TIFFSwabArrayOfTriples     000000018014b650 f   libTIFF:tif_swab.obj
 0001:0014a720       TIFFSwabArrayOfLong        000000018014b720 f   libTIFF:tif_swab.obj
 0001:0014a840       TIFFSwabArrayOfLong8       000000018014b840 f   libTIFF:tif_swab.obj
 0001:0014aa00       TIFFSwabArrayOfFloat       000000018014ba00 f   libTIFF:tif_swab.obj
 0001:0014ab20       TIFFSwabArrayOfDouble      000000018014bb20 f   libTIFF:tif_swab.obj
 0001:0014ace0       TIFFReverseBits            000000018014bce0 f   libTIFF:tif_swab.obj
 0001:0014af20       TIFFGetBitRevTable         000000018014bf20 f   libTIFF:tif_swab.obj
 0001:0014af70       TIFFFindCODEC              000000018014bf70 f   libTIFF:tif_compress.obj
 0001:0014b020       TIFFRegisterCODEC          000000018014c020 f   libTIFF:tif_compress.obj
 0001:0014b130       TIFFUnRegisterCODEC        000000018014c130 f   libTIFF:tif_compress.obj
 0001:0014b1e0       TIFFGetConfiguredCODECs    000000018014c1e0 f   libTIFF:tif_compress.obj
 0001:0014b3c0       _TIFFNoRowEncode           000000018014c3c0 f   libTIFF:tif_compress.obj
 0001:0014b410       _TIFFNoStripEncode         000000018014c410 f   libTIFF:tif_compress.obj
 0001:0014b460       _TIFFNoTileEncode          000000018014c460 f   libTIFF:tif_compress.obj
 0001:0014b4b0       _TIFFNoRowDecode           000000018014c4b0 f   libTIFF:tif_compress.obj
 0001:0014b500       _TIFFNoStripDecode         000000018014c500 f   libTIFF:tif_compress.obj
 0001:0014b550       _TIFFNoTileDecode          000000018014c550 f   libTIFF:tif_compress.obj
 0001:0014b5a0       _TIFFNoPreCode             000000018014c5a0 f   libTIFF:tif_compress.obj
 0001:0014b5c0       _TIFFNoSeek                000000018014c5c0 f   libTIFF:tif_compress.obj
 0001:0014b610       _TIFFSetDefaultCompressionState 000000018014c610 f   libTIFF:tif_compress.obj
 0001:0014b7a0       TIFFSetCompressionScheme   000000018014c7a0 f   libTIFF:tif_compress.obj
 0001:0014b9a0       _TIFFNoFixupTags           000000018014c9a0 f   libTIFF:tif_compress.obj
 0001:0014b9f0       TIFFTileRowSize64          000000018014c9f0 f   libTIFF:tif_tile.obj
 0001:0014bae0       TIFFTileRowSize            000000018014cae0 f   libTIFF:tif_tile.obj
 0001:0014bb60       TIFFTileSize64             000000018014cb60 f   libTIFF:tif_tile.obj
 0001:0014bba0       TIFFTileSize               000000018014cba0 f   libTIFF:tif_tile.obj
 0001:0014bc20       TIFFVTileSize64            000000018014cc20 f   libTIFF:tif_tile.obj
 0001:0014bfd0       TIFFVTileSize              000000018014cfd0 f   libTIFF:tif_tile.obj
 0001:0014c060       TIFFDefaultTileSize        000000018014d060 f   libTIFF:tif_tile.obj
 0001:0014c0b0       TIFFComputeTile            000000018014d0b0 f   libTIFF:tif_tile.obj
 0001:0014c340       TIFFCheckTile              000000018014d340 f   libTIFF:tif_tile.obj
 0001:0014c4c0       TIFFNumberOfTiles          000000018014d4c0 f   libTIFF:tif_tile.obj
 0001:0014c6b0       _TIFFDefaultTileSize       000000018014d6b0 f   libTIFF:tif_tile.obj
 0001:0014c790       TIFFCIELabToRGBInit        000000018014d790 f   libTIFF:tif_color.obj
 0001:0014cac0       TIFFCIELabToXYZ            000000018014dac0 f   libTIFF:tif_color.obj
 0001:0014ccc0       TIFFXYZToRGB               000000018014dcc0 f   libTIFF:tif_color.obj
 0001:0014d320       TIFFYCbCrToRGBInit         000000018014e320 f   libTIFF:tif_color.obj
 0001:0014d940       TIFFYCbCrtoRGB             000000018014e940 f   libTIFF:tif_color.obj
 0001:0014db50       TIFFWriteDirectory         000000018014eb50 f   libTIFF:tif_dirwrite.obj
 0001:0014dba0       TIFFWriteCustomDirectory   000000018014eba0 f   libTIFF:tif_dirwrite.obj
 0001:0014dbf0       TIFFCheckpointDirectory    000000018014ebf0 f   libTIFF:tif_dirwrite.obj
 0001:0014dc80       TIFFRewriteDirectory       000000018014ec80 f   libTIFF:tif_dirwrite.obj
 0001:0014e3a0       _TIFFRewriteField          000000018014f3a0 f   libTIFF:tif_dirwrite.obj
 0001:00155760       TIFFIsCODECConfigured      0000000180156760 f   libTIFF:tif_codec.obj
 0001:00155920       TIFFInitDumpMode           0000000180156920 f   libTIFF:tif_dumpmode.obj
 0001:00155cf0       TIFFInitPackBits           0000000180156cf0 f   libTIFF:tif_packbits.obj
 0001:00156870       TIFFInitCCITTRLE           0000000180157870 f   libTIFF:tif_fax3.obj
 0001:00156900       TIFFInitCCITTRLEW          0000000180157900 f   libTIFF:tif_fax3.obj
 0001:00156990       TIFFInitCCITTFax3          0000000180157990 f   libTIFF:tif_fax3.obj
 0001:00156a30       TIFFInitCCITTFax4          0000000180157a30 f   libTIFF:tif_fax3.obj
 0001:00156b60       _TIFFFax3fillruns          0000000180157b60 f   libTIFF:tif_fax3.obj
 0001:00160410       TIFFInitThunderScan        0000000180161410 f   libTIFF:tif_thunder.obj
 0001:00160cd0       TIFFInitNeXT               0000000180161cd0 f   libTIFF:tif_next.obj
 0001:00161250       TIFFInitLZW                0000000180162250 f   libTIFF:tif_lzw.obj
 0001:00163e50       LogL16toY                  0000000180164e50 f   libTIFF:tif_luv.obj
 0001:00163f10       LogL10toY                  0000000180164f10 f   libTIFF:tif_luv.obj
 0001:00163f70       XYZtoRGB24                 0000000180164f70 f   libTIFF:tif_luv.obj
 0001:00164250       uv_decode                  0000000180165250 f   libTIFF:tif_luv.obj
 0001:001643b0       LogLuv24toXYZ              00000001801653b0 f   libTIFF:tif_luv.obj
 0001:001645b0       LogLuv32toXYZ              00000001801655b0 f   libTIFF:tif_luv.obj
 0001:00164790       LogL16fromY                0000000180165790 f   libTIFF:tif_luv.obj
 0001:00164990       LogL10fromY                0000000180165990 f   libTIFF:tif_luv.obj
 0001:00164ab0       uv_encode                  0000000180165ab0 f   libTIFF:tif_luv.obj
 0001:00164cb0       LogLuv24fromXYZ            0000000180165cb0 f   libTIFF:tif_luv.obj
 0001:00164e40       LogLuv32fromXYZ            0000000180165e40 f   libTIFF:tif_luv.obj
 0001:001650e0       TIFFInitSGILog             00000001801660e0 f   libTIFF:tif_luv.obj
 0001:00169620       TIFFPredictorInit          000000018016a620 f   libTIFF:tif_predict.obj
 0001:001697c0       TIFFPredictorCleanup       000000018016a7c0 f   libTIFF:tif_predict.obj
 0001:0016caa0       jpeg_std_error             000000018016daa0 f   jpeg:jerror.obj
 0001:0016cfe0       jpeg_CreateCompress        000000018016dfe0 f   jpeg:jcapimin.obj
 0001:0016d250       jpeg_destroy_compress      000000018016e250 f   jpeg:jcapimin.obj
 0001:0016d290       jpeg_suppress_tables       000000018016e290 f   jpeg:jcapimin.obj
 0001:0016d380       jpeg_finish_compress       000000018016e380 f   jpeg:jcapimin.obj
 0001:0016d570       jpeg_write_marker          000000018016e570 f   jpeg:jcapimin.obj
 0001:0016d680       jpeg_write_m_header        000000018016e680 f   jpeg:jcapimin.obj
 0001:0016d740       jpeg_write_m_byte          000000018016e740 f   jpeg:jcapimin.obj
 0001:0016d790       jpeg_write_tables          000000018016e790 f   jpeg:jcapimin.obj
 0001:0016d850       jpeg_abort_compress        000000018016e850 f   jpeg:jcapimin.obj
 0001:0016d880       jpeg_CreateDecompress      000000018016e880 f   jpeg:jdapimin.obj
 0001:0016daa0       jpeg_destroy_decompress    000000018016eaa0 f   jpeg:jdapimin.obj
 0001:0016dae0       jpeg_read_header           000000018016eae0 f   jpeg:jdapimin.obj
 0001:0016dbe0       jpeg_finish_decompress     000000018016ebe0 f   jpeg:jdapimin.obj
 0001:0016dd40       jpeg_has_multiple_scans    000000018016ed40 f   jpeg:jdapimin.obj
 0001:0016dde0       jpeg_input_complete        000000018016ede0 f   jpeg:jdapimin.obj
 0001:0016de80       jpeg_consume_input         000000018016ee80 f   jpeg:jdapimin.obj
 0001:0016dff0       jpeg_abort_decompress      000000018016eff0 f   jpeg:jdapimin.obj
 0001:0016e480       jpeg_set_defaults          000000018016f480 f   jpeg:jcparam.obj
 0001:0016e6d0       jpeg_set_colorspace        000000018016f6d0 f   jpeg:jcparam.obj
 0001:0016f270       jpeg_default_colorspace    0000000180170270 f   jpeg:jcparam.obj
 0001:0016f3a0       jpeg_set_quality           00000001801703a0 f   jpeg:jcparam.obj
 0001:0016f400       jpeg_set_linear_quality    0000000180170400 f   jpeg:jcparam.obj
 0001:0016f480       jpeg_default_qtables       0000000180170480 f   jpeg:jcparam.obj
 0001:0016f520       jpeg_add_quant_table       0000000180170520 f   jpeg:jcparam.obj
 0001:0016f6c0       jpeg_quality_scaling       00000001801706c0 f   jpeg:jcparam.obj
 0001:0016f720       jpeg_simple_progression    0000000180170720 f   jpeg:jcparam.obj
 0001:0016ffa0       jpeg_start_compress        0000000180170fa0 f   jpeg:jcapistd.obj
 0001:001700b0       jpeg_write_scanlines       00000001801710b0 f   jpeg:jcapistd.obj
 0001:00170260       jpeg_write_raw_data        0000000180171260 f   jpeg:jcapistd.obj
 0001:00170410       jpeg_start_decompress      0000000180171410 f   jpeg:jdapistd.obj
 0001:001705e0       jpeg_read_scanlines        00000001801715e0 f   jpeg:jdapistd.obj
 0001:00170750       jpeg_read_raw_data         0000000180171750 f   jpeg:jdapistd.obj
 0001:001708e0       jpeg_start_output          00000001801718e0 f   jpeg:jdapistd.obj
 0001:001709d0       jpeg_finish_output         00000001801719d0 f   jpeg:jdapistd.obj
 0001:00170c90       jpeg_alloc_quant_table     0000000180171c90 f   jpeg:jcomapi.obj
 0001:00170cf0       jpeg_alloc_huff_table      0000000180171cf0 f   jpeg:jcomapi.obj
 0001:00170d50       jpeg_abort                 0000000180171d50 f   jpeg:jcomapi.obj
 0001:00170e00       jpeg_destroy               0000000180171e00 f   jpeg:jcomapi.obj
 0001:00170e60       jpeg_save_markers          0000000180171e60 f   jpeg:jdmarker.obj
 0001:00170ff0       jpeg_set_marker_processor  0000000180171ff0 f   jpeg:jdmarker.obj
 0001:001710c0       jpeg_resync_to_restart     00000001801720c0 f   jpeg:jdmarker.obj
 0001:001712c0       jinit_marker_reader        00000001801722c0 f   jpeg:jdmarker.obj
 0001:00176ba0       jinit_marker_writer        0000000180177ba0 f   jpeg:jcmarker.obj
 0001:001781f0       jinit_memory_mgr           00000001801791f0 f   jpeg:jmemmgr.obj
 0001:00179fd0       jdiv_round_up              000000018017afd0 f   jpeg:jutils.obj
 0001:0017a000       jround_up                  000000018017b000 f   jpeg:jutils.obj
 0001:0017a040       jcopy_sample_rows          000000018017b040 f   jpeg:jutils.obj
 0001:0017a110       jcopy_block_row            000000018017b110 f   jpeg:jutils.obj
 0001:0017a160       jpeg_core_output_dimensions 000000018017b160 f   jpeg:jdinput.obj
 0001:0017aa70       jinit_input_controller     000000018017ba70 f   jpeg:jdinput.obj
 0001:0017bde0       jinit_compress_master      000000018017cde0 f   jpeg:jcinit.obj
 0001:0017bfb0       jpeg_new_colormap          000000018017cfb0 f   jpeg:jdmaster.obj
 0001:0017c0b0       jpeg_calc_output_dimensions 000000018017d0b0 f   jpeg:jdmaster.obj
 0001:0017c4c0       jinit_master_decompress    000000018017d4c0 f   jpeg:jdmaster.obj
 0001:0017d080       jpeg_get_small             000000018017e080 f   jpeg:jmemnobs.obj
 0001:0017d0c0       jpeg_free_small            000000018017e0c0 f   jpeg:jmemnobs.obj
 0001:0017d100       jpeg_get_large             000000018017e100 f   jpeg:jmemnobs.obj
 0001:0017d140       jpeg_free_large            000000018017e140 f   jpeg:jmemnobs.obj
 0001:0017d180       jpeg_mem_available         000000018017e180 f   jpeg:jmemnobs.obj
 0001:0017d1a0       jpeg_open_backing_store    000000018017e1a0 f   jpeg:jmemnobs.obj
 0001:0017d200       jpeg_mem_init              000000018017e200 f   jpeg:jmemnobs.obj
 0001:0017d210       jpeg_mem_term              000000018017e210 f   jpeg:jmemnobs.obj
 0001:0017d220       jpeg_calc_jpeg_dimensions  000000018017e220 f   jpeg:jcmaster.obj
 0001:0017dba0       jinit_c_master_control     000000018017eba0 f   jpeg:jcmaster.obj
 0001:0017fa00       jinit_c_main_controller    0000000180180a00 f   jpeg:jcmainct.obj
 0001:0017fdb0       jinit_c_prep_controller    0000000180180db0 f   jpeg:jcprepct.obj
 0001:00180a00       jinit_c_coef_controller    0000000180181a00 f   jpeg:jccoefct.obj
 0001:00181aa0       jinit_color_converter      0000000180182aa0 f   jpeg:jccolor.obj
 0001:00182ec0       jinit_downsampler          0000000180183ec0 f   jpeg:jcsample.obj
 0001:00184350       jinit_forward_dct          0000000180185350 f   jpeg:jcdctmgr.obj
 0001:00185430       jinit_huff_encoder         0000000180186430 f   jpeg:jchuff.obj
 0001:00188ac0       jinit_arith_encoder        0000000180189ac0 f   jpeg:jcarith.obj
 0001:0018ae30       jinit_d_main_controller    000000018018be30 f   jpeg:jdmainct.obj
 0001:0018bd40       jinit_d_coef_controller    000000018018cd40 f   jpeg:jdcoefct.obj
 0001:0018df20       jinit_d_post_controller    000000018018ef20 f   jpeg:jdpostct.obj
 0001:0018e6c0       jinit_huff_decoder         000000018018f6c0 f   jpeg:jdhuff.obj
 0001:001927e0       jinit_arith_decoder        00000001801937e0 f   jpeg:jdarith.obj
 0001:001947c0       jinit_inverse_dct          00000001801957c0 f   jpeg:jddctmgr.obj
 0001:001951d0       jinit_upsampler            00000001801961d0 f   jpeg:jdsample.obj
 0001:00195c60       jinit_color_deconverter    0000000180196c60 f   jpeg:jdcolor.obj
 0001:001975b0       jinit_1pass_quantizer      00000001801985b0 f   jpeg:jquant1.obj
 0001:00198f80       jinit_2pass_quantizer      0000000180199f80 f   jpeg:jquant2.obj
 0001:0019bb10       jinit_merged_upsampler     000000018019cb10 f   jpeg:jdmerge.obj
 0001:0019caf0       jpeg_fdct_islow            000000018019daf0 f   jpeg:jfdctint.obj
 0001:0019d340       jpeg_fdct_7x7              000000018019e340 f   jpeg:jfdctint.obj
 0001:0019daf0       jpeg_fdct_6x6              000000018019eaf0 f   jpeg:jfdctint.obj
 0001:0019e020       jpeg_fdct_5x5              000000018019f020 f   jpeg:jfdctint.obj
 0001:0019e4b0       jpeg_fdct_4x4              000000018019f4b0 f   jpeg:jfdctint.obj
 0001:0019e830       jpeg_fdct_3x3              000000018019f830 f   jpeg:jfdctint.obj
 0001:0019ead0       jpeg_fdct_2x2              000000018019fad0 f   jpeg:jfdctint.obj
 0001:0019ec80       jpeg_fdct_1x1              000000018019fc80 f   jpeg:jfdctint.obj
 0001:0019ed00       jpeg_fdct_9x9              000000018019fd00 f   jpeg:jfdctint.obj
 0001:0019f5e0       jpeg_fdct_10x10            00000001801a05e0 f   jpeg:jfdctint.obj
 0001:0019ffd0       jpeg_fdct_11x11            00000001801a0fd0 f   jpeg:jfdctint.obj
 0001:001a0be0       jpeg_fdct_12x12            00000001801a1be0 f   jpeg:jfdctint.obj
 0001:001a1770       jpeg_fdct_13x13            00000001801a2770 f   jpeg:jfdctint.obj
 0001:001a24c0       jpeg_fdct_14x14            00000001801a34c0 f   jpeg:jfdctint.obj
 0001:001a3180       jpeg_fdct_15x15            00000001801a4180 f   jpeg:jfdctint.obj
 0001:001a3ea0       jpeg_fdct_16x16            00000001801a4ea0 f   jpeg:jfdctint.obj
 0001:001a4d40       jpeg_fdct_16x8             00000001801a5d40 f   jpeg:jfdctint.obj
 0001:001a5800       jpeg_fdct_14x7             00000001801a6800 f   jpeg:jfdctint.obj
 0001:001a61b0       jpeg_fdct_12x6             00000001801a71b0 f   jpeg:jfdctint.obj
 0001:001a6990       jpeg_fdct_10x5             00000001801a7990 f   jpeg:jfdctint.obj
 0001:001a7050       jpeg_fdct_8x4              00000001801a8050 f   jpeg:jfdctint.obj
 0001:001a7660       jpeg_fdct_6x3              00000001801a8660 f   jpeg:jfdctint.obj
 0001:001a7a40       jpeg_fdct_4x2              00000001801a8a40 f   jpeg:jfdctint.obj
 0001:001a7ce0       jpeg_fdct_2x1              00000001801a8ce0 f   jpeg:jfdctint.obj
 0001:001a7dc0       jpeg_fdct_8x16             00000001801a8dc0 f   jpeg:jfdctint.obj
 0001:001a89e0       jpeg_fdct_7x14             00000001801a99e0 f   jpeg:jfdctint.obj
 0001:001a94b0       jpeg_fdct_6x12             00000001801aa4b0 f   jpeg:jfdctint.obj
 0001:001a9d90       jpeg_fdct_5x10             00000001801aad90 f   jpeg:jfdctint.obj
 0001:001aa560       jpeg_fdct_4x8              00000001801ab560 f   jpeg:jfdctint.obj
 0001:001aab50       jpeg_fdct_3x6              00000001801abb50 f   jpeg:jfdctint.obj
 0001:001aaf40       jpeg_fdct_2x4              00000001801abf40 f   jpeg:jfdctint.obj
 0001:001ab1d0       jpeg_fdct_1x2              00000001801ac1d0 f   jpeg:jfdctint.obj
 0001:001ab290       jpeg_fdct_ifast            00000001801ac290 f   jpeg:jfdctfst.obj
 0001:001ab9a0       jpeg_fdct_float            00000001801ac9a0 f   jpeg:jfdctflt.obj
 0001:001ac190       jpeg_idct_islow            00000001801ad190 f   jpeg:jidctint.obj
 0001:001aceb0       jpeg_idct_7x7              00000001801adeb0 f   jpeg:jidctint.obj
 0001:001ad710       jpeg_idct_6x6              00000001801ae710 f   jpeg:jidctint.obj
 0001:001add70       jpeg_idct_5x5              00000001801aed70 f   jpeg:jidctint.obj
 0001:001ae310       jpeg_idct_4x4              00000001801af310 f   jpeg:jidctint.obj
 0001:001ae780       jpeg_idct_3x3              00000001801af780 f   jpeg:jidctint.obj
 0001:001aeb20       jpeg_idct_2x2              00000001801afb20 f   jpeg:jidctint.obj
 0001:001aed70       jpeg_idct_1x1              00000001801afd70 f   jpeg:jidctint.obj
 0001:001aee30       jpeg_idct_9x9              00000001801afe30 f   jpeg:jidctint.obj
 0001:001af790       jpeg_idct_10x10            00000001801b0790 f   jpeg:jidctint.obj
 0001:001b01d0       jpeg_idct_11x11            00000001801b11d0 f   jpeg:jidctint.obj
 0001:001b0db0       jpeg_idct_12x12            00000001801b1db0 f   jpeg:jidctint.obj
 0001:001b1990       jpeg_idct_13x13            00000001801b2990 f   jpeg:jidctint.obj
 0001:001b26d0       jpeg_idct_14x14            00000001801b36d0 f   jpeg:jidctint.obj
 0001:001b3450       jpeg_idct_15x15            00000001801b4450 f   jpeg:jidctint.obj
 0001:001b4290       jpeg_idct_16x16            00000001801b5290 f   jpeg:jidctint.obj
 0001:001b5320       jpeg_idct_16x8             00000001801b6320 f   jpeg:jidctint.obj
 0001:001b62c0       jpeg_idct_14x7             00000001801b72c0 f   jpeg:jidctint.obj
 0001:001b6e10       jpeg_idct_12x6             00000001801b7e10 f   jpeg:jidctint.obj
 0001:001b7770       jpeg_idct_10x5             00000001801b8770 f   jpeg:jidctint.obj
 0001:001b7f70       jpeg_idct_8x4              00000001801b8f70 f   jpeg:jidctint.obj
 0001:001b8670       jpeg_idct_6x3              00000001801b9670 f   jpeg:jidctint.obj
 0001:001b8b70       jpeg_idct_4x2              00000001801b9b70 f   jpeg:jidctint.obj
 0001:001b8ee0       jpeg_idct_2x1              00000001801b9ee0 f   jpeg:jidctint.obj
 0001:001b9020       jpeg_idct_8x16             00000001801ba020 f   jpeg:jidctint.obj
 0001:001b9d20       jpeg_idct_7x14             00000001801bad20 f   jpeg:jidctint.obj
 0001:001ba7f0       jpeg_idct_6x12             00000001801bb7f0 f   jpeg:jidctint.obj
 0001:001bb100       jpeg_idct_5x10             00000001801bc100 f   jpeg:jidctint.obj
 0001:001bb8f0       jpeg_idct_4x8              00000001801bc8f0 f   jpeg:jidctint.obj
 0001:001bc1e0       jpeg_idct_3x6              00000001801bd1e0 f   jpeg:jidctint.obj
 0001:001bc6e0       jpeg_idct_2x4              00000001801bd6e0 f   jpeg:jidctint.obj
 0001:001bca50       jpeg_idct_1x2              00000001801bda50 f   jpeg:jidctint.obj
 0001:001bcb70       jpeg_idct_ifast            00000001801bdb70 f   jpeg:jidctfst.obj
 0001:001bd7f0       jpeg_idct_float            00000001801be7f0 f   jpeg:jidctflt.obj
 0001:001be3e0       ?convert@half@@CAFH@Z      00000001801bf3e0 f   ilmBase:half.obj
 0001:001be590       ?overflow@half@@CAMXZ      00000001801bf590 f   ilmBase:half.obj
 0001:001be600       ??6@YAAEAV?$basic_ostream@DU?$char_traits@D@std@@@std@@AEAV01@Vhalf@@@Z 00000001801bf600 f   ilmBase:half.obj
 0001:001be650       ??5@YAAEAV?$basic_istream@DU?$char_traits@D@std@@@std@@AEAV01@AEAVhalf@@@Z 00000001801bf650 f   ilmBase:half.obj
 0001:001be6d0       ?printBits@@YAXAEAV?$basic_ostream@DU?$char_traits@D@std@@@std@@Vhalf@@@Z 00000001801bf6d0 f   ilmBase:half.obj
 0001:001be780       ?printBits@@YAXAEAV?$basic_ostream@DU?$char_traits@D@std@@@std@@M@Z 00000001801bf780 f   ilmBase:half.obj
 0001:001be840       ?printBits@@YAXQEADVhalf@@@Z 00000001801bf840 f   ilmBase:half.obj
 0001:001be920       ?printBits@@YAXQEADM@Z     00000001801bf920 f   ilmBase:half.obj
 0001:001bea00       ??$?6U?$char_traits@D@std@@@std@@YAAEAV?$basic_ostream@DU?$char_traits@D@std@@@0@AEAV10@D@Z 00000001801bfa00 f i ilmBase:half.obj
 0001:001bedf0       ??0_Sentry_base@?$basic_ostream@DU?$char_traits@D@std@@@std@@QEAA@AEAV12@@Z 00000001801bfdf0 f i ilmBase:half.obj
 0001:001beea0       ??0sentry@?$basic_ostream@DU?$char_traits@D@std@@@std@@QEAA@AEAV12@@Z 00000001801bfea0 f i ilmBase:half.obj
 0001:001befb0       ??1_Sentry_base@?$basic_ostream@DU?$char_traits@D@std@@@std@@QEAA@XZ 00000001801bffb0 f i ilmBase:half.obj
 0001:001bf050       ??1sentry@?$basic_ostream@DU?$char_traits@D@std@@@std@@QEAA@XZ 00000001801c0050 f i ilmBase:half.obj
 0001:001bf0a0       ??Bsentry@?$basic_ostream@DU?$char_traits@D@std@@@std@@QEBA_NXZ 00000001801c00a0 f i ilmBase:half.obj
 0001:001bf0c0       ?bits@half@@QEBAGXZ        00000001801c00c0 f i ilmBase:half.obj
 0001:001bf0d0       ?eof@?$char_traits@D@std@@SAHXZ 00000001801c00d0 f i ilmBase:half.obj
 0001:001bf0e0       ?eq_int_type@?$char_traits@D@std@@SA_NAEBH0@Z 00000001801c00e0 f i ilmBase:half.obj
 0001:001bf130       ??1IStream@Imf@@UEAA@XZ    00000001801c0130 f   OpenExr:ImfIO.obj
 0001:001bf180       ?isMemoryMapped@IStream@Imf@@UEBA_NXZ 00000001801c0180 f   OpenExr:ImfIO.obj
 0001:001bf190       ?readMemoryMapped@IStream@Imf@@UEAAPEADH@Z 00000001801c0190 f   OpenExr:ImfIO.obj
 0001:001bf210       ?clear@IStream@Imf@@UEAAXXZ 00000001801c0210 f   OpenExr:ImfIO.obj
 0001:001bf220       ?fileName@IStream@Imf@@QEBAPEBDXZ 00000001801c0220 f   OpenExr:ImfIO.obj
 0001:001bf260       ??0IStream@Imf@@IEAA@QEBD@Z 00000001801c0260 f   OpenExr:ImfIO.obj
 0001:001bf2c0       ??1OStream@Imf@@UEAA@XZ    00000001801c02c0 f   OpenExr:ImfIO.obj
 0001:001bf310       ?fileName@OStream@Imf@@QEBAPEBDXZ 00000001801c0310 f   OpenExr:ImfIO.obj
 0001:001bf350       ??0OStream@Imf@@IEAA@QEBD@Z 00000001801c0350 f   OpenExr:ImfIO.obj
 0001:001bf3b0       ??0?$_String_alloc@$0A@U?$_String_base_types@DV?$allocator@D@std@@@std@@@std@@QEAA@AEBV01@@Z 00000001801c03b0 f i OpenExr:ImfIO.obj
 0001:001bf3f0       ??0?$_String_val@U?$_Simple_types@D@std@@@std@@QEAA@AEBV01@@Z 00000001801c03f0 f i OpenExr:ImfIO.obj
 0001:001bf470       ??0InputExc@Iex@@QEAA@AEBV01@@Z 00000001801c0470 f i OpenExr:ImfIO.obj
 0001:001bf4c0       ??0InputExc@Iex@@QEAA@PEBD@Z 00000001801c04c0 f i OpenExr:ImfIO.obj
 0001:001bf510       ??1InputExc@Iex@@UEAA@XZ   00000001801c0510 f i OpenExr:ImfIO.obj
 0001:001bf550       ??_EIStream@Imf@@UEAAPEAXI@Z 00000001801c0550 f i OpenExr:ImfIO.obj
 0001:001bf550       ??_GIStream@Imf@@UEAAPEAXI@Z 00000001801c0550 f i OpenExr:ImfIO.obj
 0001:001bf5a0       ??_GInputExc@Iex@@UEAAPEAXI@Z 00000001801c05a0 f i OpenExr:ImfIO.obj
 0001:001bf5a0       ??_EInputExc@Iex@@UEAAPEAXI@Z 00000001801c05a0 f i OpenExr:ImfIO.obj
 0001:001bf5f0       ??_EOStream@Imf@@UEAAPEAXI@Z 00000001801c05f0 f i OpenExr:ImfIO.obj
 0001:001bf5f0       ??_GOStream@Imf@@UEAAPEAXI@Z 00000001801c05f0 f i OpenExr:ImfIO.obj
 0001:001bf640       ?c_str@?$basic_string@DU?$char_traits@D@std@@V?$allocator@D@2@@std@@QEBAPEBDXZ 00000001801c0640 f i OpenExr:ImfIO.obj
 0001:001bf670       ??0Header@Imf@@QEAA@HHMAEBV?$Vec2@M@Imath@@MW4LineOrder@1@W4Compression@1@@Z 00000001801c0670 f   OpenExr:ImfHeader.obj
 0001:001bf7a0       ??0Header@Imf@@QEAA@HHAEBV?$Box@V?$Vec2@H@Imath@@@Imath@@MAEBV?$Vec2@M@3@MW4LineOrder@1@W4Compression@1@@Z 00000001801c07a0 f   OpenExr:ImfHeader.obj
 0001:001bf8d0       ??0Header@Imf@@QEAA@AEBV?$Box@V?$Vec2@H@Imath@@@Imath@@0MAEBV?$Vec2@M@3@MW4LineOrder@1@W4Compression@1@@Z 00000001801c08d0 f   OpenExr:ImfHeader.obj
 0001:001bf980       ??0Header@Imf@@QEAA@AEBV01@@Z 00000001801c0980 f   OpenExr:ImfHeader.obj
 0001:001bfab0       ??1Header@Imf@@QEAA@XZ     00000001801c0ab0 f   OpenExr:ImfHeader.obj
 0001:001bfbe0       ??4Header@Imf@@QEAAAEAV01@AEBV01@@Z 00000001801c0be0 f   OpenExr:ImfHeader.obj
 0001:001bff40       ?insert@Header@Imf@@QEAAXQEBDAEBVAttribute@2@@Z 00000001801c0f40 f   OpenExr:ImfHeader.obj
 0001:001c0410       ?insert@Header@Imf@@QEAAXAEBV?$basic_string@DU?$char_traits@D@std@@V?$allocator@D@2@@std@@AEBVAttribute@2@@Z 00000001801c1410 f   OpenExr:ImfHeader.obj
 0001:001c0460       ?erase@Header@Imf@@QEAAXQEBD@Z 00000001801c1460 f   OpenExr:ImfHeader.obj
 0001:001c0690       ?erase@Header@Imf@@QEAAXAEBV?$basic_string@DU?$char_traits@D@std@@V?$allocator@D@2@@std@@@Z 00000001801c1690 f   OpenExr:ImfHeader.obj
 0001:001c06e0       ??AHeader@Imf@@QEAAAEAVAttribute@1@QEBD@Z 00000001801c16e0 f   OpenExr:ImfHeader.obj
 0001:001c08e0       ??AHeader@Imf@@QEBAAEBVAttribute@1@QEBD@Z 00000001801c18e0 f   OpenExr:ImfHeader.obj
 0001:001c0ae0       ??AHeader@Imf@@QEAAAEAVAttribute@1@AEBV?$basic_string@DU?$char_traits@D@std@@V?$allocator@D@2@@std@@@Z 00000001801c1ae0 f   OpenExr:ImfHeader.obj
 0001:001c0b30       ??AHeader@Imf@@QEBAAEBVAttribute@1@AEBV?$basic_string@DU?$char_traits@D@std@@V?$allocator@D@2@@std@@@Z 00000001801c1b30 f   OpenExr:ImfHeader.obj
 0001:001c0b80       ?begin@Header@Imf@@QEAA?AVIterator@12@XZ 00000001801c1b80 f   OpenExr:ImfHeader.obj
 0001:001c0c10       ?begin@Header@Imf@@QEBA?AVConstIterator@12@XZ 00000001801c1c10 f   OpenExr:ImfHeader.obj
 0001:001c0ca0       ?end@Header@Imf@@QEAA?AVIterator@12@XZ 00000001801c1ca0 f   OpenExr:ImfHeader.obj
 0001:001c0d30       ?end@Header@Imf@@QEBA?AVConstIterator@12@XZ 00000001801c1d30 f   OpenExr:ImfHeader.obj
 0001:001c0dc0       ?find@Header@Imf@@QEAA?AVIterator@12@QEBD@Z 00000001801c1dc0 f   OpenExr:ImfHeader.obj
 0001:001c0ec0       ?find@Header@Imf@@QEBA?AVConstIterator@12@QEBD@Z 00000001801c1ec0 f   OpenExr:ImfHeader.obj
 0001:001c0fc0       ?find@Header@Imf@@QEAA?AVIterator@12@AEBV?$basic_string@DU?$char_traits@D@std@@V?$allocator@D@2@@std@@@Z 00000001801c1fc0 f   OpenExr:ImfHeader.obj
 0001:001c1030       ?find@Header@Imf@@QEBA?AVConstIterator@12@AEBV?$basic_string@DU?$char_traits@D@std@@V?$allocator@D@2@@std@@@Z 00000001801c2030 f   OpenExr:ImfHeader.obj
 0001:001c10a0       ?displayWindow@Header@Imf@@QEAAAEAV?$Box@V?$Vec2@H@Imath@@@Imath@@XZ 00000001801c20a0 f   OpenExr:ImfHeader.obj
 0001:001c10f0       ?displayWindow@Header@Imf@@QEBAAEBV?$Box@V?$Vec2@H@Imath@@@Imath@@XZ 00000001801c20f0 f   OpenExr:ImfHeader.obj
 0001:001c1140       ?dataWindow@Header@Imf@@QEAAAEAV?$Box@V?$Vec2@H@Imath@@@Imath@@XZ 00000001801c2140 f   OpenExr:ImfHeader.obj
 0001:001c1190       ?dataWindow@Header@Imf@@QEBAAEBV?$Box@V?$Vec2@H@Imath@@@Imath@@XZ 00000001801c2190 f   OpenExr:ImfHeader.obj
 0001:001c11e0       ?pixelAspectRatio@Header@Imf@@QEAAAEAMXZ 00000001801c21e0 f   OpenExr:ImfHeader.obj
 0001:001c1230       ?pixelAspectRatio@Header@Imf@@QEBAAEBMXZ 00000001801c2230 f   OpenExr:ImfHeader.obj
 0001:001c1280       ?screenWindowCenter@Header@Imf@@QEAAAEAV?$Vec2@M@Imath@@XZ 00000001801c2280 f   OpenExr:ImfHeader.obj
 0001:001c12d0       ?screenWindowCenter@Header@Imf@@QEBAAEBV?$Vec2@M@Imath@@XZ 00000001801c22d0 f   OpenExr:ImfHeader.obj
 0001:001c1320       ?screenWindowWidth@Header@Imf@@QEAAAEAMXZ 00000001801c2320 f   OpenExr:ImfHeader.obj
 0001:001c1370       ?screenWindowWidth@Header@Imf@@QEBAAEBMXZ 00000001801c2370 f   OpenExr:ImfHeader.obj
 0001:001c13c0       ?channels@Header@Imf@@QEAAAEAVChannelList@2@XZ 00000001801c23c0 f   OpenExr:ImfHeader.obj
 0001:001c1410       ?channels@Header@Imf@@QEBAAEBVChannelList@2@XZ 00000001801c2410 f   OpenExr:ImfHeader.obj
 0001:001c1460       ?lineOrder@Header@Imf@@QEAAAEAW4LineOrder@2@XZ 00000001801c2460 f   OpenExr:ImfHeader.obj
 0001:001c14b0       ?lineOrder@Header@Imf@@QEBAAEBW4LineOrder@2@XZ 00000001801c24b0 f   OpenExr:ImfHeader.obj
 0001:001c1500       ?compression@Header@Imf@@QEAAAEAW4Compression@2@XZ 00000001801c2500 f   OpenExr:ImfHeader.obj
 0001:001c1550       ?compression@Header@Imf@@QEBAAEBW4Compression@2@XZ 00000001801c2550 f   OpenExr:ImfHeader.obj
 0001:001c15a0       ?setName@Header@Imf@@QEAAXAEBV?$basic_string@DU?$char_traits@D@std@@V?$allocator@D@2@@std@@@Z 00000001801c25a0 f   OpenExr:ImfHeader.obj
 0001:001c1650       ?name@Header@Imf@@QEAAAEAV?$basic_string@DU?$char_traits@D@std@@V?$allocator@D@2@@std@@XZ 00000001801c2650 f   OpenExr:ImfHeader.obj
 0001:001c16a0       ?name@Header@Imf@@QEBAAEBV?$basic_string@DU?$char_traits@D@std@@V?$allocator@D@2@@std@@XZ 00000001801c26a0 f   OpenExr:ImfHeader.obj
 0001:001c16f0       ?hasName@Header@Imf@@QEBA_NXZ 00000001801c26f0 f   OpenExr:ImfHeader.obj
 0001:001c1750       ?setType@Header@Imf@@QEAAXAEBV?$basic_string@DU?$char_traits@D@std@@V?$allocator@D@2@@std@@@Z 00000001801c2750 f   OpenExr:ImfHeader.obj
 0001:001c1b10       ?type@Header@Imf@@QEAAAEAV?$basic_string@DU?$char_traits@D@std@@V?$allocator@D@2@@std@@XZ 00000001801c2b10 f   OpenExr:ImfHeader.obj
 0001:001c1b60       ?type@Header@Imf@@QEBAAEBV?$basic_string@DU?$char_traits@D@std@@V?$allocator@D@2@@std@@XZ 00000001801c2b60 f   OpenExr:ImfHeader.obj
 0001:001c1bb0       ?hasType@Header@Imf@@QEBA_NXZ 00000001801c2bb0 f   OpenExr:ImfHeader.obj
 0001:001c1c10       ?setVersion@Header@Imf@@QEAAXH@Z 00000001801c2c10 f   OpenExr:ImfHeader.obj
 0001:001c1d00       ?version@Header@Imf@@QEAAAEAHXZ 00000001801c2d00 f   OpenExr:ImfHeader.obj
 0001:001c1d50       ?version@Header@Imf@@QEBAAEBHXZ 00000001801c2d50 f   OpenExr:ImfHeader.obj
 0001:001c1da0       ?hasVersion@Header@Imf@@QEBA_NXZ 00000001801c2da0 f   OpenExr:ImfHeader.obj
 0001:001c1e00       ?setChunkCount@Header@Imf@@QEAAXH@Z 00000001801c2e00 f   OpenExr:ImfHeader.obj
 0001:001c1e80       ?hasChunkCount@Header@Imf@@QEBA_NXZ 00000001801c2e80 f   OpenExr:ImfHeader.obj
 0001:001c1ee0       ?chunkCount@Header@Imf@@QEBAAEBHXZ 00000001801c2ee0 f   OpenExr:ImfHeader.obj
 0001:001c1f30       ?chunkCount@Header@Imf@@QEAAAEAHXZ 00000001801c2f30 f   OpenExr:ImfHeader.obj
 0001:001c1f80       ?setView@Header@Imf@@QEAAXAEBV?$basic_string@DU?$char_traits@D@std@@V?$allocator@D@2@@std@@@Z 00000001801c2f80 f   OpenExr:ImfHeader.obj
 0001:001c2030       ?hasView@Header@Imf@@QEBA_NXZ 00000001801c3030 f   OpenExr:ImfHeader.obj
 0001:001c2090       ?view@Header@Imf@@QEAAAEAV?$basic_string@DU?$char_traits@D@std@@V?$allocator@D@2@@std@@XZ 00000001801c3090 f   OpenExr:ImfHeader.obj
 0001:001c20e0       ?view@Header@Imf@@QEBAAEBV?$basic_string@DU?$char_traits@D@std@@V?$allocator@D@2@@std@@XZ 00000001801c30e0 f   OpenExr:ImfHeader.obj
 0001:001c2130       ?setTileDescription@Header@Imf@@QEAAXAEBVTileDescription@2@@Z 00000001801c3130 f   OpenExr:ImfHeader.obj
 0001:001c21b0       ?tileDescription@Header@Imf@@QEAAAEAVTileDescription@2@XZ 00000001801c31b0 f   OpenExr:ImfHeader.obj
 0001:001c2200       ?tileDescription@Header@Imf@@QEBAAEBVTileDescription@2@XZ 00000001801c3200 f   OpenExr:ImfHeader.obj
 0001:001c2250       ?hasTileDescription@Header@Imf@@QEBA_NXZ 00000001801c3250 f   OpenExr:ImfHeader.obj
 0001:001c22b0       ?setPreviewImage@Header@Imf@@QEAAXAEBVPreviewImage@2@@Z 00000001801c32b0 f   OpenExr:ImfHeader.obj
 0001:001c2330       ?previewImage@Header@Imf@@QEAAAEAVPreviewImage@2@XZ 00000001801c3330 f   OpenExr:ImfHeader.obj
 0001:001c2380       ?previewImage@Header@Imf@@QEBAAEBVPreviewImage@2@XZ 00000001801c3380 f   OpenExr:ImfHeader.obj
 0001:001c23d0       ?hasPreviewImage@Header@Imf@@QEBA_NXZ 00000001801c33d0 f   OpenExr:ImfHeader.obj
 0001:001c2430       ?sanityCheck@Header@Imf@@QEBAX_N0@Z 00000001801c3430 f   OpenExr:ImfHeader.obj
 0001:001c3c10       ?setMaxImageSize@Header@Imf@@SAXHH@Z 00000001801c4c10 f   OpenExr:ImfHeader.obj
 0001:001c3c40       ?setMaxTileSize@Header@Imf@@SAXHH@Z 00000001801c4c40 f   OpenExr:ImfHeader.obj
 0001:001c3c70       ?readsNothing@Header@Imf@@QEAA_NXZ 00000001801c4c70 f   OpenExr:ImfHeader.obj
 0001:001c3c90       ?writeTo@Header@Imf@@QEBA_KAEAVOStream@2@_N@Z 00000001801c4c90 f   OpenExr:ImfHeader.obj
 0001:001c3f50       ?readFrom@Header@Imf@@QEAAXAEAVIStream@2@AEAH@Z 00000001801c4f50 f   OpenExr:ImfHeader.obj
 0001:001c43b0       ?staticInitialize@Imf@@YAXXZ 00000001801c53b0 f   OpenExr:ImfHeader.obj
 0001:001c44f0       ?initialize@?A0x95c1cadf@Imf@@YAXAEAVHeader@2@AEBV?$Box@V?$Vec2@H@Imath@@@Imath@@1MAEBV?$Vec2@M@5@MW4LineOrder@2@W4Compression@2@@Z 00000001801c54f0 f   OpenExr:ImfHeader.obj
 0001:001c47d0       ??$?0$$QEAVName@Imf@@$$$V@?$pair@$$CBVName@Imf@@PEAVAttribute@2@@std@@QEAA@Upiecewise_construct_t@1@V?$tuple@$$QEAVName@Imf@@@1@V?$tuple@$$$V@1@@Z 00000001801c57d0 f i OpenExr:ImfHeader.obj
 0001:001c4850       ??$?0$$QEAVName@Imf@@PEAPEAX@?$tuple@$$QEAVName@Imf@@@std@@QEAA@$$QEAV01@@Z 00000001801c5850 f i OpenExr:ImfHeader.obj
 0001:001c48c0       ??$?0AEAV?$_Tree_iterator@V?$_Tree_val@U?$_Tree_simple_types@U?$pair@$$CBVName@Imf@@PEAVAttribute@2@@std@@@std@@@std@@@std@@_NX@?$pair@V?$_Tree_iterator@V?$_Tree_val@U?$_Tree_simple_types@U?$pair@$$CBVName@Imf@@PEAVAttribute@2@@std@@@std@@@std@@@std@@_N@std@@QEAA@AEAV?$_Tree_iterator@V?$_Tree_val@U?$_Tree_simple_types@U?$pair@$$CBVName@Imf@@PEAVAttribute@2@@std@@@std@@@std@@@1@$$QEA_N@Z 00000001801c58c0 f i OpenExr:ImfHeader.obj
 0001:001c4930       ??$?0U?$_Tree_node@U?$pair@$$CBVName@Imf@@PEAVAttribute@2@@std@@PEAX@std@@@?$allocator@U_Container_proxy@std@@@std@@QEAA@AEBV?$allocator@U?$_Tree_node@U?$pair@$$CBVName@Imf@@PEAVAttribute@2@@std@@PEAX@std@@@1@@Z 00000001801c5930 f i OpenExr:ImfHeader.obj
 0001:001c4950       ??$?0U?$_Tree_node@U?$pair@$$CBVName@Imf@@UChannel@2@@std@@PEAX@std@@@?$allocator@U_Container_proxy@std@@@std@@QEAA@AEBV?$allocator@U?$_Tree_node@U?$pair@$$CBVName@Imf@@UChannel@2@@std@@PEAX@std@@@1@@Z 00000001801c5950 f i OpenExr:ImfHeader.obj
 0001:001c4970       ??$?0U?$_Wrap_alloc@V?$allocator@U?$_Tree_node@U?$pair@$$CBVName@Imf@@PEAVAttribute@2@@std@@PEAX@std@@@std@@@std@@@?$_Wrap_alloc@V?$allocator@U_Container_proxy@std@@@std@@@std@@QEAA@AEBU?$_Wrap_alloc@V?$allocator@U?$_Tree_node@U?$pair@$$CBVName@Imf@@PEAVAttribute@2@@std@@PEAX@std@@@std@@@1@@Z 00000001801c5970 f i OpenExr:ImfHeader.obj
 0001:001c49b0       ??$?0U?$_Wrap_alloc@V?$allocator@U?$_Tree_node@U?$pair@$$CBVName@Imf@@UChannel@2@@std@@PEAX@std@@@std@@@std@@@?$_Wrap_alloc@V?$allocator@U_Container_proxy@std@@@std@@@std@@QEAA@AEBU?$_Wrap_alloc@V?$allocator@U?$_Tree_node@U?$pair@$$CBVName@Imf@@UChannel@2@@std@@PEAX@std@@@std@@@1@@Z 00000001801c59b0 f i OpenExr:ImfHeader.obj
 0001:001c49f0       ??$?0V?$_Tree_iterator@V?$_Tree_val@U?$_Tree_simple_types@U?$pair@$$CBVName@Imf@@PEAVAttribute@2@@std@@@std@@@std@@@std@@_NX@?$pair@V?$_Tree_iterator@V?$_Tree_val@U?$_Tree_simple_types@U?$pair@$$CBVName@Imf@@PEAVAttribute@2@@std@@@std@@@std@@@std@@_N@std@@QEAA@$$QEAV?$_Tree_iterator@V?$_Tree_val@U?$_Tree_simple_types@U?$pair@$$CBVName@Imf@@PEAVAttribute@2@@std@@@std@@@std@@@1@$$QEA_N@Z 00000001801c59f0 f i OpenExr:ImfHeader.obj
 0001:001c4a60       ??$?0V?$tuple@$$QEAVName@Imf@@@std@@V?$tuple@$$$V@1@$0A@$S@?$pair@$$CBVName@Imf@@PEAVAttribute@2@@std@@QEAA@AEAV?$tuple@$$QEAVName@Imf@@@1@AEAV?$tuple@$$$V@1@U?$_Arg_idx@$0A@@1@U?$_Arg_idx@$S@1@@Z 00000001801c5a60 f i OpenExr:ImfHeader.obj
 0001:001c4ad0       ??$?0VName@Imf@@$$$VPEAPEAX@?$tuple@$$QEAVName@Imf@@@std@@QEAA@$$QEAVName@Imf@@@Z 00000001801c5ad0 f i OpenExr:ImfHeader.obj
 0001:001c4b20       ??$?0VName@Imf@@@?$_Tuple_val@$$QEAVName@Imf@@@std@@QEAA@$$QEAVName@Imf@@@Z 00000001801c5b20 f i OpenExr:ImfHeader.obj
 0001:001c4b60       ??$?6U?$char_traits@D@std@@@std@@YAAEAV?$basic_ostream@DU?$char_traits@D@std@@@0@AEAV10@PEBD@Z 00000001801c5b60 f i OpenExr:ImfHeader.obj
 0001:001c4f80       ??$?8MM@std@@YA_NAEBV?$allocator@M@0@0@Z 00000001801c5f80 f i OpenExr:ImfHeader.obj
 0001:001c4f90       ??$?8U?$_Tree_node@U?$pair@$$CBVName@Imf@@UChannel@2@@std@@PEAX@std@@U01@@std@@YA_NAEBV?$allocator@U?$_Tree_node@U?$pair@$$CBVName@Imf@@UChannel@2@@std@@PEAX@std@@@0@0@Z 00000001801c5f90 f i OpenExr:ImfHeader.obj
 0001:001c4fa0       ??$?8V?$allocator@M@std@@V01@@std@@YA_NAEBU?$_Wrap_alloc@V?$allocator@M@std@@@0@0@Z 00000001801c5fa0 f i OpenExr:ImfHeader.obj
 0001:001c5000       ??$?8V?$allocator@U?$_Tree_node@U?$pair@$$CBVName@Imf@@UChannel@2@@std@@PEAX@std@@@std@@V01@@std@@YA_NAEBU?$_Wrap_alloc@V?$allocator@U?$_Tree_node@U?$pair@$$CBVName@Imf@@UChannel@2@@std@@PEAX@std@@@std@@@0@0@Z 00000001801c6000 f i OpenExr:ImfHeader.obj
 0001:001c5060       ??$?8V?$allocator@V?$basic_string@DU?$char_traits@D@std@@V?$allocator@D@2@@std@@@std@@V01@@std@@YA_NAEBU?$_Wrap_alloc@V?$allocator@V?$basic_string@DU?$char_traits@D@std@@V?$allocator@D@2@@std@@@std@@@0@0@Z 00000001801c6060 f i OpenExr:ImfHeader.obj
 0001:001c50c0       ??$?8V?$basic_string@DU?$char_traits@D@std@@V?$allocator@D@2@@std@@V01@@std@@YA_NAEBV?$allocator@V?$basic_string@DU?$char_traits@D@std@@V?$allocator@D@2@@std@@@0@0@Z 00000001801c60c0 f i OpenExr:ImfHeader.obj
 0001:001c50d0       ??$?9DU?$char_traits@D@std@@V?$allocator@D@1@@std@@YA_NAEBV?$basic_string@DU?$char_traits@D@std@@V?$allocator@D@2@@0@PEBD@Z 00000001801c60d0 f i OpenExr:ImfHeader.obj
 0001:001c5130       ??$?9V?$allocator@M@std@@V01@@std@@YA_NAEBU?$_Wrap_alloc@V?$allocator@M@std@@@0@0@Z 00000001801c6130 f i OpenExr:ImfHeader.obj
 0001:001c5190       ??$?9V?$allocator@U?$_Tree_node@U?$pair@$$CBVName@Imf@@UChannel@2@@std@@PEAX@std@@@std@@V01@@std@@YA_NAEBU?$_Wrap_alloc@V?$allocator@U?$_Tree_node@U?$pair@$$CBVName@Imf@@UChannel@2@@std@@PEAX@std@@@std@@@0@0@Z 00000001801c6190 f i OpenExr:ImfHeader.obj
 0001:001c51f0       ??$?9V?$allocator@V?$basic_string@DU?$char_traits@D@std@@V?$allocator@D@2@@std@@@std@@V01@@std@@YA_NAEBU?$_Wrap_alloc@V?$allocator@V?$basic_string@DU?$char_traits@D@std@@V?$allocator@D@2@@std@@@std@@@0@0@Z 00000001801c61f0 f i OpenExr:ImfHeader.obj
 0001:001c5250       ??$?HDU?$char_traits@D@std@@V?$allocator@D@1@@std@@YA?AV?$basic_string@DU?$char_traits@D@std@@V?$allocator@D@2@@0@$$QEAV10@AEBV10@@Z 00000001801c6250 f i OpenExr:ImfHeader.obj
 0001:001c52c0       ??$?HDU?$char_traits@D@std@@V?$allocator@D@1@@std@@YA?AV?$basic_string@DU?$char_traits@D@std@@V?$allocator@D@2@@0@$$QEAV10@PEBD@Z 00000001801c62c0 f i OpenExr:ImfHeader.obj
 0001:001c5330       ??$?HDU?$char_traits@D@std@@V?$allocator@D@1@@std@@YA?AV?$basic_string@DU?$char_traits@D@std@@V?$allocator@D@2@@0@AEBV10@PEBD@Z 00000001801c6330 f i OpenExr:ImfHeader.obj
 0001:001c5440       ??$_Allocate@M@std@@YAPEAM_KPEAM@Z 00000001801c6440 f i OpenExr:ImfHeader.obj
 0001:001c54c0       ??$_Allocate@U?$_Tree_node@U?$pair@$$CBVName@Imf@@PEAVAttribute@2@@std@@PEAX@std@@@std@@YAPEAU?$_Tree_node@U?$pair@$$CBVName@Imf@@PEAVAttribute@2@@std@@PEAX@0@_KPEAU10@@Z 00000001801c64c0 f i OpenExr:ImfHeader.obj
 0001:001c5540       ??$_Allocate@U?$_Tree_node@U?$pair@$$CBVName@Imf@@UChannel@2@@std@@PEAX@std@@@std@@YAPEAU?$_Tree_node@U?$pair@$$CBVName@Imf@@UChannel@2@@std@@PEAX@0@_KPEAU10@@Z 00000001801c6540 f i OpenExr:ImfHeader.obj
 0001:001c55c0       ??$_Allocate@V?$basic_string@DU?$char_traits@D@std@@V?$allocator@D@2@@std@@@std@@YAPEAV?$basic_string@DU?$char_traits@D@std@@V?$allocator@D@2@@0@_KPEAV10@@Z 00000001801c65c0 f i OpenExr:ImfHeader.obj
 0001:001c5640       ??$_Buynode@AEAU?$pair@$$CBVName@Imf@@UChannel@2@@std@@@?$_Tree_buy@U?$pair@$$CBVName@Imf@@UChannel@2@@std@@V?$allocator@U?$pair@$$CBVName@Imf@@UChannel@2@@std@@@2@@std@@QEAAPEAU?$_Tree_node@U?$pair@$$CBVName@Imf@@UChannel@2@@std@@PEAX@1@AEAU?$pair@$$CBVName@Imf@@UChannel@2@@1@@Z 00000001801c6640 f i OpenExr:ImfHeader.obj
 0001:001c5700       ??$_Buynode@AEBUpiecewise_construct_t@std@@V?$tuple@$$QEAVName@Imf@@@2@V?$tuple@$$$V@2@@?$_Tree_buy@U?$pair@$$CBVName@Imf@@PEAVAttribute@2@@std@@V?$allocator@U?$pair@$$CBVName@Imf@@PEAVAttribute@2@@std@@@2@@std@@QEAAPEAU?$_Tree_node@U?$pair@$$CBVName@Imf@@PEAVAttribute@2@@std@@PEAX@1@AEBUpiecewise_construct_t@1@$$QEAV?$tuple@$$QEAVName@Imf@@@1@$$QEAV?$tuple@$$$V@1@@Z 00000001801c6700 f i OpenExr:ImfHeader.obj
 0001:001c5800       ??$_Buynode_if_nil@AEAU?$pair@$$CBVName@Imf@@PEAVAttribute@2@@std@@@?$_Tree@V?$_Tmap_traits@VName@Imf@@PEAVAttribute@2@U?$less@VName@Imf@@@std@@V?$allocator@U?$pair@$$CBVName@Imf@@PEAVAttribute@2@@std@@@5@$0A@@std@@@std@@IEAAPEAU?$_Tree_node@U?$pair@$$CBVName@Imf@@PEAVAttribute@2@@std@@PEAX@1@PEAU21@AEAU?$pair@$$CBVName@Imf@@PEAVAttribute@2@@1@@Z 00000001801c6800 f i OpenExr:ImfHeader.obj
 0001:001c5820       ??$_Copy@U?$integral_constant@_N$0A@@std@@@?$_Tree@V?$_Tmap_traits@VName@Imf@@UChannel@2@U?$less@VName@Imf@@@std@@V?$allocator@U?$pair@$$CBVName@Imf@@UChannel@2@@std@@@5@$0A@@std@@@std@@IEAAXAEBV01@U?$integral_constant@_N$0A@@1@@Z 00000001801c6820 f i OpenExr:ImfHeader.obj
 0001:001c5940       ??$_Copy_impl@PEAMPEAM@std@@YAPEAMPEAM00@Z 00000001801c6940 f i OpenExr:ImfHeader.obj
 0001:001c59a0       ??$_Copy_impl@PEAMPEAM@std@@YAPEAMPEAM00U_Scalar_ptr_iterator_tag@0@@Z 00000001801c69a0 f i OpenExr:ImfHeader.obj
 0001:001c5a20       ??$_Copy_impl@PEAV?$basic_string@DU?$char_traits@D@std@@V?$allocator@D@2@@std@@PEAV12@@std@@YAPEAV?$basic_string@DU?$char_traits@D@std@@V?$allocator@D@2@@0@PEAV10@00@Z 00000001801c6a20 f i OpenExr:ImfHeader.obj
 0001:001c5a80       ??$_Copy_impl@PEAV?$basic_string@DU?$char_traits@D@std@@V?$allocator@D@2@@std@@PEAV12@@std@@YAPEAV?$basic_string@DU?$char_traits@D@std@@V?$allocator@D@2@@0@PEAV10@00U_Nonscalar_ptr_iterator_tag@0@@Z 00000001801c6a80 f i OpenExr:ImfHeader.obj
 0001:001c5b00       ??$_Copy_nodes@U?$integral_constant@_N$0A@@std@@@?$_Tree@V?$_Tmap_traits@VName@Imf@@UChannel@2@U?$less@VName@Imf@@@std@@V?$allocator@U?$pair@$$CBVName@Imf@@UChannel@2@@std@@@5@$0A@@std@@@std@@IEAAPEAU?$_Tree_node@U?$pair@$$CBVName@Imf@@UChannel@2@@std@@PEAX@1@PEAU21@0U?$integral_constant@_N$0A@@1@@Z 00000001801c6b00 f i OpenExr:ImfHeader.obj
 0001:001c5cd0       ??$_Copy_or_move@U?$integral_constant@_N$0A@@std@@U?$integral_constant@_N$00@2@U12@H@?$_Tree@V?$_Tmap_traits@VName@Imf@@UChannel@2@U?$less@VName@Imf@@@std@@V?$allocator@U?$pair@$$CBVName@Imf@@UChannel@2@@std@@@5@$0A@@std@@@std@@IEAAPEAU?$_Tree_node@U?$pair@$$CBVName@Imf@@UChannel@2@@std@@PEAX@1@PEAU21@U?$integral_constant@_N$0A@@1@U?$integral_constant@_N$00@1@1H@Z 00000001801c6cd0 f i OpenExr:ImfHeader.obj
 0001:001c5d20       ??$_Debug_lt_pred@U?$less@VName@Imf@@@std@@AEBVName@Imf@@AEBV34@@std@@YA_NU?$less@VName@Imf@@@0@AEBVName@Imf@@1PEB_WI@Z 00000001801c6d20 f i OpenExr:ImfHeader.obj
 0001:001c5de0       ??$_Debug_pointer@M@std@@YAXPEAMPEB_WI@Z 00000001801c6de0 f i OpenExr:ImfHeader.obj
 0001:001c5e30       ??$_Debug_pointer@V?$basic_string@DU?$char_traits@D@std@@V?$allocator@D@2@@std@@@std@@YAXPEAV?$basic_string@DU?$char_traits@D@std@@V?$allocator@D@2@@0@PEB_WI@Z 00000001801c6e30 f i OpenExr:ImfHeader.obj
 0001:001c5e80       ??$_Debug_range2@PEAM@std@@YAXPEAM0PEB_WIUrandom_access_iterator_tag@0@@Z 00000001801c6e80 f i OpenExr:ImfHeader.obj
 0001:001c5f10       ??$_Debug_range2@PEAV?$basic_string@DU?$char_traits@D@std@@V?$allocator@D@2@@std@@@std@@YAXPEAV?$basic_string@DU?$char_traits@D@std@@V?$allocator@D@2@@0@0PEB_WIUrandom_access_iterator_tag@0@@Z 00000001801c6f10 f i OpenExr:ImfHeader.obj
 0001:001c5fa0       ??$_Debug_range@PEAM@std@@YAXPEAM0PEB_WI@Z 00000001801c6fa0 f i OpenExr:ImfHeader.obj
 0001:001c6010       ??$_Debug_range@PEAV?$basic_string@DU?$char_traits@D@std@@V?$allocator@D@2@@std@@@std@@YAXPEAV?$basic_string@DU?$char_traits@D@std@@V?$allocator@D@2@@0@0PEB_WI@Z 00000001801c7010 f i OpenExr:ImfHeader.obj
 0001:001c6080       ??$_Destroy_range@U?$_Wrap_alloc@V?$allocator@M@std@@@std@@@std@@YAXPEAM0AEAU?$_Wrap_alloc@V?$allocator@M@std@@@0@@Z 00000001801c7080 f i OpenExr:ImfHeader.obj
 0001:001c60e0       ??$_Destroy_range@U?$_Wrap_alloc@V?$allocator@M@std@@@std@@@std@@YAXPEAM0AEAU?$_Wrap_alloc@V?$allocator@M@std@@@0@U_Scalar_ptr_iterator_tag@0@@Z 00000001801c70e0 f i OpenExr:ImfHeader.obj
 0001:001c6100       ??$_Destroy_range@U?$_Wrap_alloc@V?$allocator@V?$basic_string@DU?$char_traits@D@std@@V?$allocator@D@2@@std@@@std@@@std@@@std@@YAXPEAV?$basic_string@DU?$char_traits@D@std@@V?$allocator@D@2@@0@0AEAU?$_Wrap_alloc@V?$allocator@V?$basic_string@DU?$char_traits@D@std@@V?$allocator@D@2@@std@@@std@@@0@@Z 00000001801c7100 f i OpenExr:ImfHeader.obj
 0001:001c6160       ??$_Destroy_range@U?$_Wrap_alloc@V?$allocator@V?$basic_string@DU?$char_traits@D@std@@V?$allocator@D@2@@std@@@std@@@std@@@std@@YAXPEAV?$basic_string@DU?$char_traits@D@std@@V?$allocator@D@2@@0@0AEAU?$_Wrap_alloc@V?$allocator@V?$basic_string@DU?$char_traits@D@std@@V?$allocator@D@2@@std@@@std@@@0@U_Nonscalar_ptr_iterator_tag@0@@Z 00000001801c7160 f i OpenExr:ImfHeader.obj
 0001:001c61c0       ??$_Insert_at@AEAU?$pair@$$CBVName@Imf@@PEAVAttribute@2@@std@@PEAU?$_Tree_node@U?$pair@$$CBVName@Imf@@PEAVAttribute@2@@std@@PEAX@2@@?$_Tree@V?$_Tmap_traits@VName@Imf@@PEAVAttribute@2@U?$less@VName@Imf@@@std@@V?$allocator@U?$pair@$$CBVName@Imf@@PEAVAttribute@2@@std@@@5@$0A@@std@@@std@@IEAA?AV?$_Tree_iterator@V?$_Tree_val@U?$_Tree_simple_types@U?$pair@$$CBVName@Imf@@PEAVAttribute@2@@std@@@std@@@std@@@1@_NPEAU?$_Tree_node@U?$pair@$$CBVName@Imf@@PEAVAttribute@2@@std@@PEAX@1@AEAU?$pair@$$CBVName@Imf@@PEAVAttribute@2@@1@1@Z 00000001801c71c0 f i OpenExr:ImfHeader.obj
 0001:001c6620       ??$_Insert_hint@AEAU?$pair@$$CBVName@Imf@@PEAVAttribute@2@@std@@PEAU?$_Tree_node@U?$pair@$$CBVName@Imf@@PEAVAttribute@2@@std@@PEAX@2@@?$_Tree@V?$_Tmap_traits@VName@Imf@@PEAVAttribute@2@U?$less@VName@Imf@@@std@@V?$allocator@U?$pair@$$CBVName@Imf@@PEAVAttribute@2@@std@@@5@$0A@@std@@@std@@IEAA?AV?$_Tree_iterator@V?$_Tree_val@U?$_Tree_simple_types@U?$pair@$$CBVName@Imf@@PEAVAttribute@2@@std@@@std@@@std@@@1@V?$_Tree_const_iterator@V?$_Tree_val@U?$_Tree_simple_types@U?$pair@$$CBVName@Imf@@PEAVAttribute@2@@std@@@std@@@std@@@1@AEAU?$pair@$$CBVName@Imf@@PEAVAttribute@2@@1@PEAU?$_Tree_node@U?$pair@$$CBVName@Imf@@PEAVAttribute@2@@std@@PEAX@1@@Z 00000001801c7620 f i OpenExr:ImfHeader.obj
 0001:001c7d40       ??$_Insert_nohint@AEAU?$pair@$$CBVName@Imf@@PEAVAttribute@2@@std@@PEAU?$_Tree_node@U?$pair@$$CBVName@Imf@@PEAVAttribute@2@@std@@PEAX@2@@?$_Tree@V?$_Tmap_traits@VName@Imf@@PEAVAttribute@2@U?$less@VName@Imf@@@std@@V?$allocator@U?$pair@$$CBVName@Imf@@PEAVAttribute@2@@std@@@5@$0A@@std@@@std@@IEAA?AU?$pair@V?$_Tree_iterator@V?$_Tree_val@U?$_Tree_simple_types@U?$pair@$$CBVName@Imf@@PEAVAttribute@2@@std@@@std@@@std@@@std@@_N@1@_NAEAU?$pair@$$CBVName@Imf@@PEAVAttribute@2@@1@PEAU?$_Tree_node@U?$pair@$$CBVName@Imf@@PEAVAttribute@2@@std@@PEAX@1@@Z 00000001801c8d40 f i OpenExr:ImfHeader.obj
 0001:001c83e0       ??$_Iter_cat@PEAM@std@@YA?AUrandom_access_iterator_tag@0@AEBQEAM@Z 00000001801c93e0 f i OpenExr:ImfHeader.obj
 0001:001c8430       ??$_Iter_cat@PEAV?$basic_string@DU?$char_traits@D@std@@V?$allocator@D@2@@std@@@std@@YA?AUrandom_access_iterator_tag@0@AEBQEAV?$basic_string@DU?$char_traits@D@std@@V?$allocator@D@2@@0@@Z 00000001801c9430 f i OpenExr:ImfHeader.obj
 0001:001c8480       ??$_Kfn@$$CBVName@Imf@@PEAVAttribute@2@@?$_Tmap_traits@VName@Imf@@PEAVAttribute@2@U?$less@VName@Imf@@@std@@V?$allocator@U?$pair@$$CBVName@Imf@@PEAVAttribute@2@@std@@@5@$0A@@std@@SAAEBVName@Imf@@AEBU?$pair@$$CBVName@Imf@@PEAVAttribute@2@@1@@Z 00000001801c9480 f i OpenExr:ImfHeader.obj
 0001:001c8490       ??$_Move@AEAD@std@@YA$$QEADAEAD@Z 00000001801c9490 f i OpenExr:ImfHeader.obj
 0001:001c84a0       ??$_Ptr_cat@MM@std@@YA?AU_Scalar_ptr_iterator_tag@0@PEAM0@Z 00000001801c94a0 f i OpenExr:ImfHeader.obj
 0001:001c84f0       ??$_Ptr_cat@V?$basic_string@DU?$char_traits@D@std@@V?$allocator@D@2@@std@@V12@@std@@YA?AU_Nonscalar_ptr_iterator_tag@0@PEAV?$basic_string@DU?$char_traits@D@std@@V?$allocator@D@2@@0@0@Z 00000001801c94f0 f i OpenExr:ImfHeader.obj
 0001:001c8540       ??$_Rechecked@PEAMPEAM@std@@YAAEAPEAMAEAPEAMPEAM@Z 00000001801c9540 f i OpenExr:ImfHeader.obj
 0001:001c8560       ??$_Rechecked@PEAV?$basic_string@DU?$char_traits@D@std@@V?$allocator@D@2@@std@@PEAV12@@std@@YAAEAPEAV?$basic_string@DU?$char_traits@D@std@@V?$allocator@D@2@@0@AEAPEAV10@PEAV10@@Z 00000001801c9560 f i OpenExr:ImfHeader.obj
 0001:001c8580       ??$_Ucopy@PEAM@?$vector@MV?$allocator@M@std@@@std@@IEAAPEAMPEAM00@Z 00000001801c9580 f i OpenExr:ImfHeader.obj
 0001:001c85f0       ??$_Ucopy@PEAV?$basic_string@DU?$char_traits@D@std@@V?$allocator@D@2@@std@@@?$vector@V?$basic_string@DU?$char_traits@D@std@@V?$allocator@D@2@@std@@V?$allocator@V?$basic_string@DU?$char_traits@D@std@@V?$allocator@D@2@@std@@@2@@std@@IEAAPEAV?$basic_string@DU?$char_traits@D@std@@V?$allocator@D@2@@1@PEAV21@00@Z 00000001801c95f0 f i OpenExr:ImfHeader.obj
 0001:001c8660       ??$_Unchecked@PEAM@std@@YAPEAMPEAM@Z 00000001801c9660 f i OpenExr:ImfHeader.obj
 0001:001c8670       ??$_Unchecked@PEAV?$basic_string@DU?$char_traits@D@std@@V?$allocator@D@2@@std@@@std@@YAPEAV?$basic_string@DU?$char_traits@D@std@@V?$allocator@D@2@@0@PEAV10@@Z 00000001801c9670 f i OpenExr:ImfHeader.obj
 0001:001c8680       ??$_Uninit_copy@MM@std@@YAPEAMPEAM00AEAU?$_Wrap_alloc@V?$allocator@M@std@@@0@U_Scalar_ptr_iterator_tag@0@@Z 00000001801c9680 f i OpenExr:ImfHeader.obj
 0001:001c8730       ??$_Uninit_copy@PEAMPEAMU?$_Wrap_alloc@V?$allocator@M@std@@@std@@@std@@YAPEAMPEAM00AEAU?$_Wrap_alloc@V?$allocator@M@std@@@0@@Z 00000001801c9730 f i OpenExr:ImfHeader.obj
 0001:001c87a0       ??$_Uninit_copy@PEAV?$basic_string@DU?$char_traits@D@std@@V?$allocator@D@2@@std@@PEAV12@U?$_Wrap_alloc@V?$allocator@V?$basic_string@DU?$char_traits@D@std@@V?$allocator@D@2@@std@@@std@@@2@@std@@YAPEAV?$basic_string@DU?$char_traits@D@std@@V?$allocator@D@2@@0@PEAV10@00AEAU?$_Wrap_alloc@V?$allocator@V?$basic_string@DU?$char_traits@D@std@@V?$allocator@D@2@@std@@@std@@@0@@Z 00000001801c97a0 f i OpenExr:ImfHeader.obj
 0001:001c8810       ??$_Uninit_copy@PEAV?$basic_string@DU?$char_traits@D@std@@V?$allocator@D@2@@std@@PEAV12@V?$allocator@V?$basic_string@DU?$char_traits@D@std@@V?$allocator@D@2@@std@@@2@@std@@YAPEAV?$basic_string@DU?$char_traits@D@std@@V?$allocator@D@2@@0@PEAV10@00AEAU?$_Wrap_alloc@V?$allocator@V?$basic_string@DU?$char_traits@D@std@@V?$allocator@D@2@@std@@@std@@@0@U_Nonscalar_ptr_iterator_tag@0@@Z 00000001801c9810 f i OpenExr:ImfHeader.obj
 0001:001c88d0       ??$_Uninitialized_copy@PEAMPEAMU?$_Wrap_alloc@V?$allocator@M@std@@@std@@@std@@YAPEAMPEAM00AEAU?$_Wrap_alloc@V?$allocator@M@std@@@0@@Z 00000001801c98d0 f i OpenExr:ImfHeader.obj
 0001:001c8960       ??$_Uninitialized_copy@PEAV?$basic_string@DU?$char_traits@D@std@@V?$allocator@D@2@@std@@PEAV12@U?$_Wrap_alloc@V?$allocator@V?$basic_string@DU?$char_traits@D@std@@V?$allocator@D@2@@std@@@std@@@2@@std@@YAPEAV?$basic_string@DU?$char_traits@D@std@@V?$allocator@D@2@@0@PEAV10@00AEAU?$_Wrap_alloc@V?$allocator@V?$basic_string@DU?$char_traits@D@std@@V?$allocator@D@2@@std@@@std@@@0@@Z 00000001801c9960 f i OpenExr:ImfHeader.obj
 0001:001c89f0       ??$addressof@$$CBU?$pair@$$CBVName@Imf@@PEAVAttribute@2@@std@@@std@@YAPEBU?$pair@$$CBVName@Imf@@PEAVAttribute@2@@0@AEBU10@@Z 00000001801c99f0 f i OpenExr:ImfHeader.obj
 0001:001c8a00       ??$addressof@$$CBU?$pair@$$CBVName@Imf@@UChannel@2@@std@@@std@@YAPEBU?$pair@$$CBVName@Imf@@UChannel@2@@0@AEBU10@@Z 00000001801c9a00 f i OpenExr:ImfHeader.obj
 0001:001c8a10       ??$addressof@PEAU?$_Tree_node@U?$pair@$$CBVName@Imf@@PEAVAttribute@2@@std@@PEAX@std@@@std@@YAPEAPEAU?$_Tree_node@U?$pair@$$CBVName@Imf@@PEAVAttribute@2@@std@@PEAX@0@AEAPEAU10@@Z 00000001801c9a10 f i OpenExr:ImfHeader.obj
 0001:001c8a20       ??$addressof@PEAU?$_Tree_node@U?$pair@$$CBVName@Imf@@UChannel@2@@std@@PEAX@std@@@std@@YAPEAPEAU?$_Tree_node@U?$pair@$$CBVName@Imf@@UChannel@2@@std@@PEAX@0@AEAPEAU10@@Z 00000001801c9a20 f i OpenExr:ImfHeader.obj
 0001:001c8a30       ??$addressof@U?$pair@$$CBVName@Imf@@PEAVAttribute@2@@std@@@std@@YAPEAU?$pair@$$CBVName@Imf@@PEAVAttribute@2@@0@AEAU10@@Z 00000001801c9a30 f i OpenExr:ImfHeader.obj
 0001:001c8a40       ??$addressof@U?$pair@$$CBVName@Imf@@UChannel@2@@std@@@std@@YAPEAU?$pair@$$CBVName@Imf@@UChannel@2@@0@AEAU10@@Z 00000001801c9a40 f i OpenExr:ImfHeader.obj
 0001:001c8a50       ??$checkIsNullTerminated@$0BAA@@?A0x95c1cadf@Imf@@YAXAEAY0BAA@$$CBDPEBD@Z 00000001801c9a50 f i OpenExr:ImfHeader.obj
 0001:001c8bd0       ??$construct@PEAU?$_Tree_node@U?$pair@$$CBVName@Imf@@PEAVAttribute@2@@std@@PEAX@std@@AEAPEAU12@@?$_Wrap_alloc@V?$allocator@U?$_Tree_node@U?$pair@$$CBVName@Imf@@PEAVAttribute@2@@std@@PEAX@std@@@std@@@std@@QEAAXPEAPEAU?$_Tree_node@U?$pair@$$CBVName@Imf@@PEAVAttribute@2@@std@@PEAX@1@AEAPEAU21@@Z 00000001801c9bd0 f i OpenExr:ImfHeader.obj
 0001:001c8c20       ??$construct@PEAU?$_Tree_node@U?$pair@$$CBVName@Imf@@PEAVAttribute@2@@std@@PEAX@std@@AEAPEAU12@@?$allocator@U?$_Tree_node@U?$pair@$$CBVName@Imf@@PEAVAttribute@2@@std@@PEAX@std@@@std@@QEAAXPEAPEAU?$_Tree_node@U?$pair@$$CBVName@Imf@@PEAVAttribute@2@@std@@PEAX@1@AEAPEAU21@@Z 00000001801c9c20 f i OpenExr:ImfHeader.obj
 0001:001c8cb0       ??$construct@PEAU?$_Tree_node@U?$pair@$$CBVName@Imf@@PEAVAttribute@2@@std@@PEAX@std@@AEAPEAU12@@?$allocator_traits@V?$allocator@U?$_Tree_node@U?$pair@$$CBVName@Imf@@PEAVAttribute@2@@std@@PEAX@std@@@std@@@std@@SAXAEAV?$allocator@U?$_Tree_node@U?$pair@$$CBVName@Imf@@PEAVAttribute@2@@std@@PEAX@std@@@1@PEAPEAU?$_Tree_node@U?$pair@$$CBVName@Imf@@PEAVAttribute@2@@std@@PEAX@1@AEAPEAU31@@Z 00000001801c9cb0 f i OpenExr:ImfHeader.obj
 0001:001c8d00       ??$construct@PEAU?$_Tree_node@U?$pair@$$CBVName@Imf@@UChannel@2@@std@@PEAX@std@@AEAPEAU12@@?$_Wrap_alloc@V?$allocator@U?$_Tree_node@U?$pair@$$CBVName@Imf@@UChannel@2@@std@@PEAX@std@@@std@@@std@@QEAAXPEAPEAU?$_Tree_node@U?$pair@$$CBVName@Imf@@UChannel@2@@std@@PEAX@1@AEAPEAU21@@Z 00000001801c9d00 f i OpenExr:ImfHeader.obj
 0001:001c8d50       ??$construct@PEAU?$_Tree_node@U?$pair@$$CBVName@Imf@@UChannel@2@@std@@PEAX@std@@AEAPEAU12@@?$allocator@U?$_Tree_node@U?$pair@$$CBVName@Imf@@UChannel@2@@std@@PEAX@std@@@std@@QEAAXPEAPEAU?$_Tree_node@U?$pair@$$CBVName@Imf@@UChannel@2@@std@@PEAX@1@AEAPEAU21@@Z 00000001801c9d50 f i OpenExr:ImfHeader.obj
 0001:001c8de0       ??$construct@PEAU?$_Tree_node@U?$pair@$$CBVName@Imf@@UChannel@2@@std@@PEAX@std@@AEAPEAU12@@?$allocator_traits@V?$allocator@U?$_Tree_node@U?$pair@$$CBVName@Imf@@UChannel@2@@std@@PEAX@std@@@std@@@std@@SAXAEAV?$allocator@U?$_Tree_node@U?$pair@$$CBVName@Imf@@UChannel@2@@std@@PEAX@std@@@1@PEAPEAU?$_Tree_node@U?$pair@$$CBVName@Imf@@UChannel@2@@std@@PEAX@1@AEAPEAU31@@Z 00000001801c9de0 f i OpenExr:ImfHeader.obj
 0001:001c8e30       ??$construct@U?$pair@$$CBVName@Imf@@PEAVAttribute@2@@std@@AEBUpiecewise_construct_t@2@V?$tuple@$$QEAVName@Imf@@@2@V?$tuple@$$$V@2@@?$_Wrap_alloc@V?$allocator@U?$_Tree_node@U?$pair@$$CBVName@Imf@@PEAVAttribute@2@@std@@PEAX@std@@@std@@@std@@QEAAXPEAU?$pair@$$CBVName@Imf@@PEAVAttribute@2@@1@AEBUpiecewise_construct_t@1@$$QEAV?$tuple@$$QEAVName@Imf@@@1@$$QEAV?$tuple@$$$V@1@@Z 00000001801c9e30 f i OpenExr:ImfHeader.obj
 0001:001c8eb0       ??$construct@U?$pair@$$CBVName@Imf@@PEAVAttribute@2@@std@@AEBUpiecewise_construct_t@2@V?$tuple@$$QEAVName@Imf@@@2@V?$tuple@$$$V@2@@?$allocator@U?$_Tree_node@U?$pair@$$CBVName@Imf@@PEAVAttribute@2@@std@@PEAX@std@@@std@@QEAAXPEAU?$pair@$$CBVName@Imf@@PEAVAttribute@2@@1@AEBUpiecewise_construct_t@1@$$QEAV?$tuple@$$QEAVName@Imf@@@1@$$QEAV?$tuple@$$$V@1@@Z 00000001801c9eb0 f i OpenExr:ImfHeader.obj
 0001:001c8fb0       ??$construct@U?$pair@$$CBVName@Imf@@PEAVAttribute@2@@std@@AEBUpiecewise_construct_t@2@V?$tuple@$$QEAVName@Imf@@@2@V?$tuple@$$$V@2@@?$allocator_traits@V?$allocator@U?$_Tree_node@U?$pair@$$CBVName@Imf@@PEAVAttribute@2@@std@@PEAX@std@@@std@@@std@@SAXAEAV?$allocator@U?$_Tree_node@U?$pair@$$CBVName@Imf@@PEAVAttribute@2@@std@@PEAX@std@@@1@PEAU?$pair@$$CBVName@Imf@@PEAVAttribute@2@@1@AEBUpiecewise_construct_t@1@$$QEAV?$tuple@$$QEAVName@Imf@@@1@$$QEAV?$tuple@$$$V@1@@Z 00000001801c9fb0 f i OpenExr:ImfHeader.obj
 0001:001c9030       ??$construct@U?$pair@$$CBVName@Imf@@UChannel@2@@std@@AEAU12@@?$_Wrap_alloc@V?$allocator@U?$_Tree_node@U?$pair@$$CBVName@Imf@@UChannel@2@@std@@PEAX@std@@@std@@@std@@QEAAXPEAU?$pair@$$CBVName@Imf@@UChannel@2@@1@AEAU21@@Z 00000001801ca030 f i OpenExr:ImfHeader.obj
 0001:001c9080       ??$construct@U?$pair@$$CBVName@Imf@@UChannel@2@@std@@AEAU12@@?$allocator@U?$_Tree_node@U?$pair@$$CBVName@Imf@@UChannel@2@@std@@PEAX@std@@@std@@QEAAXPEAU?$pair@$$CBVName@Imf@@UChannel@2@@1@AEAU21@@Z 00000001801ca080 f i OpenExr:ImfHeader.obj
 0001:001c9110       ??$construct@U?$pair@$$CBVName@Imf@@UChannel@2@@std@@AEAU12@@?$allocator_traits@V?$allocator@U?$_Tree_node@U?$pair@$$CBVName@Imf@@UChannel@2@@std@@PEAX@std@@@std@@@std@@SAXAEAV?$allocator@U?$_Tree_node@U?$pair@$$CBVName@Imf@@UChannel@2@@std@@PEAX@std@@@1@PEAU?$pair@$$CBVName@Imf@@UChannel@2@@1@AEAU31@@Z 00000001801ca110 f i OpenExr:ImfHeader.obj
 0001:001c9160       ??$construct@V?$basic_string@DU?$char_traits@D@std@@V?$allocator@D@2@@std@@AEAV12@@?$_Wrap_alloc@V?$allocator@V?$basic_string@DU?$char_traits@D@std@@V?$allocator@D@2@@std@@@std@@@std@@QEAAXPEAV?$basic_string@DU?$char_traits@D@std@@V?$allocator@D@2@@1@AEAV21@@Z 00000001801ca160 f i OpenExr:ImfHeader.obj
 0001:001c91b0       ??$construct@V?$basic_string@DU?$char_traits@D@std@@V?$allocator@D@2@@std@@AEAV12@@?$allocator@V?$basic_string@DU?$char_traits@D@std@@V?$allocator@D@2@@std@@@std@@QEAAXPEAV?$basic_string@DU?$char_traits@D@std@@V?$allocator@D@2@@1@AEAV21@@Z 00000001801ca1b0 f i OpenExr:ImfHeader.obj
 0001:001c9240       ??$construct@V?$basic_string@DU?$char_traits@D@std@@V?$allocator@D@2@@std@@AEAV12@@?$allocator_traits@V?$allocator@V?$basic_string@DU?$char_traits@D@std@@V?$allocator@D@2@@std@@@std@@@std@@SAXAEAV?$allocator@V?$basic_string@DU?$char_traits@D@std@@V?$allocator@D@2@@std@@@1@PEAV?$basic_string@DU?$char_traits@D@std@@V?$allocator@D@2@@1@AEAV31@@Z 00000001801ca240 f i OpenExr:ImfHeader.obj
 0001:001c9290       ??$destroy@PEAU?$_Tree_node@U?$pair@$$CBVName@Imf@@PEAVAttribute@2@@std@@PEAX@std@@@?$_Wrap_alloc@V?$allocator@U?$_Tree_node@U?$pair@$$CBVName@Imf@@PEAVAttribute@2@@std@@PEAX@std@@@std@@@std@@QEAAXPEAPEAU?$_Tree_node@U?$pair@$$CBVName@Imf@@PEAVAttribute@2@@std@@PEAX@1@@Z 00000001801ca290 f i OpenExr:ImfHeader.obj
 0001:001c92d0       ??$destroy@PEAU?$_Tree_node@U?$pair@$$CBVName@Imf@@PEAVAttribute@2@@std@@PEAX@std@@@?$allocator@U?$_Tree_node@U?$pair@$$CBVName@Imf@@PEAVAttribute@2@@std@@PEAX@std@@@std@@QEAAXPEAPEAU?$_Tree_node@U?$pair@$$CBVName@Imf@@PEAVAttribute@2@@std@@PEAX@1@@Z 00000001801ca2d0 f i OpenExr:ImfHeader.obj
 0001:001c92e0       ??$destroy@PEAU?$_Tree_node@U?$pair@$$CBVName@Imf@@PEAVAttribute@2@@std@@PEAX@std@@@?$allocator_traits@V?$allocator@U?$_Tree_node@U?$pair@$$CBVName@Imf@@PEAVAttribute@2@@std@@PEAX@std@@@std@@@std@@SAXAEAV?$allocator@U?$_Tree_node@U?$pair@$$CBVName@Imf@@PEAVAttribute@2@@std@@PEAX@std@@@1@PEAPEAU?$_Tree_node@U?$pair@$$CBVName@Imf@@PEAVAttribute@2@@std@@PEAX@1@@Z 00000001801ca2e0 f i OpenExr:ImfHeader.obj
 0001:001c9320       ??$destroy@PEAU?$_Tree_node@U?$pair@$$CBVName@Imf@@UChannel@2@@std@@PEAX@std@@@?$_Wrap_alloc@V?$allocator@U?$_Tree_node@U?$pair@$$CBVName@Imf@@UChannel@2@@std@@PEAX@std@@@std@@@std@@QEAAXPEAPEAU?$_Tree_node@U?$pair@$$CBVName@Imf@@UChannel@2@@std@@PEAX@1@@Z 00000001801ca320 f i OpenExr:ImfHeader.obj
 0001:001c9360       ??$destroy@PEAU?$_Tree_node@U?$pair@$$CBVName@Imf@@UChannel@2@@std@@PEAX@std@@@?$allocator@U?$_Tree_node@U?$pair@$$CBVName@Imf@@UChannel@2@@std@@PEAX@std@@@std@@QEAAXPEAPEAU?$_Tree_node@U?$pair@$$CBVName@Imf@@UChannel@2@@std@@PEAX@1@@Z 00000001801ca360 f i OpenExr:ImfHeader.obj
 0001:001c9370       ??$destroy@PEAU?$_Tree_node@U?$pair@$$CBVName@Imf@@UChannel@2@@std@@PEAX@std@@@?$allocator_traits@V?$allocator@U?$_Tree_node@U?$pair@$$CBVName@Imf@@UChannel@2@@std@@PEAX@std@@@std@@@std@@SAXAEAV?$allocator@U?$_Tree_node@U?$pair@$$CBVName@Imf@@UChannel@2@@std@@PEAX@std@@@1@PEAPEAU?$_Tree_node@U?$pair@$$CBVName@Imf@@UChannel@2@@std@@PEAX@1@@Z 00000001801ca370 f i OpenExr:ImfHeader.obj
 0001:001c93b0       ??$destroy@U?$pair@$$CBVName@Imf@@PEAVAttribute@2@@std@@@?$_Wrap_alloc@V?$allocator@U?$_Tree_node@U?$pair@$$CBVName@Imf@@PEAVAttribute@2@@std@@PEAX@std@@@std@@@std@@QEAAXPEAU?$pair@$$CBVName@Imf@@PEAVAttribute@2@@1@@Z 00000001801ca3b0 f i OpenExr:ImfHeader.obj
 0001:001c93f0       ??$destroy@U?$pair@$$CBVName@Imf@@PEAVAttribute@2@@std@@@?$allocator@U?$_Tree_node@U?$pair@$$CBVName@Imf@@PEAVAttribute@2@@std@@PEAX@std@@@std@@QEAAXPEAU?$pair@$$CBVName@Imf@@PEAVAttribute@2@@1@@Z 00000001801ca3f0 f i OpenExr:ImfHeader.obj
 0001:001c9400       ??$destroy@U?$pair@$$CBVName@Imf@@PEAVAttribute@2@@std@@@?$allocator_traits@V?$allocator@U?$_Tree_node@U?$pair@$$CBVName@Imf@@PEAVAttribute@2@@std@@PEAX@std@@@std@@@std@@SAXAEAV?$allocator@U?$_Tree_node@U?$pair@$$CBVName@Imf@@PEAVAttribute@2@@std@@PEAX@std@@@1@PEAU?$pair@$$CBVName@Imf@@PEAVAttribute@2@@1@@Z 00000001801ca400 f i OpenExr:ImfHeader.obj
 0001:001c9440       ??$destroy@U?$pair@$$CBVName@Imf@@UChannel@2@@std@@@?$_Wrap_alloc@V?$allocator@U?$_Tree_node@U?$pair@$$CBVName@Imf@@UChannel@2@@std@@PEAX@std@@@std@@@std@@QEAAXPEAU?$pair@$$CBVName@Imf@@UChannel@2@@1@@Z 00000001801ca440 f i OpenExr:ImfHeader.obj
 0001:001c9480       ??$destroy@U?$pair@$$CBVName@Imf@@UChannel@2@@std@@@?$allocator@U?$_Tree_node@U?$pair@$$CBVName@Imf@@UChannel@2@@std@@PEAX@std@@@std@@QEAAXPEAU?$pair@$$CBVName@Imf@@UChannel@2@@1@@Z 00000001801ca480 f i OpenExr:ImfHeader.obj
 0001:001c9490       ??$destroy@U?$pair@$$CBVName@Imf@@UChannel@2@@std@@@?$allocator_traits@V?$allocator@U?$_Tree_node@U?$pair@$$CBVName@Imf@@UChannel@2@@std@@PEAX@std@@@std@@@std@@SAXAEAV?$allocator@U?$_Tree_node@U?$pair@$$CBVName@Imf@@UChannel@2@@std@@PEAX@std@@@1@PEAU?$pair@$$CBVName@Imf@@UChannel@2@@1@@Z 00000001801ca490 f i OpenExr:ImfHeader.obj
 0001:001c94d0       ??$destroy@V?$basic_string@DU?$char_traits@D@std@@V?$allocator@D@2@@std@@@?$_Wrap_alloc@V?$allocator@V?$basic_string@DU?$char_traits@D@std@@V?$allocator@D@2@@std@@@std@@@std@@QEAAXPEAV?$basic_string@DU?$char_traits@D@std@@V?$allocator@D@2@@1@@Z 00000001801ca4d0 f i OpenExr:ImfHeader.obj
 0001:001c9510       ??$destroy@V?$basic_string@DU?$char_traits@D@std@@V?$allocator@D@2@@std@@@?$allocator@V?$basic_string@DU?$char_traits@D@std@@V?$allocator@D@2@@std@@@std@@QEAAXPEAV?$basic_string@DU?$char_traits@D@std@@V?$allocator@D@2@@1@@Z 00000001801ca510 f i OpenExr:ImfHeader.obj
 0001:001c9550       ??$destroy@V?$basic_string@DU?$char_traits@D@std@@V?$allocator@D@2@@std@@@?$allocator_traits@V?$allocator@V?$basic_string@DU?$char_traits@D@std@@V?$allocator@D@2@@std@@@std@@@std@@SAXAEAV?$allocator@V?$basic_string@DU?$char_traits@D@std@@V?$allocator@D@2@@std@@@1@PEAV?$basic_string@DU?$char_traits@D@std@@V?$allocator@D@2@@1@@Z 00000001801ca550 f i OpenExr:ImfHeader.obj
 0001:001c9590       ??$emplace_hint@AEBUpiecewise_construct_t@std@@V?$tuple@$$QEAVName@Imf@@@2@V?$tuple@$$$V@2@@?$_Tree@V?$_Tmap_traits@VName@Imf@@PEAVAttribute@2@U?$less@VName@Imf@@@std@@V?$allocator@U?$pair@$$CBVName@Imf@@PEAVAttribute@2@@std@@@5@$0A@@std@@@std@@QEAA?AV?$_Tree_iterator@V?$_Tree_val@U?$_Tree_simple_types@U?$pair@$$CBVName@Imf@@PEAVAttribute@2@@std@@@std@@@std@@@1@V?$_Tree_const_iterator@V?$_Tree_val@U?$_Tree_simple_types@U?$pair@$$CBVName@Imf@@PEAVAttribute@2@@std@@@std@@@std@@@1@AEBUpiecewise_construct_t@1@$$QEAV?$tuple@$$QEAVName@Imf@@@1@$$QEAV?$tuple@$$$V@1@@Z 00000001801ca590 f i OpenExr:ImfHeader.obj
 0001:001c96c0       ??$findTypedAttribute@V?$TypedAttribute@H@Imf@@@Header@Imf@@QEBAPEBV?$TypedAttribute@H@1@QEBD@Z 00000001801ca6c0 f i OpenExr:ImfHeader.obj
 0001:001c9820       ??$findTypedAttribute@V?$TypedAttribute@V?$basic_string@DU?$char_traits@D@std@@V?$allocator@D@2@@std@@@Imf@@@Header@Imf@@QEBAPEBV?$TypedAttribute@V?$basic_string@DU?$char_traits@D@std@@V?$allocator@D@2@@std@@@1@QEBD@Z 00000001801ca820 f i OpenExr:ImfHeader.obj
 0001:001c9980       ??$findTypedAttribute@V?$TypedAttribute@VPreviewImage@Imf@@@Imf@@@Header@Imf@@QEBAPEBV?$TypedAttribute@VPreviewImage@Imf@@@1@QEBD@Z 00000001801ca980 f i OpenExr:ImfHeader.obj
 0001:001c9ae0       ??$findTypedAttribute@V?$TypedAttribute@VTileDescription@Imf@@@Imf@@@Header@Imf@@QEBAPEBV?$TypedAttribute@VTileDescription@Imf@@@1@QEBD@Z 00000001801caae0 f i OpenExr:ImfHeader.obj
 0001:001c9c40       ??$forward@$$QEAVName@Imf@@@std@@YA$$QEAVName@Imf@@AEAV12@@Z 00000001801cac40 f i OpenExr:ImfHeader.obj
 0001:001c9c50       ??$forward@AEAPEAU?$_Tree_node@U?$pair@$$CBVName@Imf@@PEAVAttribute@2@@std@@PEAX@std@@@std@@YAAEAPEAU?$_Tree_node@U?$pair@$$CBVName@Imf@@PEAVAttribute@2@@std@@PEAX@0@AEAPEAU10@@Z 00000001801cac50 f i OpenExr:ImfHeader.obj
 0001:001c9c60       ??$forward@AEAPEAU?$_Tree_node@U?$pair@$$CBVName@Imf@@UChannel@2@@std@@PEAX@std@@@std@@YAAEAPEAU?$_Tree_node@U?$pair@$$CBVName@Imf@@UChannel@2@@std@@PEAX@0@AEAPEAU10@@Z 00000001801cac60 f i OpenExr:ImfHeader.obj
 0001:001c9c70       ??$forward@AEAU?$pair@$$CBVName@Imf@@PEAVAttribute@2@@std@@@std@@YAAEAU?$pair@$$CBVName@Imf@@PEAVAttribute@2@@0@AEAU10@@Z 00000001801cac70 f i OpenExr:ImfHeader.obj
 0001:001c9c80       ??$forward@AEAU?$pair@$$CBVName@Imf@@UChannel@2@@std@@@std@@YAAEAU?$pair@$$CBVName@Imf@@UChannel@2@@0@AEAU10@@Z 00000001801cac80 f i OpenExr:ImfHeader.obj
 0001:001c9c90       ??$forward@AEAV?$_Tree_iterator@V?$_Tree_val@U?$_Tree_simple_types@U?$pair@$$CBVName@Imf@@PEAVAttribute@2@@std@@@std@@@std@@@std@@@std@@YAAEAV?$_Tree_iterator@V?$_Tree_val@U?$_Tree_simple_types@U?$pair@$$CBVName@Imf@@PEAVAttribute@2@@std@@@std@@@std@@@0@AEAV10@@Z 00000001801cac90 f i OpenExr:ImfHeader.obj
 0001:001c9ca0       ??$forward@AEAV?$basic_string@DU?$char_traits@D@std@@V?$allocator@D@2@@std@@@std@@YAAEAV?$basic_string@DU?$char_traits@D@std@@V?$allocator@D@2@@0@AEAV10@@Z 00000001801caca0 f i OpenExr:ImfHeader.obj
 0001:001c9cb0       ??$forward@AEBUpiecewise_construct_t@std@@@std@@YAAEBUpiecewise_construct_t@0@AEBU10@@Z 00000001801cacb0 f i OpenExr:ImfHeader.obj
 0001:001c9cc0       ??$forward@AEBVName@Imf@@@std@@YAAEBVName@Imf@@AEBV12@@Z 00000001801cacc0 f i OpenExr:ImfHeader.obj
 0001:001c9cd0       ??$forward@V?$_Tree_iterator@V?$_Tree_val@U?$_Tree_simple_types@U?$pair@$$CBVName@Imf@@PEAVAttribute@2@@std@@@std@@@std@@@std@@@std@@YA$$QEAV?$_Tree_iterator@V?$_Tree_val@U?$_Tree_simple_types@U?$pair@$$CBVName@Imf@@PEAVAttribute@2@@std@@@std@@@std@@@0@AEAV10@@Z 00000001801cacd0 f i OpenExr:ImfHeader.obj
 0001:001c9ce0       ??$forward@V?$tuple@$$$V@std@@@std@@YA$$QEAV?$tuple@$$$V@0@AEAV10@@Z 00000001801cace0 f i OpenExr:ImfHeader.obj
 0001:001c9cf0       ??$forward@V?$tuple@$$QEAVName@Imf@@@std@@@std@@YA$$QEAV?$tuple@$$QEAVName@Imf@@@0@AEAV10@@Z 00000001801cacf0 f i OpenExr:ImfHeader.obj
 0001:001c9d00       ??$forward@VName@Imf@@@std@@YA$$QEAVName@Imf@@AEAV12@@Z 00000001801cad00 f i OpenExr:ImfHeader.obj
 0001:001c9d10       ??$forward@_N@std@@YA$$QEA_NAEA_N@Z 00000001801cad10 f i OpenExr:ImfHeader.obj
 0001:001c9d20       ??$forward_as_tuple@VName@Imf@@@std@@YA?AV?$tuple@$$QEAVName@Imf@@@0@$$QEAVName@Imf@@@Z 00000001801cad20 f i OpenExr:ImfHeader.obj
 0001:001c9d70       ??$get@$0A@$$QEAVName@Imf@@@std@@YA$$QEAVName@Imf@@$$QEAV?$tuple@$$QEAVName@Imf@@@0@@Z 00000001801cad70 f i OpenExr:ImfHeader.obj
 0001:001c9db0       ??$move@AEAV?$basic_string@DU?$char_traits@D@std@@V?$allocator@D@2@@std@@@std@@YA$$QEAV?$basic_string@DU?$char_traits@D@std@@V?$allocator@D@2@@0@AEAV10@@Z 00000001801cadb0 f i OpenExr:ImfHeader.obj
 0001:001c9dc0       ??$move@AEAV?$tuple@$$QEAVName@Imf@@@std@@@std@@YA$$QEAV?$tuple@$$QEAVName@Imf@@@0@AEAV10@@Z 00000001801cadc0 f i OpenExr:ImfHeader.obj
 0001:001c9dd0       ??$move@AEAVName@Imf@@@std@@YA$$QEAVName@Imf@@AEAV12@@Z 00000001801cadd0 f i OpenExr:ImfHeader.obj
 0001:001c9de0       ??$read@UStreamIO@Imf@@VIStream@2@@Xdr@Imf@@YAXAEAVIStream@1@AEAH@Z 00000001801cade0 f i OpenExr:ImfHeader.obj
 0001:001c9e90       ??$read@UStreamIO@Imf@@VIStream@2@@Xdr@Imf@@YAXAEAVIStream@1@AEAM@Z 00000001801cae90 f i OpenExr:ImfHeader.obj
 0001:001c9f50       ??$read@UStreamIO@Imf@@VIStream@2@@Xdr@Imf@@YAXAEAVIStream@1@AEAN@Z 00000001801caf50 f i OpenExr:ImfHeader.obj
 0001:001ca0c0       ??$read@UStreamIO@Imf@@VIStream@2@@Xdr@Imf@@YAXAEAVIStream@1@HQEAD@Z 00000001801cb0c0 f i OpenExr:ImfHeader.obj
 0001:001ca130       ??$readSignedChars@UStreamIO@Imf@@VIStream@2@@Xdr@Imf@@YAXAEAVIStream@1@QEACH@Z 00000001801cb130 f i OpenExr:ImfHeader.obj
 0001:001ca180       ??$readUnsignedChars@UStreamIO@Imf@@VIStream@2@@Xdr@Imf@@YAXAEAVIStream@1@QEAEH@Z 00000001801cb180 f i OpenExr:ImfHeader.obj
 0001:001ca1d0       ??$swap@D@std@@YAXAEAD0@Z  00000001801cb1d0 f i OpenExr:ImfHeader.obj
 0001:001ca250       ??$typedAttribute@V?$TypedAttribute@H@Imf@@@Header@Imf@@QEAAAEAV?$TypedAttribute@H@1@QEBD@Z 00000001801cb250 f i OpenExr:ImfHeader.obj
 0001:001ca320       ??$typedAttribute@V?$TypedAttribute@H@Imf@@@Header@Imf@@QEBAAEBV?$TypedAttribute@H@1@QEBD@Z 00000001801cb320 f i OpenExr:ImfHeader.obj
 0001:001ca3f0       ??$typedAttribute@V?$TypedAttribute@V?$basic_string@DU?$char_traits@D@std@@V?$allocator@D@2@@std@@@Imf@@@Header@Imf@@QEAAAEAV?$TypedAttribute@V?$basic_string@DU?$char_traits@D@std@@V?$allocator@D@2@@std@@@1@QEBD@Z 00000001801cb3f0 f i OpenExr:ImfHeader.obj
 0001:001ca4c0       ??$typedAttribute@V?$TypedAttribute@V?$basic_string@DU?$char_traits@D@std@@V?$allocator@D@2@@std@@@Imf@@@Header@Imf@@QEBAAEBV?$TypedAttribute@V?$basic_string@DU?$char_traits@D@std@@V?$allocator@D@2@@std@@@1@QEBD@Z 00000001801cb4c0 f i OpenExr:ImfHeader.obj
 0001:001ca590       ??$typedAttribute@V?$TypedAttribute@VPreviewImage@Imf@@@Imf@@@Header@Imf@@QEAAAEAV?$TypedAttribute@VPreviewImage@Imf@@@1@QEBD@Z 00000001801cb590 f i OpenExr:ImfHeader.obj
 0001:001ca660       ??$typedAttribute@V?$TypedAttribute@VPreviewImage@Imf@@@Imf@@@Header@Imf@@QEBAAEBV?$TypedAttribute@VPreviewImage@Imf@@@1@QEBD@Z 00000001801cb660 f i OpenExr:ImfHeader.obj
 0001:001ca730       ??$typedAttribute@V?$TypedAttribute@VTileDescription@Imf@@@Imf@@@Header@Imf@@QEAAAEAV?$TypedAttribute@VTileDescription@Imf@@@1@QEBD@Z 00000001801cb730 f i OpenExr:ImfHeader.obj
 0001:001ca800       ??$typedAttribute@V?$TypedAttribute@VTileDescription@Imf@@@Imf@@@Header@Imf@@QEBAAEBV?$TypedAttribute@VTileDescription@Imf@@@1@QEBD@Z 00000001801cb800 f i OpenExr:ImfHeader.obj
 0001:001ca8d0       ??$write@UStreamIO@Imf@@VOStream@2@@Xdr@Imf@@YAXAEAVOStream@1@H@Z 00000001801cb8d0 f i OpenExr:ImfHeader.obj
 0001:001ca970       ??$write@UStreamIO@Imf@@VOStream@2@@Xdr@Imf@@YAXAEAVOStream@1@M@Z 00000001801cb970 f i OpenExr:ImfHeader.obj
 0001:001caa20       ??$write@UStreamIO@Imf@@VOStream@2@@Xdr@Imf@@YAXAEAVOStream@1@N@Z 00000001801cba20 f i OpenExr:ImfHeader.obj
 0001:001cab50       ??$write@UStreamIO@Imf@@VOStream@2@@Xdr@Imf@@YAXAEAVOStream@1@QEBD@Z 00000001801cbb50 f i OpenExr:ImfHeader.obj
 0001:001cabc0       ??$writeSignedChars@UStreamIO@Imf@@VOStream@2@@Xdr@Imf@@YAXAEAVOStream@1@QEBCH@Z 00000001801cbbc0 f i OpenExr:ImfHeader.obj
 0001:001cac10       ??$writeUnsignedChars@UStreamIO@Imf@@VOStream@2@@Xdr@Imf@@YAXAEAVOStream@1@QEBEH@Z 00000001801cbc10 f i OpenExr:ImfHeader.obj
 0001:001cac60       ??0?$Box@V?$Vec2@H@Imath@@@Imath@@QEAA@AEBV01@@Z 00000001801cbc60 f i OpenExr:ImfHeader.obj
 0001:001cacc0       ??0?$Box@V?$Vec2@M@Imath@@@Imath@@QEAA@XZ 00000001801cbcc0 f i OpenExr:ImfHeader.obj
 0001:001cad20       ??0?$Matrix33@M@Imath@@QEAA@XZ 00000001801cbd20 f i OpenExr:ImfHeader.obj
 0001:001cade0       ??0?$Matrix33@N@Imath@@QEAA@XZ 00000001801cbde0 f i OpenExr:ImfHeader.obj
 0001:001caea0       ??0?$Matrix44@M@Imath@@QEAA@XZ 00000001801cbea0 f i OpenExr:ImfHeader.obj
 0001:001caf90       ??0?$Matrix44@N@Imath@@QEAA@XZ 00000001801cbf90 f i OpenExr:ImfHeader.obj
 0001:001cb080       ??0?$TypedAttribute@H@Imf@@QEAA@AEBH@Z 00000001801cc080 f i OpenExr:ImfHeader.obj
 0001:001cb0e0       ??0?$TypedAttribute@H@Imf@@QEAA@XZ 00000001801cc0e0 f i OpenExr:ImfHeader.obj
 0001:001cb130       ??0?$TypedAttribute@M@Imf@@QEAA@AEBM@Z 00000001801cc130 f i OpenExr:ImfHeader.obj
 0001:001cb190       ??0?$TypedAttribute@M@Imf@@QEAA@XZ 00000001801cc190 f i OpenExr:ImfHeader.obj
 0001:001cb1e0       ??0?$TypedAttribute@N@Imf@@QEAA@XZ 00000001801cc1e0 f i OpenExr:ImfHeader.obj
 0001:001cb230       ??0?$TypedAttribute@UChromaticities@Imf@@@Imf@@QEAA@XZ 00000001801cc230 f i OpenExr:ImfHeader.obj
 0001:001cb330       ??0?$TypedAttribute@V?$Box@V?$Vec2@H@Imath@@@Imath@@@Imf@@QEAA@AEBV?$Box@V?$Vec2@H@Imath@@@Imath@@@Z 00000001801cc330 f i OpenExr:ImfHeader.obj
 0001:001cb3a0       ??0?$TypedAttribute@V?$Box@V?$Vec2@H@Imath@@@Imath@@@Imf@@QEAA@XZ 00000001801cc3a0 f i OpenExr:ImfHeader.obj
 0001:001cb400       ??0?$TypedAttribute@V?$Box@V?$Vec2@M@Imath@@@Imath@@@Imf@@QEAA@XZ 00000001801cc400 f i OpenExr:ImfHeader.obj
 0001:001cb460       ??0?$TypedAttribute@V?$Matrix33@M@Imath@@@Imf@@QEAA@XZ 00000001801cc460 f i OpenExr:ImfHeader.obj
 0001:001cb4c0       ??0?$TypedAttribute@V?$Matrix33@N@Imath@@@Imf@@QEAA@XZ 00000001801cc4c0 f i OpenExr:ImfHeader.obj
 0001:001cb520       ??0?$TypedAttribute@V?$Matrix44@M@Imath@@@Imf@@QEAA@XZ 00000001801cc520 f i OpenExr:ImfHeader.obj
 0001:001cb580       ??0?$TypedAttribute@V?$Matrix44@N@Imath@@@Imf@@QEAA@XZ 00000001801cc580 f i OpenExr:ImfHeader.obj
 0001:001cb5e0       ??0?$TypedAttribute@V?$Vec2@H@Imath@@@Imf@@QEAA@XZ 00000001801cc5e0 f i OpenExr:ImfHeader.obj
 0001:001cb640       ??0?$TypedAttribute@V?$Vec2@M@Imath@@@Imf@@QEAA@AEBV?$Vec2@M@Imath@@@Z 00000001801cc640 f i OpenExr:ImfHeader.obj
 0001:001cb6b0       ??0?$TypedAttribute@V?$Vec2@M@Imath@@@Imf@@QEAA@XZ 00000001801cc6b0 f i OpenExr:ImfHeader.obj
 0001:001cb710       ??0?$TypedAttribute@V?$Vec2@N@Imath@@@Imf@@QEAA@XZ 00000001801cc710 f i OpenExr:ImfHeader.obj
 0001:001cb770       ??0?$TypedAttribute@V?$Vec3@H@Imath@@@Imf@@QEAA@XZ 00000001801cc770 f i OpenExr:ImfHeader.obj
 0001:001cb7d0       ??0?$TypedAttribute@V?$Vec3@M@Imath@@@Imf@@QEAA@XZ 00000001801cc7d0 f i OpenExr:ImfHeader.obj
 0001:001cb830       ??0?$TypedAttribute@V?$Vec3@N@Imath@@@Imf@@QEAA@XZ 00000001801cc830 f i OpenExr:ImfHeader.obj
 0001:001cb890       ??0?$TypedAttribute@V?$basic_string@DU?$char_traits@D@std@@V?$allocator@D@2@@std@@@Imf@@QEAA@AEBV?$basic_string@DU?$char_traits@D@std@@V?$allocator@D@2@@std@@@Z 00000001801cc890 f i OpenExr:ImfHeader.obj
 0001:001cb900       ??0?$TypedAttribute@V?$basic_string@DU?$char_traits@D@std@@V?$allocator@D@2@@std@@@Imf@@QEAA@XZ 00000001801cc900 f i OpenExr:ImfHeader.obj
 0001:001cb960       ??0?$TypedAttribute@V?$vector@MV?$allocator@M@std@@@std@@@Imf@@QEAA@XZ 00000001801cc960 f i OpenExr:ImfHeader.obj
 0001:001cb9c0       ??0?$TypedAttribute@V?$vector@V?$basic_string@DU?$char_traits@D@std@@V?$allocator@D@2@@std@@V?$allocator@V?$basic_string@DU?$char_traits@D@std@@V?$allocator@D@2@@std@@@2@@std@@@Imf@@QEAA@XZ 00000001801cc9c0 f i OpenExr:ImfHeader.obj
 0001:001cba20       ??0?$TypedAttribute@VChannelList@Imf@@@Imf@@QEAA@XZ 00000001801cca20 f i OpenExr:ImfHeader.obj
 0001:001cba80       ??0?$TypedAttribute@VKeyCode@Imf@@@Imf@@QEAA@XZ 00000001801cca80 f i OpenExr:ImfHeader.obj
 0001:001cbb10       ??0?$TypedAttribute@VPreviewImage@Imf@@@Imf@@QEAA@AEBVPreviewImage@1@@Z 00000001801ccb10 f i OpenExr:ImfHeader.obj
 0001:001cbb80       ??0?$TypedAttribute@VPreviewImage@Imf@@@Imf@@QEAA@XZ 00000001801ccb80 f i OpenExr:ImfHeader.obj
 0001:001cbbf0       ??0?$TypedAttribute@VRational@Imf@@@Imf@@QEAA@XZ 00000001801ccbf0 f i OpenExr:ImfHeader.obj
 0001:001cbc50       ??0?$TypedAttribute@VTileDescription@Imf@@@Imf@@QEAA@AEBVTileDescription@1@@Z 00000001801ccc50 f i OpenExr:ImfHeader.obj
 0001:001cbcb0       ??0?$TypedAttribute@VTileDescription@Imf@@@Imf@@QEAA@XZ 00000001801cccb0 f i OpenExr:ImfHeader.obj
 0001:001cbd30       ??0?$TypedAttribute@VTimeCode@Imf@@@Imf@@QEAA@XZ 00000001801ccd30 f i OpenExr:ImfHeader.obj
 0001:001cbd90       ??0?$TypedAttribute@W4Compression@Imf@@@Imf@@QEAA@AEBW4Compression@1@@Z 00000001801ccd90 f i OpenExr:ImfHeader.obj
 0001:001cbdf0       ??0?$TypedAttribute@W4Compression@Imf@@@Imf@@QEAA@XZ 00000001801ccdf0 f i OpenExr:ImfHeader.obj
 0001:001cbe40       ??0?$TypedAttribute@W4DeepImageState@Imf@@@Imf@@QEAA@XZ 00000001801cce40 f i OpenExr:ImfHeader.obj
 0001:001cbe90       ??0?$TypedAttribute@W4Envmap@Imf@@@Imf@@QEAA@XZ 00000001801cce90 f i OpenExr:ImfHeader.obj
 0001:001cbee0       ??0?$TypedAttribute@W4LineOrder@Imf@@@Imf@@QEAA@AEBW4LineOrder@1@@Z 00000001801ccee0 f i OpenExr:ImfHeader.obj
 0001:001cbf40       ??0?$TypedAttribute@W4LineOrder@Imf@@@Imf@@QEAA@XZ 00000001801ccf40 f i OpenExr:ImfHeader.obj
 0001:001cbf90       ??0?$Vec2@H@Imath@@QEAA@AEBV01@@Z 00000001801ccf90 f i OpenExr:ImfHeader.obj
 0001:001cbfc0       ??0?$Vec2@M@Imath@@QEAA@AEBV01@@Z 00000001801ccfc0 f i OpenExr:ImfHeader.obj
 0001:001cc000       ??0?$Vec2@M@Imath@@QEAA@M@Z 00000001801cd000 f i OpenExr:ImfHeader.obj
 0001:001cc040       ??0?$Vec2@M@Imath@@QEAA@XZ 00000001801cd040 f i OpenExr:ImfHeader.obj
 0001:001cc050       ??0?$Vec2@N@Imath@@QEAA@XZ 00000001801cd050 f i OpenExr:ImfHeader.obj
 0001:001cc060       ??0?$Vec3@H@Imath@@QEAA@XZ 00000001801cd060 f i OpenExr:ImfHeader.obj
 0001:001cc070       ??0?$Vec3@M@Imath@@QEAA@XZ 00000001801cd070 f i OpenExr:ImfHeader.obj
 0001:001cc080       ??0?$Vec3@N@Imath@@QEAA@XZ 00000001801cd080 f i OpenExr:ImfHeader.obj
 0001:001cc090       ??0?$_Iterator012@Ubidirectional_iterator_tag@std@@U?$pair@$$CBVName@Imf@@PEAVAttribute@2@@2@_JPEBU32@AEBU32@U_Iterator_base12@2@@std@@QEAA@AEBU01@@Z 00000001801cd090 f i OpenExr:ImfHeader.obj
 0001:001cc0d0       ??0?$_Iterator012@Ubidirectional_iterator_tag@std@@U?$pair@$$CBVName@Imf@@PEAVAttribute@2@@2@_JPEBU32@AEBU32@U_Iterator_base12@2@@std@@QEAA@XZ 00000001801cd0d0 f i OpenExr:ImfHeader.obj
 0001:001cc110       ??0?$_Iterator012@Ubidirectional_iterator_tag@std@@U?$pair@$$CBVName@Imf@@UChannel@2@@2@_JPEBU32@AEBU32@U_Iterator_base12@2@@std@@QEAA@AEBU01@@Z 00000001801cd110 f i OpenExr:ImfHeader.obj
 0001:001cc150       ??0?$_Iterator012@Ubidirectional_iterator_tag@std@@U?$pair@$$CBVName@Imf@@UChannel@2@@2@_JPEBU32@AEBU32@U_Iterator_base12@2@@std@@QEAA@XZ 00000001801cd150 f i OpenExr:ImfHeader.obj
 0001:001cc190       ??0?$_Tree@V?$_Tmap_traits@VName@Imf@@PEAVAttribute@2@U?$less@VName@Imf@@@std@@V?$allocator@U?$pair@$$CBVName@Imf@@PEAVAttribute@2@@std@@@5@$0A@@std@@@std@@QEAA@AEBU?$less@VName@Imf@@@1@AEBV?$allocator@U?$pair@$$CBVName@Imf@@PEAVAttribute@2@@std@@@1@@Z 00000001801cd190 f i OpenExr:ImfHeader.obj
 0001:001cc1e0       ??0?$_Tree@V?$_Tmap_traits@VName@Imf@@UChannel@2@U?$less@VName@Imf@@@std@@V?$allocator@U?$pair@$$CBVName@Imf@@UChannel@2@@std@@@5@$0A@@std@@@std@@QEAA@AEBU?$less@VName@Imf@@@1@AEBV?$allocator@U?$pair@$$CBVName@Imf@@UChannel@2@@std@@@1@@Z 00000001801cd1e0 f i OpenExr:ImfHeader.obj
 0001:001cc230       ??0?$_Tree_alloc@$0A@U?$_Tree_base_types@U?$pair@$$CBVName@Imf@@PEAVAttribute@2@@std@@V?$allocator@U?$pair@$$CBVName@Imf@@PEAVAttribute@2@@std@@@2@@std@@@std@@QEAA@AEBV?$allocator@U?$pair@$$CBVName@Imf@@PEAVAttribute@2@@std@@@1@@Z 00000001801cd230 f i OpenExr:ImfHeader.obj
 0001:001cc2a0       ??0?$_Tree_alloc@$0A@U?$_Tree_base_types@U?$pair@$$CBVName@Imf@@UChannel@2@@std@@V?$allocator@U?$pair@$$CBVName@Imf@@UChannel@2@@std@@@2@@std@@@std@@QEAA@AEBV?$allocator@U?$pair@$$CBVName@Imf@@UChannel@2@@std@@@1@@Z 00000001801cd2a0 f i OpenExr:ImfHeader.obj
 0001:001cc310       ??0?$_Tree_buy@U?$pair@$$CBVName@Imf@@PEAVAttribute@2@@std@@V?$allocator@U?$pair@$$CBVName@Imf@@PEAVAttribute@2@@std@@@2@@std@@QEAA@AEBV?$allocator@U?$pair@$$CBVName@Imf@@PEAVAttribute@2@@std@@@1@@Z 00000001801cd310 f i OpenExr:ImfHeader.obj
 0001:001cc350       ??0?$_Tree_buy@U?$pair@$$CBVName@Imf@@UChannel@2@@std@@V?$allocator@U?$pair@$$CBVName@Imf@@UChannel@2@@std@@@2@@std@@QEAA@AEBV?$allocator@U?$pair@$$CBVName@Imf@@UChannel@2@@std@@@1@@Z 00000001801cd350 f i OpenExr:ImfHeader.obj
 0001:001cc390       ??0?$_Tree_comp@$0A@V?$_Tmap_traits@VName@Imf@@PEAVAttribute@2@U?$less@VName@Imf@@@std@@V?$allocator@U?$pair@$$CBVName@Imf@@PEAVAttribute@2@@std@@@5@$0A@@std@@@std@@QEAA@AEBU?$less@VName@Imf@@@1@AEBV?$allocator@U?$pair@$$CBVName@Imf@@PEAVAttribute@2@@std@@@1@@Z 00000001801cd390 f i OpenExr:ImfHeader.obj
 0001:001cc3e0       ??0?$_Tree_comp@$0A@V?$_Tmap_traits@VName@Imf@@UChannel@2@U?$less@VName@Imf@@@std@@V?$allocator@U?$pair@$$CBVName@Imf@@UChannel@2@@std@@@5@$0A@@std@@@std@@QEAA@AEBU?$less@VName@Imf@@@1@AEBV?$allocator@U?$pair@$$CBVName@Imf@@UChannel@2@@std@@@1@@Z 00000001801cd3e0 f i OpenExr:ImfHeader.obj
 0001:001cc430       ??0?$_Tree_const_iterator@V?$_Tree_val@U?$_Tree_simple_types@U?$pair@$$CBVName@Imf@@PEAVAttribute@2@@std@@@std@@@std@@@std@@QEAA@AEBV01@@Z 00000001801cd430 f i OpenExr:ImfHeader.obj
 0001:001cc470       ??0?$_Tree_const_iterator@V?$_Tree_val@U?$_Tree_simple_types@U?$pair@$$CBVName@Imf@@PEAVAttribute@2@@std@@@std@@@std@@@std@@QEAA@PEAU?$_Tree_node@U?$pair@$$CBVName@Imf@@PEAVAttribute@2@@std@@PEAX@1@PEBV?$_Tree_val@U?$_Tree_simple_types@U?$pair@$$CBVName@Imf@@PEAVAttribute@2@@std@@@std@@@1@@Z 00000001801cd470 f i OpenExr:ImfHeader.obj
 0001:001cc4c0       ??0?$_Tree_const_iterator@V?$_Tree_val@U?$_Tree_simple_types@U?$pair@$$CBVName@Imf@@PEAVAttribute@2@@std@@@std@@@std@@@std@@QEAA@XZ 00000001801cd4c0 f i OpenExr:ImfHeader.obj
 0001:001cc500       ??0?$_Tree_const_iterator@V?$_Tree_val@U?$_Tree_simple_types@U?$pair@$$CBVName@Imf@@UChannel@2@@std@@@std@@@std@@@std@@QEAA@AEBV01@@Z 00000001801cd500 f i OpenExr:ImfHeader.obj
 0001:001cc540       ??0?$_Tree_const_iterator@V?$_Tree_val@U?$_Tree_simple_types@U?$pair@$$CBVName@Imf@@UChannel@2@@std@@@std@@@std@@@std@@QEAA@PEAU?$_Tree_node@U?$pair@$$CBVName@Imf@@UChannel@2@@std@@PEAX@1@PEBV?$_Tree_val@U?$_Tree_simple_types@U?$pair@$$CBVName@Imf@@UChannel@2@@std@@@std@@@1@@Z 00000001801cd540 f i OpenExr:ImfHeader.obj
 0001:001cc590       ??0?$_Tree_iterator@V?$_Tree_val@U?$_Tree_simple_types@U?$pair@$$CBVName@Imf@@PEAVAttribute@2@@std@@@std@@@std@@@std@@QEAA@AEBV01@@Z 00000001801cd590 f i OpenExr:ImfHeader.obj
 0001:001cc5d0       ??0?$_Tree_iterator@V?$_Tree_val@U?$_Tree_simple_types@U?$pair@$$CBVName@Imf@@PEAVAttribute@2@@std@@@std@@@std@@@std@@QEAA@PEAU?$_Tree_node@U?$pair@$$CBVName@Imf@@PEAVAttribute@2@@std@@PEAX@1@PEBV?$_Tree_val@U?$_Tree_simple_types@U?$pair@$$CBVName@Imf@@PEAVAttribute@2@@std@@@std@@@1@@Z 00000001801cd5d0 f i OpenExr:ImfHeader.obj
 0001:001cc620       ??0?$_Tree_iterator@V?$_Tree_val@U?$_Tree_simple_types@U?$pair@$$CBVName@Imf@@UChannel@2@@std@@@std@@@std@@@std@@QEAA@PEAU?$_Tree_node@U?$pair@$$CBVName@Imf@@UChannel@2@@std@@PEAX@1@PEBV?$_Tree_val@U?$_Tree_simple_types@U?$pair@$$CBVName@Imf@@UChannel@2@@std@@@std@@@1@@Z 00000001801cd620 f i OpenExr:ImfHeader.obj
 0001:001cc670       ??0?$_Tree_unchecked_const_iterator@V?$_Tree_val@U?$_Tree_simple_types@U?$pair@$$CBVName@Imf@@PEAVAttribute@2@@std@@@std@@@std@@U_Iterator_base12@2@@std@@QEAA@AEBV01@@Z 00000001801cd670 f i OpenExr:ImfHeader.obj
 0001:001cc6c0       ??0?$_Tree_unchecked_const_iterator@V?$_Tree_val@U?$_Tree_simple_types@U?$pair@$$CBVName@Imf@@PEAVAttribute@2@@std@@@std@@@std@@U_Iterator_base12@2@@std@@QEAA@PEAU?$_Tree_node@U?$pair@$$CBVName@Imf@@PEAVAttribute@2@@std@@PEAX@1@PEBV?$_Tree_val@U?$_Tree_simple_types@U?$pair@$$CBVName@Imf@@PEAVAttribute@2@@std@@@std@@@1@@Z 00000001801cd6c0 f i OpenExr:ImfHeader.obj
 0001:001cc730       ??0?$_Tree_unchecked_const_iterator@V?$_Tree_val@U?$_Tree_simple_types@U?$pair@$$CBVName@Imf@@PEAVAttribute@2@@std@@@std@@@std@@U_Iterator_base12@2@@std@@QEAA@XZ 00000001801cd730 f i OpenExr:ImfHeader.obj
 0001:001cc770       ??0?$_Tree_unchecked_const_iterator@V?$_Tree_val@U?$_Tree_simple_types@U?$pair@$$CBVName@Imf@@UChannel@2@@std@@@std@@@std@@U_Iterator_base12@2@@std@@QEAA@AEBV01@@Z 00000001801cd770 f i OpenExr:ImfHeader.obj
 0001:001cc7c0       ??0?$_Tree_unchecked_const_iterator@V?$_Tree_val@U?$_Tree_simple_types@U?$pair@$$CBVName@Imf@@UChannel@2@@std@@@std@@@std@@U_Iterator_base12@2@@std@@QEAA@PEAU?$_Tree_node@U?$pair@$$CBVName@Imf@@UChannel@2@@std@@PEAX@1@PEBV?$_Tree_val@U?$_Tree_simple_types@U?$pair@$$CBVName@Imf@@UChannel@2@@std@@@std@@@1@@Z 00000001801cd7c0 f i OpenExr:ImfHeader.obj
 0001:001cc830       ??0?$_Tree_val@U?$_Tree_simple_types@U?$pair@$$CBVName@Imf@@PEAVAttribute@2@@std@@@std@@@std@@QEAA@XZ 00000001801cd830 f i OpenExr:ImfHeader.obj
 0001:001cc880       ??0?$_Tree_val@U?$_Tree_simple_types@U?$pair@$$CBVName@Imf@@UChannel@2@@std@@@std@@@std@@QEAA@XZ 00000001801cd880 f i OpenExr:ImfHeader.obj
 0001:001cc8d0       ??0?$_Vector_alloc@$0A@U?$_Vec_base_types@MV?$allocator@M@std@@@std@@@std@@QEAA@AEBV?$allocator@M@1@@Z 00000001801cd8d0 f i OpenExr:ImfHeader.obj
 0001:001cc920       ??0?$_Vector_alloc@$0A@U?$_Vec_base_types@V?$basic_string@DU?$char_traits@D@std@@V?$allocator@D@2@@std@@V?$allocator@V?$basic_string@DU?$char_traits@D@std@@V?$allocator@D@2@@std@@@2@@std@@@std@@QEAA@AEBV?$allocator@V?$basic_string@DU?$char_traits@D@std@@V?$allocator@D@2@@std@@@1@@Z 00000001801cd920 f i OpenExr:ImfHeader.obj
 0001:001cc970       ??0?$_Vector_val@U?$_Simple_types@M@std@@@std@@QEAA@XZ 00000001801cd970 f i OpenExr:ImfHeader.obj
 0001:001cc9d0       ??0?$_Vector_val@U?$_Simple_types@V?$basic_string@DU?$char_traits@D@std@@V?$allocator@D@2@@std@@@std@@@std@@QEAA@XZ 00000001801cd9d0 f i OpenExr:ImfHeader.obj
 0001:001cca30       ??0?$_Wrap_alloc@V?$allocator@M@std@@@std@@QEAA@XZ 00000001801cda30 f i OpenExr:ImfHeader.obj
 0001:001cca70       ??0?$_Wrap_alloc@V?$allocator@U?$_Tree_node@U?$pair@$$CBVName@Imf@@PEAVAttribute@2@@std@@PEAX@std@@@std@@@std@@QEAA@XZ 00000001801cda70 f i OpenExr:ImfHeader.obj
 0001:001ccab0       ??0?$_Wrap_alloc@V?$allocator@U?$_Tree_node@U?$pair@$$CBVName@Imf@@UChannel@2@@std@@PEAX@std@@@std@@@std@@QEAA@XZ 00000001801cdab0 f i OpenExr:ImfHeader.obj
 0001:001ccaf0       ??0?$_Wrap_alloc@V?$allocator@V?$basic_string@DU?$char_traits@D@std@@V?$allocator@D@2@@std@@@std@@@std@@QEAA@XZ 00000001801cdaf0 f i OpenExr:ImfHeader.obj
 0001:001ccb30       ??0?$allocator@M@std@@QEAA@AEBV01@@Z 00000001801cdb30 f i OpenExr:ImfHeader.obj
 0001:001ccb50       ??0?$allocator@M@std@@QEAA@XZ 00000001801cdb50 f i OpenExr:ImfHeader.obj
 0001:001ccb60       ??0?$allocator@U?$_Tree_node@U?$pair@$$CBVName@Imf@@PEAVAttribute@2@@std@@PEAX@std@@@std@@QEAA@XZ 00000001801cdb60 f i OpenExr:ImfHeader.obj
 0001:001ccb70       ??0?$allocator@U?$_Tree_node@U?$pair@$$CBVName@Imf@@UChannel@2@@std@@PEAX@std@@@std@@QEAA@AEBV01@@Z 00000001801cdb70 f i OpenExr:ImfHeader.obj
 0001:001ccb90       ??0?$allocator@U?$_Tree_node@U?$pair@$$CBVName@Imf@@UChannel@2@@std@@PEAX@std@@@std@@QEAA@XZ 00000001801cdb90 f i OpenExr:ImfHeader.obj
 0001:001ccba0       ??0?$allocator@U?$pair@$$CBVName@Imf@@PEAVAttribute@2@@std@@@std@@QEAA@XZ 00000001801cdba0 f i OpenExr:ImfHeader.obj
 0001:001ccbb0       ??0?$allocator@U?$pair@$$CBVName@Imf@@UChannel@2@@std@@@std@@QEAA@XZ 00000001801cdbb0 f i OpenExr:ImfHeader.obj
 0001:001ccbc0       ??0?$allocator@V?$basic_string@DU?$char_traits@D@std@@V?$allocator@D@2@@std@@@std@@QEAA@AEBV01@@Z 00000001801cdbc0 f i OpenExr:ImfHeader.obj
 0001:001ccbe0       ??0?$allocator@V?$basic_string@DU?$char_traits@D@std@@V?$allocator@D@2@@std@@@std@@QEAA@XZ 00000001801cdbe0 f i OpenExr:ImfHeader.obj
 0001:001ccbf0       ??0?$basic_string@DU?$char_traits@D@std@@V?$allocator@D@2@@std@@QEAA@$$QEAV01@@Z 00000001801cdbf0 f i OpenExr:ImfHeader.obj
 0001:001ccc60       ??0?$basic_string@DU?$char_traits@D@std@@V?$allocator@D@2@@std@@QEAA@PEBD_K@Z 00000001801cdc60 f i OpenExr:ImfHeader.obj
 0001:001ccce0       ??0?$basic_stringbuf@DU?$char_traits@D@std@@V?$allocator@D@2@@std@@QEAA@H@Z 00000001801cdce0 f i OpenExr:ImfHeader.obj
 0001:001ccd70       ??0?$basic_stringstream@DU?$char_traits@D@std@@V?$allocator@D@2@@std@@QEAA@H@Z 00000001801cdd70 f i OpenExr:ImfHeader.obj
 0001:001cce70       ??0?$fpos@H@std@@QEAA@_J@Z 00000001801cde70 f i OpenExr:ImfHeader.obj
 0001:001cceb0       ??0?$map@VName@Imf@@PEAVAttribute@2@U?$less@VName@Imf@@@std@@V?$allocator@U?$pair@$$CBVName@Imf@@PEAVAttribute@2@@std@@@5@@std@@QEAA@XZ 00000001801cdeb0 f i OpenExr:ImfHeader.obj
 0001:001ccf00       ??0?$map@VName@Imf@@UChannel@2@U?$less@VName@Imf@@@std@@V?$allocator@U?$pair@$$CBVName@Imf@@UChannel@2@@std@@@5@@std@@QEAA@XZ 00000001801cdf00 f i OpenExr:ImfHeader.obj
 0001:001ccf50       ??0?$tuple@$$$V@std@@QEAA@AEBV01@@Z 00000001801cdf50 f i OpenExr:ImfHeader.obj
 0001:001ccf70       ??0?$tuple@$$$V@std@@QEAA@XZ 00000001801cdf70 f i OpenExr:ImfHeader.obj
 0001:001ccf80       ??0?$vector@MV?$allocator@M@std@@@std@@QEAA@XZ 00000001801cdf80 f i OpenExr:ImfHeader.obj
 0001:001ccfc0       ??0?$vector@V?$basic_string@DU?$char_traits@D@std@@V?$allocator@D@2@@std@@V?$allocator@V?$basic_string@DU?$char_traits@D@std@@V?$allocator@D@2@@std@@@2@@std@@QEAA@XZ 00000001801cdfc0 f i OpenExr:ImfHeader.obj
 0001:001cd000       ??0ArgExc@Iex@@QEAA@AEAV?$basic_stringstream@DU?$char_traits@D@std@@V?$allocator@D@2@@std@@@Z 00000001801ce000 f i OpenExr:ImfHeader.obj
 0001:001cd050       ??0ArgExc@Iex@@QEAA@AEBV01@@Z 00000001801ce050 f i OpenExr:ImfHeader.obj
 0001:001cd0a0       ??0ArgExc@Iex@@QEAA@AEBV?$basic_string@DU?$char_traits@D@std@@V?$allocator@D@2@@std@@@Z 00000001801ce0a0 f i OpenExr:ImfHeader.obj
 0001:001cd0f0       ??0ArgExc@Iex@@QEAA@PEBD@Z 00000001801ce0f0 f i OpenExr:ImfHeader.obj
 0001:001cd140       ??0ChannelList@Imf@@QEAA@XZ 00000001801ce140 f i OpenExr:ImfHeader.obj
 0001:001cd180       ??0ConstIterator@Header@Imf@@QEAA@AEBV?$_Tree_const_iterator@V?$_Tree_val@U?$_Tree_simple_types@U?$pair@$$CBVName@Imf@@PEAVAttribute@2@@std@@@std@@@std@@@std@@@Z 00000001801ce180 f i OpenExr:ImfHeader.obj
 0001:001cd1c0       ??0InputExc@Iex@@QEAA@AEAV?$basic_stringstream@DU?$char_traits@D@std@@V?$allocator@D@2@@std@@@Z 00000001801ce1c0 f i OpenExr:ImfHeader.obj
 0001:001cd210       ??0Iterator@Header@Imf@@QEAA@AEBV?$_Tree_iterator@V?$_Tree_val@U?$_Tree_simple_types@U?$pair@$$CBVName@Imf@@PEAVAttribute@2@@std@@@std@@@std@@@std@@@Z 00000001801ce210 f i OpenExr:ImfHeader.obj
 0001:001cd250       ??0Lock@IlmThread@@QEAA@AEBVMutex@1@_N@Z 00000001801ce250 f i OpenExr:ImfHeader.obj
 0001:001cd2c0       ??0Name@Imf@@QEAA@QEBD@Z   00000001801ce2c0 f i OpenExr:ImfHeader.obj
 0001:001cd320       ??0Rational@Imf@@QEAA@XZ   00000001801ce320 f i OpenExr:ImfHeader.obj
 0001:001cd350       ??0TileDescription@Imf@@QEAA@IIW4LevelMode@1@W4LevelRoundingMode@1@@Z 00000001801ce350 f i OpenExr:ImfHeader.obj
 0001:001cd3a0       ??0TypeExc@Iex@@QEAA@AEAV?$basic_stringstream@DU?$char_traits@D@std@@V?$allocator@D@2@@std@@@Z 00000001801ce3a0 f i OpenExr:ImfHeader.obj
 0001:001cd3f0       ??0TypeExc@Iex@@QEAA@AEBV01@@Z 00000001801ce3f0 f i OpenExr:ImfHeader.obj
 0001:001cd440       ??0TypeExc@Iex@@QEAA@PEBD@Z 00000001801ce440 f i OpenExr:ImfHeader.obj
 0001:001cd490       ??1?$TypedAttribute@H@Imf@@UEAA@XZ 00000001801ce490 f i OpenExr:ImfHeader.obj
 0001:001cd4d0       ??1?$TypedAttribute@M@Imf@@UEAA@XZ 00000001801ce4d0 f i OpenExr:ImfHeader.obj
 0001:001cd510       ??1?$TypedAttribute@N@Imf@@UEAA@XZ 00000001801ce510 f i OpenExr:ImfHeader.obj
 0001:001cd550       ??1?$TypedAttribute@UChromaticities@Imf@@@Imf@@UEAA@XZ 00000001801ce550 f i OpenExr:ImfHeader.obj
 0001:001cd590       ??1?$TypedAttribute@V?$Box@V?$Vec2@H@Imath@@@Imath@@@Imf@@UEAA@XZ 00000001801ce590 f i OpenExr:ImfHeader.obj
 0001:001cd5d0       ??1?$TypedAttribute@V?$Box@V?$Vec2@M@Imath@@@Imath@@@Imf@@UEAA@XZ 00000001801ce5d0 f i OpenExr:ImfHeader.obj
 0001:001cd610       ??1?$TypedAttribute@V?$Matrix33@M@Imath@@@Imf@@UEAA@XZ 00000001801ce610 f i OpenExr:ImfHeader.obj
 0001:001cd650       ??1?$TypedAttribute@V?$Matrix33@N@Imath@@@Imf@@UEAA@XZ 00000001801ce650 f i OpenExr:ImfHeader.obj
 0001:001cd690       ??1?$TypedAttribute@V?$Matrix44@M@Imath@@@Imf@@UEAA@XZ 00000001801ce690 f i OpenExr:ImfHeader.obj
 0001:001cd6d0       ??1?$TypedAttribute@V?$Matrix44@N@Imath@@@Imf@@UEAA@XZ 00000001801ce6d0 f i OpenExr:ImfHeader.obj
 0001:001cd710       ??1?$TypedAttribute@V?$Vec2@H@Imath@@@Imf@@UEAA@XZ 00000001801ce710 f i OpenExr:ImfHeader.obj
 0001:001cd750       ??1?$TypedAttribute@V?$Vec2@M@Imath@@@Imf@@UEAA@XZ 00000001801ce750 f i OpenExr:ImfHeader.obj
 0001:001cd790       ??1?$TypedAttribute@V?$Vec2@N@Imath@@@Imf@@UEAA@XZ 00000001801ce790 f i OpenExr:ImfHeader.obj
 0001:001cd7d0       ??1?$TypedAttribute@V?$Vec3@H@Imath@@@Imf@@UEAA@XZ 00000001801ce7d0 f i OpenExr:ImfHeader.obj
 0001:001cd810       ??1?$TypedAttribute@V?$Vec3@M@Imath@@@Imf@@UEAA@XZ 00000001801ce810 f i OpenExr:ImfHeader.obj
 0001:001cd850       ??1?$TypedAttribute@V?$Vec3@N@Imath@@@Imf@@UEAA@XZ 00000001801ce850 f i OpenExr:ImfHeader.obj
 0001:001cd890       ??1?$TypedAttribute@V?$basic_string@DU?$char_traits@D@std@@V?$allocator@D@2@@std@@@Imf@@UEAA@XZ 00000001801ce890 f i OpenExr:ImfHeader.obj
 0001:001cd8e0       ??1?$TypedAttribute@V?$vector@MV?$allocator@M@std@@@std@@@Imf@@UEAA@XZ 00000001801ce8e0 f i OpenExr:ImfHeader.obj
 0001:001cd930       ??1?$TypedAttribute@V?$vector@V?$basic_string@DU?$char_traits@D@std@@V?$allocator@D@2@@std@@V?$allocator@V?$basic_string@DU?$char_traits@D@std@@V?$allocator@D@2@@std@@@2@@std@@@Imf@@UEAA@XZ 00000001801ce930 f i OpenExr:ImfHeader.obj
 0001:001cd980       ??1?$TypedAttribute@VChannelList@Imf@@@Imf@@UEAA@XZ 00000001801ce980 f i OpenExr:ImfHeader.obj
 0001:001cd9d0       ??1?$TypedAttribute@VKeyCode@Imf@@@Imf@@UEAA@XZ 00000001801ce9d0 f i OpenExr:ImfHeader.obj
 0001:001cda10       ??1?$TypedAttribute@VPreviewImage@Imf@@@Imf@@UEAA@XZ 00000001801cea10 f i OpenExr:ImfHeader.obj
 0001:001cda70       ??1?$TypedAttribute@VRational@Imf@@@Imf@@UEAA@XZ 00000001801cea70 f i OpenExr:ImfHeader.obj
 0001:001cdab0       ??1?$TypedAttribute@VTileDescription@Imf@@@Imf@@UEAA@XZ 00000001801ceab0 f i OpenExr:ImfHeader.obj
 0001:001cdaf0       ??1?$TypedAttribute@VTimeCode@Imf@@@Imf@@UEAA@XZ 00000001801ceaf0 f i OpenExr:ImfHeader.obj
 0001:001cdb30       ??1?$TypedAttribute@W4Compression@Imf@@@Imf@@UEAA@XZ 00000001801ceb30 f i OpenExr:ImfHeader.obj
 0001:001cdb70       ??1?$TypedAttribute@W4DeepImageState@Imf@@@Imf@@UEAA@XZ 00000001801ceb70 f i OpenExr:ImfHeader.obj
 0001:001cdbb0       ??1?$TypedAttribute@W4Envmap@Imf@@@Imf@@UEAA@XZ 00000001801cebb0 f i OpenExr:ImfHeader.obj
 0001:001cdbf0       ??1?$TypedAttribute@W4LineOrder@Imf@@@Imf@@UEAA@XZ 00000001801cebf0 f i OpenExr:ImfHeader.obj
 0001:001cdc30       ??1?$_Iterator012@Ubidirectional_iterator_tag@std@@U?$pair@$$CBVName@Imf@@PEAVAttribute@2@@2@_JPEBU32@AEBU32@U_Iterator_base12@2@@std@@QEAA@XZ 00000001801cec30 f i OpenExr:ImfHeader.obj
 0001:001cdc60       ??1?$_Iterator012@Ubidirectional_iterator_tag@std@@U?$pair@$$CBVName@Imf@@UChannel@2@@2@_JPEBU32@AEBU32@U_Iterator_base12@2@@std@@QEAA@XZ 00000001801cec60 f i OpenExr:ImfHeader.obj
 0001:001cdc90       ??1?$_Tree@V?$_Tmap_traits@VName@Imf@@PEAVAttribute@2@U?$less@VName@Imf@@@std@@V?$allocator@U?$pair@$$CBVName@Imf@@PEAVAttribute@2@@std@@@5@$0A@@std@@@std@@QEAA@XZ 00000001801cec90 f i OpenExr:ImfHeader.obj
 0001:001cdcd0       ??1?$_Tree@V?$_Tmap_traits@VName@Imf@@UChannel@2@U?$less@VName@Imf@@@std@@V?$allocator@U?$pair@$$CBVName@Imf@@UChannel@2@@std@@@5@$0A@@std@@@std@@QEAA@XZ 00000001801cecd0 f i OpenExr:ImfHeader.obj
 0001:001cdd10       ??1?$_Tree_alloc@$0A@U?$_Tree_base_types@U?$pair@$$CBVName@Imf@@PEAVAttribute@2@@std@@V?$allocator@U?$pair@$$CBVName@Imf@@PEAVAttribute@2@@std@@@2@@std@@@std@@QEAA@XZ 00000001801ced10 f i OpenExr:ImfHeader.obj
 0001:001cdd60       ??1?$_Tree_alloc@$0A@U?$_Tree_base_types@U?$pair@$$CBVName@Imf@@UChannel@2@@std@@V?$allocator@U?$pair@$$CBVName@Imf@@UChannel@2@@std@@@2@@std@@@std@@QEAA@XZ 00000001801ced60 f i OpenExr:ImfHeader.obj
 0001:001cddb0       ??1?$_Tree_buy@U?$pair@$$CBVName@Imf@@PEAVAttribute@2@@std@@V?$allocator@U?$pair@$$CBVName@Imf@@PEAVAttribute@2@@std@@@2@@std@@QEAA@XZ 00000001801cedb0 f i OpenExr:ImfHeader.obj
 0001:001cdde0       ??1?$_Tree_buy@U?$pair@$$CBVName@Imf@@UChannel@2@@std@@V?$allocator@U?$pair@$$CBVName@Imf@@UChannel@2@@std@@@2@@std@@QEAA@XZ 00000001801cede0 f i OpenExr:ImfHeader.obj
 0001:001cde10       ??1?$_Tree_comp@$0A@V?$_Tmap_traits@VName@Imf@@PEAVAttribute@2@U?$less@VName@Imf@@@std@@V?$allocator@U?$pair@$$CBVName@Imf@@PEAVAttribute@2@@std@@@5@$0A@@std@@@std@@QEAA@XZ 00000001801cee10 f i OpenExr:ImfHeader.obj
 0001:001cde40       ??1?$_Tree_comp@$0A@V?$_Tmap_traits@VName@Imf@@UChannel@2@U?$less@VName@Imf@@@std@@V?$allocator@U?$pair@$$CBVName@Imf@@UChannel@2@@std@@@5@$0A@@std@@@std@@QEAA@XZ 00000001801cee40 f i OpenExr:ImfHeader.obj
 0001:001cde70       ??1?$_Tree_const_iterator@V?$_Tree_val@U?$_Tree_simple_types@U?$pair@$$CBVName@Imf@@PEAVAttribute@2@@std@@@std@@@std@@@std@@QEAA@XZ 00000001801cee70 f i OpenExr:ImfHeader.obj
 0001:001cdea0       ??1?$_Tree_const_iterator@V?$_Tree_val@U?$_Tree_simple_types@U?$pair@$$CBVName@Imf@@UChannel@2@@std@@@std@@@std@@@std@@QEAA@XZ 00000001801ceea0 f i OpenExr:ImfHeader.obj
 0001:001cded0       ??1?$_Tree_iterator@V?$_Tree_val@U?$_Tree_simple_types@U?$pair@$$CBVName@Imf@@PEAVAttribute@2@@std@@@std@@@std@@@std@@QEAA@XZ 00000001801ceed0 f i OpenExr:ImfHeader.obj
 0001:001cdf00       ??1?$_Tree_iterator@V?$_Tree_val@U?$_Tree_simple_types@U?$pair@$$CBVName@Imf@@UChannel@2@@std@@@std@@@std@@@std@@QEAA@XZ 00000001801cef00 f i OpenExr:ImfHeader.obj
 0001:001cdf30       ??1?$_Tree_unchecked_const_iterator@V?$_Tree_val@U?$_Tree_simple_types@U?$pair@$$CBVName@Imf@@PEAVAttribute@2@@std@@@std@@@std@@U_Iterator_base12@2@@std@@QEAA@XZ 00000001801cef30 f i OpenExr:ImfHeader.obj
 0001:001cdf60       ??1?$_Tree_unchecked_const_iterator@V?$_Tree_val@U?$_Tree_simple_types@U?$pair@$$CBVName@Imf@@UChannel@2@@std@@@std@@@std@@U_Iterator_base12@2@@std@@QEAA@XZ 00000001801cef60 f i OpenExr:ImfHeader.obj
 0001:001cdf90       ??1?$_Tree_val@U?$_Tree_simple_types@U?$pair@$$CBVName@Imf@@PEAVAttribute@2@@std@@@std@@@std@@QEAA@XZ 00000001801cef90 f i OpenExr:ImfHeader.obj
 0001:001cdfc0       ??1?$_Tree_val@U?$_Tree_simple_types@U?$pair@$$CBVName@Imf@@UChannel@2@@std@@@std@@@std@@QEAA@XZ 00000001801cefc0 f i OpenExr:ImfHeader.obj
 0001:001cdff0       ??1?$_Vector_alloc@$0A@U?$_Vec_base_types@MV?$allocator@M@std@@@std@@@std@@QEAA@XZ 00000001801ceff0 f i OpenExr:ImfHeader.obj
 0001:001ce030       ??1?$_Vector_alloc@$0A@U?$_Vec_base_types@V?$basic_string@DU?$char_traits@D@std@@V?$allocator@D@2@@std@@V?$allocator@V?$basic_string@DU?$char_traits@D@std@@V?$allocator@D@2@@std@@@2@@std@@@std@@QEAA@XZ 00000001801cf030 f i OpenExr:ImfHeader.obj
 0001:001ce070       ??1?$_Vector_val@U?$_Simple_types@M@std@@@std@@QEAA@XZ 00000001801cf070 f i OpenExr:ImfHeader.obj
 0001:001ce0a0       ??1?$_Vector_val@U?$_Simple_types@V?$basic_string@DU?$char_traits@D@std@@V?$allocator@D@2@@std@@@std@@@std@@QEAA@XZ 00000001801cf0a0 f i OpenExr:ImfHeader.obj
 0001:001ce0d0       ??1?$basic_ostringstream@DU?$char_traits@D@std@@V?$allocator@D@2@@std@@UEAA@XZ 00000001801cf0d0 f i OpenExr:ImfHeader.obj
 0001:001ce170       ??1?$basic_stringbuf@DU?$char_traits@D@std@@V?$allocator@D@2@@std@@UEAA@XZ 00000001801cf170 f i OpenExr:ImfHeader.obj
 0001:001ce1c0       ??1?$basic_stringstream@DU?$char_traits@D@std@@V?$allocator@D@2@@std@@UEAA@XZ 00000001801cf1c0 f i OpenExr:ImfHeader.obj
 0001:001ce260       ??1?$map@VName@Imf@@PEAVAttribute@2@U?$less@VName@Imf@@@std@@V?$allocator@U?$pair@$$CBVName@Imf@@PEAVAttribute@2@@std@@@5@@std@@QEAA@XZ 00000001801cf260 f i OpenExr:ImfHeader.obj
 0001:001ce290       ??1?$map@VName@Imf@@UChannel@2@U?$less@VName@Imf@@@std@@V?$allocator@U?$pair@$$CBVName@Imf@@UChannel@2@@std@@@5@@std@@QEAA@XZ 00000001801cf290 f i OpenExr:ImfHeader.obj
 0001:001ce2c0       ??1?$pair@V?$_Tree_iterator@V?$_Tree_val@U?$_Tree_simple_types@U?$pair@$$CBVName@Imf@@PEAVAttribute@2@@std@@@std@@@std@@@std@@_N@std@@QEAA@XZ 00000001801cf2c0 f i OpenExr:ImfHeader.obj
 0001:001ce300       ??1?$vector@MV?$allocator@M@std@@@std@@QEAA@XZ 00000001801cf300 f i OpenExr:ImfHeader.obj
 0001:001ce340       ??1?$vector@V?$basic_string@DU?$char_traits@D@std@@V?$allocator@D@2@@std@@V?$allocator@V?$basic_string@DU?$char_traits@D@std@@V?$allocator@D@2@@std@@@2@@std@@QEAA@XZ 00000001801cf340 f i OpenExr:ImfHeader.obj
 0001:001ce380       ??1ArgExc@Iex@@UEAA@XZ     00000001801cf380 f i OpenExr:ImfHeader.obj
 0001:001ce3c0       ??1ChannelList@Imf@@QEAA@XZ 00000001801cf3c0 f i OpenExr:ImfHeader.obj
 0001:001ce400       ??1ConstIterator@ChannelList@Imf@@QEAA@XZ 00000001801cf400 f i OpenExr:ImfHeader.obj
 0001:001ce440       ??1ConstIterator@Header@Imf@@QEAA@XZ 00000001801cf440 f i OpenExr:ImfHeader.obj
 0001:001ce480       ??1Lock@IlmThread@@QEAA@XZ 00000001801cf480 f i OpenExr:ImfHeader.obj
 0001:001ce4c0       ??1StdOSStream@Imf@@UEAA@XZ 00000001801cf4c0 f i OpenExr:ImfHeader.obj
 0001:001ce500       ??1TypeExc@Iex@@UEAA@XZ    00000001801cf500 f i OpenExr:ImfHeader.obj
 0001:001ce540       ??4?$Box@V?$Vec2@M@Imath@@@Imath@@QEAAAEAV01@AEBV01@@Z 00000001801cf540 f i OpenExr:ImfHeader.obj
 0001:001ce5a0       ??4?$Matrix33@M@Imath@@QEAAAEBV01@AEBV01@@Z 00000001801cf5a0 f i OpenExr:ImfHeader.obj
 0001:001ce5f0       ??4?$Matrix33@N@Imath@@QEAAAEBV01@AEBV01@@Z 00000001801cf5f0 f i OpenExr:ImfHeader.obj
 0001:001ce640       ??4?$Matrix44@M@Imath@@QEAAAEBV01@AEBV01@@Z 00000001801cf640 f i OpenExr:ImfHeader.obj
 0001:001ceac0       ??4?$Matrix44@N@Imath@@QEAAAEBV01@AEBV01@@Z 00000001801cfac0 f i OpenExr:ImfHeader.obj
 0001:001cef40       ??4?$Vec2@M@Imath@@QEAAAEBV01@AEBV01@@Z 00000001801cff40 f i OpenExr:ImfHeader.obj
 0001:001cef80       ??4?$Vec2@N@Imath@@QEAAAEBV01@AEBV01@@Z 00000001801cff80 f i OpenExr:ImfHeader.obj
 0001:001cefc0       ??4?$Vec3@H@Imath@@QEAAAEBV01@AEBV01@@Z 00000001801cffc0 f i OpenExr:ImfHeader.obj
 0001:001cf000       ??4?$Vec3@M@Imath@@QEAAAEBV01@AEBV01@@Z 00000001801d0000 f i OpenExr:ImfHeader.obj
 0001:001cf050       ??4?$Vec3@N@Imath@@QEAAAEBV01@AEBV01@@Z 00000001801d0050 f i OpenExr:ImfHeader.obj
 0001:001cf0a0       ??4?$_Iterator012@Ubidirectional_iterator_tag@std@@U?$pair@$$CBVName@Imf@@PEAVAttribute@2@@2@_JPEBU32@AEBU32@U_Iterator_base12@2@@std@@QEAAAEAU01@AEBU01@@Z 00000001801d00a0 f i OpenExr:ImfHeader.obj
 0001:001cf0e0       ??4?$_Tree@V?$_Tmap_traits@VName@Imf@@UChannel@2@U?$less@VName@Imf@@@std@@V?$allocator@U?$pair@$$CBVName@Imf@@UChannel@2@@std@@@5@$0A@@std@@@std@@QEAAAEAV01@AEBV01@@Z 00000001801d00e0 f i OpenExr:ImfHeader.obj
 0001:001cf1d0       ??4?$_Tree_const_iterator@V?$_Tree_val@U?$_Tree_simple_types@U?$pair@$$CBVName@Imf@@PEAVAttribute@2@@std@@@std@@@std@@@std@@QEAAAEAV01@AEBV01@@Z 00000001801d01d0 f i OpenExr:ImfHeader.obj
 0001:001cf210       ??4?$_Tree_iterator@V?$_Tree_val@U?$_Tree_simple_types@U?$pair@$$CBVName@Imf@@PEAVAttribute@2@@std@@@std@@@std@@@std@@QEAAAEAV01@AEBV01@@Z 00000001801d0210 f i OpenExr:ImfHeader.obj
 0001:001cf250       ??4?$_Tree_unchecked_const_iterator@V?$_Tree_val@U?$_Tree_simple_types@U?$pair@$$CBVName@Imf@@PEAVAttribute@2@@std@@@std@@@std@@U_Iterator_base12@2@@std@@QEAAAEAV01@AEBV01@@Z 00000001801d0250 f i OpenExr:ImfHeader.obj
 0001:001cf2a0       ??4?$basic_string@DU?$char_traits@D@std@@V?$allocator@D@2@@std@@QEAAAEAV01@AEBV01@@Z 00000001801d02a0 f i OpenExr:ImfHeader.obj
 0001:001cf360       ??4?$map@VName@Imf@@UChannel@2@U?$less@VName@Imf@@@std@@V?$allocator@U?$pair@$$CBVName@Imf@@UChannel@2@@std@@@5@@std@@QEAAAEAV01@AEBV01@@Z 00000001801d0360 f i OpenExr:ImfHeader.obj
 0001:001cf3a0       ??4?$vector@MV?$allocator@M@std@@@std@@QEAAAEAV01@AEBV01@@Z 00000001801d03a0 f i OpenExr:ImfHeader.obj
 0001:001cf6e0       ??4?$vector@V?$basic_string@DU?$char_traits@D@std@@V?$allocator@D@2@@std@@V?$allocator@V?$basic_string@DU?$char_traits@D@std@@V?$allocator@D@2@@std@@@2@@std@@QEAAAEAV01@AEBV01@@Z 00000001801d06e0 f i OpenExr:ImfHeader.obj
 0001:001cfa20       ??4ChannelList@Imf@@QEAAAEAV01@AEBV01@@Z 00000001801d0a20 f i OpenExr:ImfHeader.obj
 0001:001cfa60       ??4Chromaticities@Imf@@QEAAAEAU01@AEBU01@@Z 00000001801d0a60 f i OpenExr:ImfHeader.obj
 0001:001cfaf0       ??4Name@Imf@@QEAAAEAV01@QEBD@Z 00000001801d0af0 f i OpenExr:ImfHeader.obj
 0001:001cfb40       ??8?$_Tree_const_iterator@V?$_Tree_val@U?$_Tree_simple_types@U?$pair@$$CBVName@Imf@@PEAVAttribute@2@@std@@@std@@@std@@@std@@QEBA_NAEBV01@@Z 00000001801d0b40 f i OpenExr:ImfHeader.obj
 0001:001cfc60       ??8?$_Tree_const_iterator@V?$_Tree_val@U?$_Tree_simple_types@U?$pair@$$CBVName@Imf@@UChannel@2@@std@@@std@@@std@@@std@@QEBA_NAEBV01@@Z 00000001801d0c60 f i OpenExr:ImfHeader.obj
 0001:001cfd80       ??8Imf@@YA_NAEBVConstIterator@ChannelList@0@0@Z 00000001801d0d80 f i OpenExr:ImfHeader.obj
 0001:001cfdc0       ??8Imf@@YA_NAEBVConstIterator@Header@0@0@Z 00000001801d0dc0 f i OpenExr:ImfHeader.obj
 0001:001cfe00       ??9?$_Tree_const_iterator@V?$_Tree_val@U?$_Tree_simple_types@U?$pair@$$CBVName@Imf@@PEAVAttribute@2@@std@@@std@@@std@@@std@@QEBA_NAEBV01@@Z 00000001801d0e00 f i OpenExr:ImfHeader.obj
 0001:001cfe60       ??9?$_Tree_const_iterator@V?$_Tree_val@U?$_Tree_simple_types@U?$pair@$$CBVName@Imf@@UChannel@2@@std@@@std@@@std@@@std@@QEBA_NAEBV01@@Z 00000001801d0e60 f i OpenExr:ImfHeader.obj
 0001:001cfec0       ??9Imf@@YA_NAEBVConstIterator@ChannelList@0@0@Z 00000001801d0ec0 f i OpenExr:ImfHeader.obj
 0001:001cff20       ??9Imf@@YA_NAEBVConstIterator@Header@0@0@Z 00000001801d0f20 f i OpenExr:ImfHeader.obj
 0001:001cff80       ??A?$map@VName@Imf@@PEAVAttribute@2@U?$less@VName@Imf@@@std@@V?$allocator@U?$pair@$$CBVName@Imf@@PEAVAttribute@2@@std@@@5@@std@@QEAAAEAPEAVAttribute@Imf@@$$QEAVName@3@@Z 00000001801d0f80 f i OpenExr:ImfHeader.obj
 0001:001d0200       ??B?$fpos@H@std@@QEBA_JXZ  00000001801d1200 f i OpenExr:ImfHeader.obj
 0001:001d0220       ??C?$_Tree_const_iterator@V?$_Tree_val@U?$_Tree_simple_types@U?$pair@$$CBVName@Imf@@PEAVAttribute@2@@std@@@std@@@std@@@std@@QEBAPEBU?$pair@$$CBVName@Imf@@PEAVAttribute@2@@1@XZ 00000001801d1220 f i OpenExr:ImfHeader.obj
 0001:001d0260       ??C?$_Tree_const_iterator@V?$_Tree_val@U?$_Tree_simple_types@U?$pair@$$CBVName@Imf@@UChannel@2@@std@@@std@@@std@@@std@@QEBAPEBU?$pair@$$CBVName@Imf@@UChannel@2@@1@XZ 00000001801d1260 f i OpenExr:ImfHeader.obj
 0001:001d02a0       ??C?$_Tree_iterator@V?$_Tree_val@U?$_Tree_simple_types@U?$pair@$$CBVName@Imf@@PEAVAttribute@2@@std@@@std@@@std@@@std@@QEBAPEAU?$pair@$$CBVName@Imf@@PEAVAttribute@2@@1@XZ 00000001801d12a0 f i OpenExr:ImfHeader.obj
 0001:001d02e0       ??D?$_Tree_const_iterator@V?$_Tree_val@U?$_Tree_simple_types@U?$pair@$$CBVName@Imf@@PEAVAttribute@2@@std@@@std@@@std@@@std@@QEBAAEBU?$pair@$$CBVName@Imf@@PEAVAttribute@2@@1@XZ 00000001801d12e0 f i OpenExr:ImfHeader.obj
 0001:001d03e0       ??D?$_Tree_const_iterator@V?$_Tree_val@U?$_Tree_simple_types@U?$pair@$$CBVName@Imf@@UChannel@2@@std@@@std@@@std@@@std@@QEBAAEBU?$pair@$$CBVName@Imf@@UChannel@2@@1@XZ 00000001801d13e0 f i OpenExr:ImfHeader.obj
 0001:001d04e0       ??D?$_Tree_iterator@V?$_Tree_val@U?$_Tree_simple_types@U?$pair@$$CBVName@Imf@@PEAVAttribute@2@@std@@@std@@@std@@@std@@QEBAAEAU?$pair@$$CBVName@Imf@@PEAVAttribute@2@@1@XZ 00000001801d14e0 f i OpenExr:ImfHeader.obj
 0001:001d0510       ??DName@Imf@@QEBAPEBDXZ    00000001801d1510 f i OpenExr:ImfHeader.obj
 0001:001d0520       ??E?$_Tree_const_iterator@V?$_Tree_val@U?$_Tree_simple_types@U?$pair@$$CBVName@Imf@@PEAVAttribute@2@@std@@@std@@@std@@@std@@QEAA?AV01@H@Z 00000001801d1520 f i OpenExr:ImfHeader.obj
 0001:001d05c0       ??E?$_Tree_const_iterator@V?$_Tree_val@U?$_Tree_simple_types@U?$pair@$$CBVName@Imf@@PEAVAttribute@2@@std@@@std@@@std@@@std@@QEAAAEAV01@XZ 00000001801d15c0 f i OpenExr:ImfHeader.obj
 0001:001d06c0       ??E?$_Tree_const_iterator@V?$_Tree_val@U?$_Tree_simple_types@U?$pair@$$CBVName@Imf@@UChannel@2@@std@@@std@@@std@@@std@@QEAA?AV01@H@Z 00000001801d16c0 f i OpenExr:ImfHeader.obj
 0001:001d0760       ??E?$_Tree_const_iterator@V?$_Tree_val@U?$_Tree_simple_types@U?$pair@$$CBVName@Imf@@UChannel@2@@std@@@std@@@std@@@std@@QEAAAEAV01@XZ 00000001801d1760 f i OpenExr:ImfHeader.obj
 0001:001d0860       ??E?$_Tree_iterator@V?$_Tree_val@U?$_Tree_simple_types@U?$pair@$$CBVName@Imf@@PEAVAttribute@2@@std@@@std@@@std@@@std@@QEAAAEAV01@XZ 00000001801d1860 f i OpenExr:ImfHeader.obj
 0001:001d08a0       ??E?$_Tree_unchecked_const_iterator@V?$_Tree_val@U?$_Tree_simple_types@U?$pair@$$CBVName@Imf@@PEAVAttribute@2@@std@@@std@@@std@@U_Iterator_base12@2@@std@@QEAAAEAV01@XZ 00000001801d18a0 f i OpenExr:ImfHeader.obj
 0001:001d0980       ??E?$_Tree_unchecked_const_iterator@V?$_Tree_val@U?$_Tree_simple_types@U?$pair@$$CBVName@Imf@@UChannel@2@@std@@@std@@@std@@U_Iterator_base12@2@@std@@QEAAAEAV01@XZ 00000001801d1980 f i OpenExr:ImfHeader.obj
 0001:001d0a60       ??EConstIterator@ChannelList@Imf@@QEAAAEAV012@XZ 00000001801d1a60 f i OpenExr:ImfHeader.obj
 0001:001d0aa0       ??EConstIterator@Header@Imf@@QEAAAEAV012@XZ 00000001801d1aa0 f i OpenExr:ImfHeader.obj
 0001:001d0ae0       ??F?$_Tree_const_iterator@V?$_Tree_val@U?$_Tree_simple_types@U?$pair@$$CBVName@Imf@@PEAVAttribute@2@@std@@@std@@@std@@@std@@QEAAAEAV01@XZ 00000001801d1ae0 f i OpenExr:ImfHeader.obj
 0001:001d0c80       ??F?$_Tree_iterator@V?$_Tree_val@U?$_Tree_simple_types@U?$pair@$$CBVName@Imf@@PEAVAttribute@2@@std@@@std@@@std@@@std@@QEAAAEAV01@XZ 00000001801d1c80 f i OpenExr:ImfHeader.obj
 0001:001d0cc0       ??F?$_Tree_unchecked_const_iterator@V?$_Tree_val@U?$_Tree_simple_types@U?$pair@$$CBVName@Imf@@PEAVAttribute@2@@std@@@std@@@std@@U_Iterator_base12@2@@std@@QEAAAEAV01@XZ 00000001801d1cc0 f i OpenExr:ImfHeader.obj
 0001:001d0dd0       ??MImf@@YA_NAEBVName@0@0@Z 00000001801d1dd0 f i OpenExr:ImfHeader.obj
 0001:001d0e40       ??R?$less@VName@Imf@@@std@@QEBA_NAEBVName@Imf@@0@Z 00000001801d1e40 f i OpenExr:ImfHeader.obj
 0001:001d0e80       ??Y?$basic_string@DU?$char_traits@D@std@@V?$allocator@D@2@@std@@QEAAAEAV01@AEBV01@@Z 00000001801d1e80 f i OpenExr:ImfHeader.obj
 0001:001d0ec0       ??Y?$basic_string@DU?$char_traits@D@std@@V?$allocator@D@2@@std@@QEAAAEAV01@PEBD@Z 00000001801d1ec0 f i OpenExr:ImfHeader.obj
 0001:001d0f00       ??_D?$basic_ostringstream@DU?$char_traits@D@std@@V?$allocator@D@2@@std@@QEAAXXZ 00000001801d1f00 f i OpenExr:ImfHeader.obj
 0001:001d0f50       ??_D?$basic_stringstream@DU?$char_traits@D@std@@V?$allocator@D@2@@std@@QEAAXXZ 00000001801d1f50 f i OpenExr:ImfHeader.obj
 0001:001d0f9c       ??_E?$basic_ostringstream@DU?$char_traits@D@std@@V?$allocator@D@2@@std@@$4PPPPPPPM@A@EAAPEAXI@Z 00000001801d1f9c f i OpenExr:ImfHeader.obj
 0001:001d0fa8       ??_E?$basic_stringstream@DU?$char_traits@D@std@@V?$allocator@D@2@@std@@$4PPPPPPPM@A@EAAPEAXI@Z 00000001801d1fa8 f i OpenExr:ImfHeader.obj
 0001:001d0fc0       ??_G?$TypedAttribute@H@Imf@@UEAAPEAXI@Z 00000001801d1fc0 f i OpenExr:ImfHeader.obj
 0001:001d0fc0       ??_E?$TypedAttribute@H@Imf@@UEAAPEAXI@Z 00000001801d1fc0 f i OpenExr:ImfHeader.obj
 0001:001d1010       ??_G?$TypedAttribute@M@Imf@@UEAAPEAXI@Z 00000001801d2010 f i OpenExr:ImfHeader.obj
 0001:001d1010       ??_E?$TypedAttribute@M@Imf@@UEAAPEAXI@Z 00000001801d2010 f i OpenExr:ImfHeader.obj
 0001:001d1060       ??_G?$TypedAttribute@N@Imf@@UEAAPEAXI@Z 00000001801d2060 f i OpenExr:ImfHeader.obj
 0001:001d1060       ??_E?$TypedAttribute@N@Imf@@UEAAPEAXI@Z 00000001801d2060 f i OpenExr:ImfHeader.obj
 0001:001d10b0       ??_G?$TypedAttribute@UChromaticities@Imf@@@Imf@@UEAAPEAXI@Z 00000001801d20b0 f i OpenExr:ImfHeader.obj
 0001:001d10b0       ??_E?$TypedAttribute@UChromaticities@Imf@@@Imf@@UEAAPEAXI@Z 00000001801d20b0 f i OpenExr:ImfHeader.obj
 0001:001d1100       ??_G?$TypedAttribute@V?$Box@V?$Vec2@H@Imath@@@Imath@@@Imf@@UEAAPEAXI@Z 00000001801d2100 f i OpenExr:ImfHeader.obj
 0001:001d1100       ??_E?$TypedAttribute@V?$Box@V?$Vec2@H@Imath@@@Imath@@@Imf@@UEAAPEAXI@Z 00000001801d2100 f i OpenExr:ImfHeader.obj
 0001:001d1150       ??_E?$TypedAttribute@V?$Box@V?$Vec2@M@Imath@@@Imath@@@Imf@@UEAAPEAXI@Z 00000001801d2150 f i OpenExr:ImfHeader.obj
 0001:001d1150       ??_G?$TypedAttribute@V?$Box@V?$Vec2@M@Imath@@@Imath@@@Imf@@UEAAPEAXI@Z 00000001801d2150 f i OpenExr:ImfHeader.obj
 0001:001d11a0       ??_E?$TypedAttribute@V?$Matrix33@M@Imath@@@Imf@@UEAAPEAXI@Z 00000001801d21a0 f i OpenExr:ImfHeader.obj
 0001:001d11a0       ??_G?$TypedAttribute@V?$Matrix33@M@Imath@@@Imf@@UEAAPEAXI@Z 00000001801d21a0 f i OpenExr:ImfHeader.obj
 0001:001d11f0       ??_G?$TypedAttribute@V?$Matrix33@N@Imath@@@Imf@@UEAAPEAXI@Z 00000001801d21f0 f i OpenExr:ImfHeader.obj
 0001:001d11f0       ??_E?$TypedAttribute@V?$Matrix33@N@Imath@@@Imf@@UEAAPEAXI@Z 00000001801d21f0 f i OpenExr:ImfHeader.obj
 0001:001d1240       ??_G?$TypedAttribute@V?$Matrix44@M@Imath@@@Imf@@UEAAPEAXI@Z 00000001801d2240 f i OpenExr:ImfHeader.obj
 0001:001d1240       ??_E?$TypedAttribute@V?$Matrix44@M@Imath@@@Imf@@UEAAPEAXI@Z 00000001801d2240 f i OpenExr:ImfHeader.obj
 0001:001d1290       ??_E?$TypedAttribute@V?$Matrix44@N@Imath@@@Imf@@UEAAPEAXI@Z 00000001801d2290 f i OpenExr:ImfHeader.obj
 0001:001d1290       ??_G?$TypedAttribute@V?$Matrix44@N@Imath@@@Imf@@UEAAPEAXI@Z 00000001801d2290 f i OpenExr:ImfHeader.obj
 0001:001d12e0       ??_E?$TypedAttribute@V?$Vec2@H@Imath@@@Imf@@UEAAPEAXI@Z 00000001801d22e0 f i OpenExr:ImfHeader.obj
 0001:001d12e0       ??_G?$TypedAttribute@V?$Vec2@H@Imath@@@Imf@@UEAAPEAXI@Z 00000001801d22e0 f i OpenExr:ImfHeader.obj
 0001:001d1330       ??_G?$TypedAttribute@V?$Vec2@M@Imath@@@Imf@@UEAAPEAXI@Z 00000001801d2330 f i OpenExr:ImfHeader.obj
 0001:001d1330       ??_E?$TypedAttribute@V?$Vec2@M@Imath@@@Imf@@UEAAPEAXI@Z 00000001801d2330 f i OpenExr:ImfHeader.obj
 0001:001d1380       ??_G?$TypedAttribute@V?$Vec2@N@Imath@@@Imf@@UEAAPEAXI@Z 00000001801d2380 f i OpenExr:ImfHeader.obj
 0001:001d1380       ??_E?$TypedAttribute@V?$Vec2@N@Imath@@@Imf@@UEAAPEAXI@Z 00000001801d2380 f i OpenExr:ImfHeader.obj
 0001:001d13d0       ??_E?$TypedAttribute@V?$Vec3@H@Imath@@@Imf@@UEAAPEAXI@Z 00000001801d23d0 f i OpenExr:ImfHeader.obj
 0001:001d13d0       ??_G?$TypedAttribute@V?$Vec3@H@Imath@@@Imf@@UEAAPEAXI@Z 00000001801d23d0 f i OpenExr:ImfHeader.obj
 0001:001d1420       ??_G?$TypedAttribute@V?$Vec3@M@Imath@@@Imf@@UEAAPEAXI@Z 00000001801d2420 f i OpenExr:ImfHeader.obj
 0001:001d1420       ??_E?$TypedAttribute@V?$Vec3@M@Imath@@@Imf@@UEAAPEAXI@Z 00000001801d2420 f i OpenExr:ImfHeader.obj
 0001:001d1470       ??_E?$TypedAttribute@V?$Vec3@N@Imath@@@Imf@@UEAAPEAXI@Z 00000001801d2470 f i OpenExr:ImfHeader.obj
 0001:001d1470       ??_G?$TypedAttribute@V?$Vec3@N@Imath@@@Imf@@UEAAPEAXI@Z 00000001801d2470 f i OpenExr:ImfHeader.obj
 0001:001d14c0       ??_E?$TypedAttribute@V?$basic_string@DU?$char_traits@D@std@@V?$allocator@D@2@@std@@@Imf@@UEAAPEAXI@Z 00000001801d24c0 f i OpenExr:ImfHeader.obj
 0001:001d14c0       ??_G?$TypedAttribute@V?$basic_string@DU?$char_traits@D@std@@V?$allocator@D@2@@std@@@Imf@@UEAAPEAXI@Z 00000001801d24c0 f i OpenExr:ImfHeader.obj
 0001:001d1510       ??_E?$TypedAttribute@V?$vector@MV?$allocator@M@std@@@std@@@Imf@@UEAAPEAXI@Z 00000001801d2510 f i OpenExr:ImfHeader.obj
 0001:001d1510       ??_G?$TypedAttribute@V?$vector@MV?$allocator@M@std@@@std@@@Imf@@UEAAPEAXI@Z 00000001801d2510 f i OpenExr:ImfHeader.obj
 0001:001d1560       ??_E?$TypedAttribute@V?$vector@V?$basic_string@DU?$char_traits@D@std@@V?$allocator@D@2@@std@@V?$allocator@V?$basic_string@DU?$char_traits@D@std@@V?$allocator@D@2@@std@@@2@@std@@@Imf@@UEAAPEAXI@Z 00000001801d2560 f i OpenExr:ImfHeader.obj
 0001:001d1560       ??_G?$TypedAttribute@V?$vector@V?$basic_string@DU?$char_traits@D@std@@V?$allocator@D@2@@std@@V?$allocator@V?$basic_string@DU?$char_traits@D@std@@V?$allocator@D@2@@std@@@2@@std@@@Imf@@UEAAPEAXI@Z 00000001801d2560 f i OpenExr:ImfHeader.obj
 0001:001d15b0       ??_E?$TypedAttribute@VChannelList@Imf@@@Imf@@UEAAPEAXI@Z 00000001801d25b0 f i OpenExr:ImfHeader.obj
 0001:001d15b0       ??_G?$TypedAttribute@VChannelList@Imf@@@Imf@@UEAAPEAXI@Z 00000001801d25b0 f i OpenExr:ImfHeader.obj
 0001:001d1600       ??_G?$TypedAttribute@VKeyCode@Imf@@@Imf@@UEAAPEAXI@Z 00000001801d2600 f i OpenExr:ImfHeader.obj
 0001:001d1600       ??_E?$TypedAttribute@VKeyCode@Imf@@@Imf@@UEAAPEAXI@Z 00000001801d2600 f i OpenExr:ImfHeader.obj
 0001:001d1650       ??_E?$TypedAttribute@VPreviewImage@Imf@@@Imf@@UEAAPEAXI@Z 00000001801d2650 f i OpenExr:ImfHeader.obj
 0001:001d1650       ??_G?$TypedAttribute@VPreviewImage@Imf@@@Imf@@UEAAPEAXI@Z 00000001801d2650 f i OpenExr:ImfHeader.obj
 0001:001d16a0       ??_G?$TypedAttribute@VRational@Imf@@@Imf@@UEAAPEAXI@Z 00000001801d26a0 f i OpenExr:ImfHeader.obj
 0001:001d16a0       ??_E?$TypedAttribute@VRational@Imf@@@Imf@@UEAAPEAXI@Z 00000001801d26a0 f i OpenExr:ImfHeader.obj
 0001:001d16f0       ??_E?$TypedAttribute@VTileDescription@Imf@@@Imf@@UEAAPEAXI@Z 00000001801d26f0 f i OpenExr:ImfHeader.obj
 0001:001d16f0       ??_G?$TypedAttribute@VTileDescription@Imf@@@Imf@@UEAAPEAXI@Z 00000001801d26f0 f i OpenExr:ImfHeader.obj
 0001:001d1740       ??_G?$TypedAttribute@VTimeCode@Imf@@@Imf@@UEAAPEAXI@Z 00000001801d2740 f i OpenExr:ImfHeader.obj
 0001:001d1740       ??_E?$TypedAttribute@VTimeCode@Imf@@@Imf@@UEAAPEAXI@Z 00000001801d2740 f i OpenExr:ImfHeader.obj
 0001:001d1790       ??_G?$TypedAttribute@W4Compression@Imf@@@Imf@@UEAAPEAXI@Z 00000001801d2790 f i OpenExr:ImfHeader.obj
 0001:001d1790       ??_E?$TypedAttribute@W4Compression@Imf@@@Imf@@UEAAPEAXI@Z 00000001801d2790 f i OpenExr:ImfHeader.obj
 0001:001d17e0       ??_E?$TypedAttribute@W4DeepImageState@Imf@@@Imf@@UEAAPEAXI@Z 00000001801d27e0 f i OpenExr:ImfHeader.obj
 0001:001d17e0       ??_G?$TypedAttribute@W4DeepImageState@Imf@@@Imf@@UEAAPEAXI@Z 00000001801d27e0 f i OpenExr:ImfHeader.obj
 0001:001d1830       ??_E?$TypedAttribute@W4Envmap@Imf@@@Imf@@UEAAPEAXI@Z 00000001801d2830 f i OpenExr:ImfHeader.obj
 0001:001d1830       ??_G?$TypedAttribute@W4Envmap@Imf@@@Imf@@UEAAPEAXI@Z 00000001801d2830 f i OpenExr:ImfHeader.obj
 0001:001d1880       ??_G?$TypedAttribute@W4LineOrder@Imf@@@Imf@@UEAAPEAXI@Z 00000001801d2880 f i OpenExr:ImfHeader.obj
 0001:001d1880       ??_E?$TypedAttribute@W4LineOrder@Imf@@@Imf@@UEAAPEAXI@Z 00000001801d2880 f i OpenExr:ImfHeader.obj
 0001:001d18d0       ??_E?$basic_ostringstream@DU?$char_traits@D@std@@V?$allocator@D@2@@std@@UEAAPEAXI@Z 00000001801d28d0 f i OpenExr:ImfHeader.obj
 0001:001d18d0       ??_G?$basic_ostringstream@DU?$char_traits@D@std@@V?$allocator@D@2@@std@@UEAAPEAXI@Z 00000001801d28d0 f i OpenExr:ImfHeader.obj
 0001:001d1940       ??_G?$basic_string@DU?$char_traits@D@std@@V?$allocator@D@2@@std@@QEAAPEAXI@Z 00000001801d2940 f i OpenExr:ImfHeader.obj
 0001:001d1990       ??_G?$basic_stringbuf@DU?$char_traits@D@std@@V?$allocator@D@2@@std@@UEAAPEAXI@Z 00000001801d2990 f i OpenExr:ImfHeader.obj
 0001:001d1990       ??_E?$basic_stringbuf@DU?$char_traits@D@std@@V?$allocator@D@2@@std@@UEAAPEAXI@Z 00000001801d2990 f i OpenExr:ImfHeader.obj
 0001:001d19e0       ??_E?$basic_stringstream@DU?$char_traits@D@std@@V?$allocator@D@2@@std@@UEAAPEAXI@Z 00000001801d29e0 f i OpenExr:ImfHeader.obj
 0001:001d19e0       ??_G?$basic_stringstream@DU?$char_traits@D@std@@V?$allocator@D@2@@std@@UEAAPEAXI@Z 00000001801d29e0 f i OpenExr:ImfHeader.obj
 0001:001d1a50       ??_EArgExc@Iex@@UEAAPEAXI@Z 00000001801d2a50 f i OpenExr:ImfHeader.obj
 0001:001d1a50       ??_GArgExc@Iex@@UEAAPEAXI@Z 00000001801d2a50 f i OpenExr:ImfHeader.obj
 0001:001d1aa0       ??_GTypeExc@Iex@@UEAAPEAXI@Z 00000001801d2aa0 f i OpenExr:ImfHeader.obj
 0001:001d1aa0       ??_ETypeExc@Iex@@UEAAPEAXI@Z 00000001801d2aa0 f i OpenExr:ImfHeader.obj
 0001:001d1af0       ?_Alloc_proxy@?$_Tree_alloc@$0A@U?$_Tree_base_types@U?$pair@$$CBVName@Imf@@PEAVAttribute@2@@std@@V?$allocator@U?$pair@$$CBVName@Imf@@PEAVAttribute@2@@std@@@2@@std@@@std@@QEAAXXZ 00000001801d2af0 f i OpenExr:ImfHeader.obj
 0001:001d1b90       ?_Alloc_proxy@?$_Tree_alloc@$0A@U?$_Tree_base_types@U?$pair@$$CBVName@Imf@@UChannel@2@@std@@V?$allocator@U?$pair@$$CBVName@Imf@@UChannel@2@@std@@@2@@std@@@std@@QEAAXXZ 00000001801d2b90 f i OpenExr:ImfHeader.obj
 0001:001d1c30       ?_Alloc_proxy@?$_Vector_alloc@$0A@U?$_Vec_base_types@MV?$allocator@M@std@@@std@@@std@@QEAAXXZ 00000001801d2c30 f i OpenExr:ImfHeader.obj
 0001:001d1cc0       ?_Alloc_proxy@?$_Vector_alloc@$0A@U?$_Vec_base_types@V?$basic_string@DU?$char_traits@D@std@@V?$allocator@D@2@@std@@V?$allocator@V?$basic_string@DU?$char_traits@D@std@@V?$allocator@D@2@@std@@@2@@std@@@std@@QEAAXXZ 00000001801d2cc0 f i OpenExr:ImfHeader.obj
 0001:001d1d50       ?_Buy@?$vector@MV?$allocator@M@std@@@std@@IEAA_N_K@Z 00000001801d2d50 f i OpenExr:ImfHeader.obj
 0001:001d1e20       ?_Buy@?$vector@V?$basic_string@DU?$char_traits@D@std@@V?$allocator@D@2@@std@@V?$allocator@V?$basic_string@DU?$char_traits@D@std@@V?$allocator@D@2@@std@@@2@@std@@IEAA_N_K@Z 00000001801d2e20 f i OpenExr:ImfHeader.obj
 0001:001d1ef0       ?_Buyheadnode@?$_Tree_alloc@$0A@U?$_Tree_base_types@U?$pair@$$CBVName@Imf@@PEAVAttribute@2@@std@@V?$allocator@U?$pair@$$CBVName@Imf@@PEAVAttribute@2@@std@@@2@@std@@@std@@QEAAPEAU?$_Tree_node@U?$pair@$$CBVName@Imf@@PEAVAttribute@2@@std@@PEAX@2@XZ 00000001801d2ef0 f i OpenExr:ImfHeader.obj
 0001:001d2050       ?_Buyheadnode@?$_Tree_alloc@$0A@U?$_Tree_base_types@U?$pair@$$CBVName@Imf@@UChannel@2@@std@@V?$allocator@U?$pair@$$CBVName@Imf@@UChannel@2@@std@@@2@@std@@@std@@QEAAPEAU?$_Tree_node@U?$pair@$$CBVName@Imf@@UChannel@2@@std@@PEAX@2@XZ 00000001801d3050 f i OpenExr:ImfHeader.obj
 0001:001d21b0       ?_Buynode0@?$_Tree_buy@U?$pair@$$CBVName@Imf@@PEAVAttribute@2@@std@@V?$allocator@U?$pair@$$CBVName@Imf@@PEAVAttribute@2@@std@@@2@@std@@QEAAPEAU?$_Tree_node@U?$pair@$$CBVName@Imf@@PEAVAttribute@2@@std@@PEAX@2@XZ 00000001801d31b0 f i OpenExr:ImfHeader.obj
 0001:001d2320       ?_Buynode0@?$_Tree_buy@U?$pair@$$CBVName@Imf@@UChannel@2@@std@@V?$allocator@U?$pair@$$CBVName@Imf@@UChannel@2@@std@@@2@@std@@QEAAPEAU?$_Tree_node@U?$pair@$$CBVName@Imf@@UChannel@2@@std@@PEAX@2@XZ 00000001801d3320 f i OpenExr:ImfHeader.obj
 0001:001d2490       ?_Change_alloc@?$_Tree_alloc@$0A@U?$_Tree_base_types@U?$pair@$$CBVName@Imf@@UChannel@2@@std@@V?$allocator@U?$pair@$$CBVName@Imf@@UChannel@2@@std@@@2@@std@@@std@@QEAAXAEBU?$_Wrap_alloc@V?$allocator@U?$_Tree_node@U?$pair@$$CBVName@Imf@@UChannel@2@@std@@PEAX@std@@@std@@@2@@Z 00000001801d3490 f i OpenExr:ImfHeader.obj
 0001:001d24a0       ?_Change_alloc@?$_Vector_alloc@$0A@U?$_Vec_base_types@MV?$allocator@M@std@@@std@@@std@@QEAAXAEBU?$_Wrap_alloc@V?$allocator@M@std@@@2@@Z 00000001801d34a0 f i OpenExr:ImfHeader.obj
 0001:001d24b0       ?_Change_alloc@?$_Vector_alloc@$0A@U?$_Vec_base_types@V?$basic_string@DU?$char_traits@D@std@@V?$allocator@D@2@@std@@V?$allocator@V?$basic_string@DU?$char_traits@D@std@@V?$allocator@D@2@@std@@@2@@std@@@std@@QEAAXAEBU?$_Wrap_alloc@V?$allocator@V?$basic_string@DU?$char_traits@D@std@@V?$allocator@D@2@@std@@@std@@@2@@Z 00000001801d34b0 f i OpenExr:ImfHeader.obj
 0001:001d24c0       ?_Color@?$_Tree_val@U?$_Tree_simple_types@U?$pair@$$CBVName@Imf@@PEAVAttribute@2@@std@@@std@@@std@@SAAEADPEAU?$_Tree_node@U?$pair@$$CBVName@Imf@@PEAVAttribute@2@@std@@PEAX@2@@Z 00000001801d34c0 f i OpenExr:ImfHeader.obj
 0001:001d24e0       ?_Color@?$_Tree_val@U?$_Tree_simple_types@U?$pair@$$CBVName@Imf@@UChannel@2@@std@@@std@@@std@@SAAEADPEAU?$_Tree_node@U?$pair@$$CBVName@Imf@@UChannel@2@@std@@PEAX@2@@Z 00000001801d34e0 f i OpenExr:ImfHeader.obj
 0001:001d2500       ?_Destroy@?$vector@MV?$allocator@M@std@@@std@@IEAAXPEAM0@Z 00000001801d3500 f i OpenExr:ImfHeader.obj
 0001:001d2560       ?_Destroy@?$vector@V?$basic_string@DU?$char_traits@D@std@@V?$allocator@D@2@@std@@V?$allocator@V?$basic_string@DU?$char_traits@D@std@@V?$allocator@D@2@@std@@@2@@std@@IEAAXPEAV?$basic_string@DU?$char_traits@D@std@@V?$allocator@D@2@@2@0@Z 00000001801d3560 f i OpenExr:ImfHeader.obj
 0001:001d25c0       ?_Destroy_if_not_nil@?$_Tree@V?$_Tmap_traits@VName@Imf@@PEAVAttribute@2@U?$less@VName@Imf@@@std@@V?$allocator@U?$pair@$$CBVName@Imf@@PEAVAttribute@2@@std@@@5@$0A@@std@@@std@@IEAAXPEAU?$_Tree_node@U?$pair@$$CBVName@Imf@@PEAVAttribute@2@@std@@PEAX@2@@Z 00000001801d35c0 f i OpenExr:ImfHeader.obj
 0001:001d2650       ?_Erase@?$_Tree@V?$_Tmap_traits@VName@Imf@@PEAVAttribute@2@U?$less@VName@Imf@@@std@@V?$allocator@U?$pair@$$CBVName@Imf@@PEAVAttribute@2@@std@@@5@$0A@@std@@@std@@IEAAXPEAU?$_Tree_node@U?$pair@$$CBVName@Imf@@PEAVAttribute@2@@std@@PEAX@2@@Z 00000001801d3650 f i OpenExr:ImfHeader.obj
 0001:001d2730       ?_Erase@?$_Tree@V?$_Tmap_traits@VName@Imf@@UChannel@2@U?$less@VName@Imf@@@std@@V?$allocator@U?$pair@$$CBVName@Imf@@UChannel@2@@std@@@5@$0A@@std@@@std@@IEAAXPEAU?$_Tree_node@U?$pair@$$CBVName@Imf@@UChannel@2@@std@@PEAX@2@@Z 00000001801d3730 f i OpenExr:ImfHeader.obj
 0001:001d2810       ?_Free_proxy@?$_Tree_alloc@$0A@U?$_Tree_base_types@U?$pair@$$CBVName@Imf@@PEAVAttribute@2@@std@@V?$allocator@U?$pair@$$CBVName@Imf@@PEAVAttribute@2@@std@@@2@@std@@@std@@QEAAXXZ 00000001801d3810 f i OpenExr:ImfHeader.obj
 0001:001d28a0       ?_Free_proxy@?$_Tree_alloc@$0A@U?$_Tree_base_types@U?$pair@$$CBVName@Imf@@UChannel@2@@std@@V?$allocator@U?$pair@$$CBVName@Imf@@UChannel@2@@std@@@2@@std@@@std@@QEAAXXZ 00000001801d38a0 f i OpenExr:ImfHeader.obj
 0001:001d2930       ?_Free_proxy@?$_Vector_alloc@$0A@U?$_Vec_base_types@MV?$allocator@M@std@@@std@@@std@@QEAAXXZ 00000001801d3930 f i OpenExr:ImfHeader.obj
 0001:001d29b0       ?_Free_proxy@?$_Vector_alloc@$0A@U?$_Vec_base_types@V?$basic_string@DU?$char_traits@D@std@@V?$allocator@D@2@@std@@V?$allocator@V?$basic_string@DU?$char_traits@D@std@@V?$allocator@D@2@@std@@@2@@std@@@std@@QEAAXXZ 00000001801d39b0 f i OpenExr:ImfHeader.obj
 0001:001d2a30       ?_Freeheadnode@?$_Tree_alloc@$0A@U?$_Tree_base_types@U?$pair@$$CBVName@Imf@@PEAVAttribute@2@@std@@V?$allocator@U?$pair@$$CBVName@Imf@@PEAVAttribute@2@@std@@@2@@std@@@std@@QEAAXPEAU?$_Tree_node@U?$pair@$$CBVName@Imf@@PEAVAttribute@2@@std@@PEAX@2@@Z 00000001801d3a30 f i OpenExr:ImfHeader.obj
 0001:001d2b20       ?_Freeheadnode@?$_Tree_alloc@$0A@U?$_Tree_base_types@U?$pair@$$CBVName@Imf@@UChannel@2@@std@@V?$allocator@U?$pair@$$CBVName@Imf@@UChannel@2@@std@@@2@@std@@@std@@QEAAXPEAU?$_Tree_node@U?$pair@$$CBVName@Imf@@UChannel@2@@std@@PEAX@2@@Z 00000001801d3b20 f i OpenExr:ImfHeader.obj
 0001:001d2c10       ?_Freenode0@?$_Tree_buy@U?$pair@$$CBVName@Imf@@PEAVAttribute@2@@std@@V?$allocator@U?$pair@$$CBVName@Imf@@PEAVAttribute@2@@std@@@2@@std@@QEAAXPEAU?$_Tree_node@U?$pair@$$CBVName@Imf@@PEAVAttribute@2@@std@@PEAX@2@@Z 00000001801d3c10 f i OpenExr:ImfHeader.obj
 0001:001d2d00       ?_Freenode0@?$_Tree_buy@U?$pair@$$CBVName@Imf@@UChannel@2@@std@@V?$allocator@U?$pair@$$CBVName@Imf@@UChannel@2@@std@@@2@@std@@QEAAXPEAU?$_Tree_node@U?$pair@$$CBVName@Imf@@UChannel@2@@std@@PEAX@2@@Z 00000001801d3d00 f i OpenExr:ImfHeader.obj
 0001:001d2df0       ?_Get_rest@?$tuple@$$QEAVName@Imf@@@std@@QEAAAEAV?$tuple@$$$V@2@XZ 00000001801d3df0 f i OpenExr:ImfHeader.obj
 0001:001d2e00       ?_Getal@?$_Tree_alloc@$0A@U?$_Tree_base_types@U?$pair@$$CBVName@Imf@@PEAVAttribute@2@@std@@V?$allocator@U?$pair@$$CBVName@Imf@@PEAVAttribute@2@@std@@@2@@std@@@std@@QEBA?AU?$_Wrap_alloc@V?$allocator@U?$_Tree_node@U?$pair@$$CBVName@Imf@@PEAVAttribute@2@@std@@PEAX@std@@@std@@@2@XZ 00000001801d3e00 f i OpenExr:ImfHeader.obj
 0001:001d2e40       ?_Getal@?$_Tree_alloc@$0A@U?$_Tree_base_types@U?$pair@$$CBVName@Imf@@UChannel@2@@std@@V?$allocator@U?$pair@$$CBVName@Imf@@UChannel@2@@std@@@2@@std@@@std@@QEBA?AU?$_Wrap_alloc@V?$allocator@U?$_Tree_node@U?$pair@$$CBVName@Imf@@UChannel@2@@std@@PEAX@std@@@std@@@2@XZ 00000001801d3e40 f i OpenExr:ImfHeader.obj
 0001:001d2e80       ?_Getal@?$_Vector_alloc@$0A@U?$_Vec_base_types@MV?$allocator@M@std@@@std@@@std@@QEBA?AU?$_Wrap_alloc@V?$allocator@M@std@@@2@XZ 00000001801d3e80 f i OpenExr:ImfHeader.obj
 0001:001d2ec0       ?_Getal@?$_Vector_alloc@$0A@U?$_Vec_base_types@V?$basic_string@DU?$char_traits@D@std@@V?$allocator@D@2@@std@@V?$allocator@V?$basic_string@DU?$char_traits@D@std@@V?$allocator@D@2@@std@@@2@@std@@@std@@QEBA?AU?$_Wrap_alloc@V?$allocator@V?$basic_string@DU?$char_traits@D@std@@V?$allocator@D@2@@std@@@std@@@2@XZ 00000001801d3ec0 f i OpenExr:ImfHeader.obj
 0001:001d2f00       ?_Getcomp@?$_Tree_comp@$0A@V?$_Tmap_traits@VName@Imf@@PEAVAttribute@2@U?$less@VName@Imf@@@std@@V?$allocator@U?$pair@$$CBVName@Imf@@PEAVAttribute@2@@std@@@5@$0A@@std@@@std@@QEBA?AU?$less@VName@Imf@@@2@XZ 00000001801d3f00 f i OpenExr:ImfHeader.obj
 0001:001d2f30       ?_Getcomp@?$_Tree_comp@$0A@V?$_Tmap_traits@VName@Imf@@UChannel@2@U?$less@VName@Imf@@@std@@V?$allocator@U?$pair@$$CBVName@Imf@@UChannel@2@@std@@@5@$0A@@std@@@std@@QEBA?AU?$less@VName@Imf@@@2@XZ 00000001801d3f30 f i OpenExr:ImfHeader.obj
 0001:001d2f60       ?_Getstate@?$basic_stringbuf@DU?$char_traits@D@std@@V?$allocator@D@2@@std@@AEAAHH@Z 00000001801d3f60 f i OpenExr:ImfHeader.obj
 0001:001d2ff0       ?_Init@?$basic_stringbuf@DU?$char_traits@D@std@@V?$allocator@D@2@@std@@IEAAXPEBD_KH@Z 00000001801d3ff0 f i OpenExr:ImfHeader.obj
 0001:001d3190       ?_Isnil@?$_Tree_val@U?$_Tree_simple_types@U?$pair@$$CBVName@Imf@@PEAVAttribute@2@@std@@@std@@@std@@SAAEADPEAU?$_Tree_node@U?$pair@$$CBVName@Imf@@PEAVAttribute@2@@std@@PEAX@2@@Z 00000001801d4190 f i OpenExr:ImfHeader.obj
 0001:001d31b0       ?_Isnil@?$_Tree_val@U?$_Tree_simple_types@U?$pair@$$CBVName@Imf@@UChannel@2@@std@@@std@@@std@@SAAEADPEAU?$_Tree_node@U?$pair@$$CBVName@Imf@@UChannel@2@@std@@PEAX@2@@Z 00000001801d41b0 f i OpenExr:ImfHeader.obj
 0001:001d31d0       ?_Key@?$_Tree@V?$_Tmap_traits@VName@Imf@@PEAVAttribute@2@U?$less@VName@Imf@@@std@@V?$allocator@U?$pair@$$CBVName@Imf@@PEAVAttribute@2@@std@@@5@$0A@@std@@@std@@IEBAAEBVName@Imf@@PEAU?$_Tree_node@U?$pair@$$CBVName@Imf@@PEAVAttribute@2@@std@@PEAX@2@@Z 00000001801d41d0 f i OpenExr:ImfHeader.obj
 0001:001d3210       ?_Kfn@?$_Tree@V?$_Tmap_traits@VName@Imf@@PEAVAttribute@2@U?$less@VName@Imf@@@std@@V?$allocator@U?$pair@$$CBVName@Imf@@PEAVAttribute@2@@std@@@5@$0A@@std@@@std@@IEBAAEBVName@Imf@@AEBU?$pair@$$CBVName@Imf@@PEAVAttribute@2@@2@@Z 00000001801d4210 f i OpenExr:ImfHeader.obj
 0001:001d3250       ?_Lbound@?$_Tree@V?$_Tmap_traits@VName@Imf@@PEAVAttribute@2@U?$less@VName@Imf@@@std@@V?$allocator@U?$pair@$$CBVName@Imf@@PEAVAttribute@2@@std@@@5@$0A@@std@@@std@@IEAAPEAU?$_Tree_node@U?$pair@$$CBVName@Imf@@PEAVAttribute@2@@std@@PEAX@2@AEBVName@Imf@@@Z 00000001801d4250 f i OpenExr:ImfHeader.obj
 0001:001d3340       ?_Lbound@?$_Tree@V?$_Tmap_traits@VName@Imf@@PEAVAttribute@2@U?$less@VName@Imf@@@std@@V?$allocator@U?$pair@$$CBVName@Imf@@PEAVAttribute@2@@std@@@5@$0A@@std@@@std@@IEBAPEAU?$_Tree_node@U?$pair@$$CBVName@Imf@@PEAVAttribute@2@@std@@PEAX@2@AEBVName@Imf@@@Z 00000001801d4340 f i OpenExr:ImfHeader.obj
 0001:001d3430       ?_Left@?$_Tree_val@U?$_Tree_simple_types@U?$pair@$$CBVName@Imf@@PEAVAttribute@2@@std@@@std@@@std@@SAAEAPEAU?$_Tree_node@U?$pair@$$CBVName@Imf@@PEAVAttribute@2@@std@@PEAX@2@PEAU32@@Z 00000001801d4430 f i OpenExr:ImfHeader.obj
 0001:001d3440       ?_Left@?$_Tree_val@U?$_Tree_simple_types@U?$pair@$$CBVName@Imf@@UChannel@2@@std@@@std@@@std@@SAAEAPEAU?$_Tree_node@U?$pair@$$CBVName@Imf@@UChannel@2@@std@@PEAX@2@PEAU32@@Z 00000001801d4440 f i OpenExr:ImfHeader.obj
 0001:001d3450       ?_Lmost@?$_Tree@V?$_Tmap_traits@VName@Imf@@PEAVAttribute@2@U?$less@VName@Imf@@@std@@V?$allocator@U?$pair@$$CBVName@Imf@@PEAVAttribute@2@@std@@@5@$0A@@std@@@std@@IEBAAEAPEAU?$_Tree_node@U?$pair@$$CBVName@Imf@@PEAVAttribute@2@@std@@PEAX@2@XZ 00000001801d4450 f i OpenExr:ImfHeader.obj
 0001:001d3490       ?_Lmost@?$_Tree@V?$_Tmap_traits@VName@Imf@@UChannel@2@U?$less@VName@Imf@@@std@@V?$allocator@U?$pair@$$CBVName@Imf@@UChannel@2@@std@@@5@$0A@@std@@@std@@IEBAAEAPEAU?$_Tree_node@U?$pair@$$CBVName@Imf@@UChannel@2@@std@@PEAX@2@XZ 00000001801d4490 f i OpenExr:ImfHeader.obj
 0001:001d34d0       ?_Lrotate@?$_Tree@V?$_Tmap_traits@VName@Imf@@PEAVAttribute@2@U?$less@VName@Imf@@@std@@V?$allocator@U?$pair@$$CBVName@Imf@@PEAVAttribute@2@@std@@@5@$0A@@std@@@std@@IEAAXPEAU?$_Tree_node@U?$pair@$$CBVName@Imf@@PEAVAttribute@2@@std@@PEAX@2@@Z 00000001801d44d0 f i OpenExr:ImfHeader.obj
 0001:001d3630       ?_Lrotate@?$_Tree@V?$_Tmap_traits@VName@Imf@@UChannel@2@U?$less@VName@Imf@@@std@@V?$allocator@U?$pair@$$CBVName@Imf@@UChannel@2@@std@@@5@$0A@@std@@@std@@IEAAXPEAU?$_Tree_node@U?$pair@$$CBVName@Imf@@UChannel@2@@std@@PEAX@2@@Z 00000001801d4630 f i OpenExr:ImfHeader.obj
 0001:001d3790       ?_Max@?$_Tree_val@U?$_Tree_simple_types@U?$pair@$$CBVName@Imf@@PEAVAttribute@2@@std@@@std@@@std@@SAPEAU?$_Tree_node@U?$pair@$$CBVName@Imf@@PEAVAttribute@2@@std@@PEAX@2@PEAU32@@Z 00000001801d4790 f i OpenExr:ImfHeader.obj
 0001:001d37f0       ?_Max@?$_Tree_val@U?$_Tree_simple_types@U?$pair@$$CBVName@Imf@@UChannel@2@@std@@@std@@@std@@SAPEAU?$_Tree_node@U?$pair@$$CBVName@Imf@@UChannel@2@@std@@PEAX@2@PEAU32@@Z 00000001801d47f0 f i OpenExr:ImfHeader.obj
 0001:001d3850       ?_Min@?$_Tree_val@U?$_Tree_simple_types@U?$pair@$$CBVName@Imf@@PEAVAttribute@2@@std@@@std@@@std@@SAPEAU?$_Tree_node@U?$pair@$$CBVName@Imf@@PEAVAttribute@2@@std@@PEAX@2@PEAU32@@Z 00000001801d4850 f i OpenExr:ImfHeader.obj
 0001:001d38b0       ?_Min@?$_Tree_val@U?$_Tree_simple_types@U?$pair@$$CBVName@Imf@@UChannel@2@@std@@@std@@@std@@SAPEAU?$_Tree_node@U?$pair@$$CBVName@Imf@@UChannel@2@@std@@PEAX@2@PEAU32@@Z 00000001801d48b0 f i OpenExr:ImfHeader.obj
 0001:001d3910       ?_Mynode@?$_Tree_unchecked_const_iterator@V?$_Tree_val@U?$_Tree_simple_types@U?$pair@$$CBVName@Imf@@PEAVAttribute@2@@std@@@std@@@std@@U_Iterator_base12@2@@std@@QEBAPEAU?$_Tree_node@U?$pair@$$CBVName@Imf@@PEAVAttribute@2@@std@@PEAX@2@XZ 00000001801d4910 f i OpenExr:ImfHeader.obj
 0001:001d3930       ?_Mynode@?$_Tree_unchecked_const_iterator@V?$_Tree_val@U?$_Tree_simple_types@U?$pair@$$CBVName@Imf@@UChannel@2@@std@@@std@@@std@@U_Iterator_base12@2@@std@@QEBAPEAU?$_Tree_node@U?$pair@$$CBVName@Imf@@UChannel@2@@std@@PEAX@2@XZ 00000001801d4930 f i OpenExr:ImfHeader.obj
 0001:001d3950       ?_Myval@?$_Tree_val@U?$_Tree_simple_types@U?$pair@$$CBVName@Imf@@PEAVAttribute@2@@std@@@std@@@std@@SAAEAU?$pair@$$CBVName@Imf@@PEAVAttribute@2@@2@PEAU?$_Tree_node@U?$pair@$$CBVName@Imf@@PEAVAttribute@2@@std@@PEAX@2@@Z 00000001801d4950 f i OpenExr:ImfHeader.obj
 0001:001d3970       ?_Myval@?$_Tree_val@U?$_Tree_simple_types@U?$pair@$$CBVName@Imf@@UChannel@2@@std@@@std@@@std@@SAAEAU?$pair@$$CBVName@Imf@@UChannel@2@@2@PEAU?$_Tree_node@U?$pair@$$CBVName@Imf@@UChannel@2@@std@@PEAX@2@@Z 00000001801d4970 f i OpenExr:ImfHeader.obj
 0001:001d3990       ?_Orphan_ptr@?$_Tree@V?$_Tmap_traits@VName@Imf@@PEAVAttribute@2@U?$less@VName@Imf@@@std@@V?$allocator@U?$pair@$$CBVName@Imf@@PEAVAttribute@2@@std@@@5@$0A@@std@@@std@@IEBAXAEAV12@PEAU?$_Tree_node@U?$pair@$$CBVName@Imf@@PEAVAttribute@2@@std@@PEAX@2@@Z 00000001801d4990 f i OpenExr:ImfHeader.obj
 0001:001d3a90       ?_Orphan_ptr@?$_Tree@V?$_Tmap_traits@VName@Imf@@UChannel@2@U?$less@VName@Imf@@@std@@V?$allocator@U?$pair@$$CBVName@Imf@@UChannel@2@@std@@@5@$0A@@std@@@std@@IEBAXAEAV12@PEAU?$_Tree_node@U?$pair@$$CBVName@Imf@@UChannel@2@@std@@PEAX@2@@Z 00000001801d4a90 f i OpenExr:ImfHeader.obj
 0001:001d3b90       ?_Parent@?$_Tree_val@U?$_Tree_simple_types@U?$pair@$$CBVName@Imf@@PEAVAttribute@2@@std@@@std@@@std@@SAAEAPEAU?$_Tree_node@U?$pair@$$CBVName@Imf@@PEAVAttribute@2@@std@@PEAX@2@PEAU32@@Z 00000001801d4b90 f i OpenExr:ImfHeader.obj
 0001:001d3bb0       ?_Parent@?$_Tree_val@U?$_Tree_simple_types@U?$pair@$$CBVName@Imf@@UChannel@2@@std@@@std@@@std@@SAAEAPEAU?$_Tree_node@U?$pair@$$CBVName@Imf@@UChannel@2@@std@@PEAX@2@PEAU32@@Z 00000001801d4bb0 f i OpenExr:ImfHeader.obj
 0001:001d3bd0       ?_Right@?$_Tree_val@U?$_Tree_simple_types@U?$pair@$$CBVName@Imf@@PEAVAttribute@2@@std@@@std@@@std@@SAAEAPEAU?$_Tree_node@U?$pair@$$CBVName@Imf@@PEAVAttribute@2@@std@@PEAX@2@PEAU32@@Z 00000001801d4bd0 f i OpenExr:ImfHeader.obj
 0001:001d3bf0       ?_Right@?$_Tree_val@U?$_Tree_simple_types@U?$pair@$$CBVName@Imf@@UChannel@2@@std@@@std@@@std@@SAAEAPEAU?$_Tree_node@U?$pair@$$CBVName@Imf@@UChannel@2@@std@@PEAX@2@PEAU32@@Z 00000001801d4bf0 f i OpenExr:ImfHeader.obj
 0001:001d3c10       ?_Rmost@?$_Tree@V?$_Tmap_traits@VName@Imf@@PEAVAttribute@2@U?$less@VName@Imf@@@std@@V?$allocator@U?$pair@$$CBVName@Imf@@PEAVAttribute@2@@std@@@5@$0A@@std@@@std@@IEBAAEAPEAU?$_Tree_node@U?$pair@$$CBVName@Imf@@PEAVAttribute@2@@std@@PEAX@2@XZ 00000001801d4c10 f i OpenExr:ImfHeader.obj
 0001:001d3c50       ?_Rmost@?$_Tree@V?$_Tmap_traits@VName@Imf@@UChannel@2@U?$less@VName@Imf@@@std@@V?$allocator@U?$pair@$$CBVName@Imf@@UChannel@2@@std@@@5@$0A@@std@@@std@@IEBAAEAPEAU?$_Tree_node@U?$pair@$$CBVName@Imf@@UChannel@2@@std@@PEAX@2@XZ 00000001801d4c50 f i OpenExr:ImfHeader.obj
 0001:001d3c90       ?_Root@?$_Tree@V?$_Tmap_traits@VName@Imf@@PEAVAttribute@2@U?$less@VName@Imf@@@std@@V?$allocator@U?$pair@$$CBVName@Imf@@PEAVAttribute@2@@std@@@5@$0A@@std@@@std@@IEBAAEAPEAU?$_Tree_node@U?$pair@$$CBVName@Imf@@PEAVAttribute@2@@std@@PEAX@2@XZ 00000001801d4c90 f i OpenExr:ImfHeader.obj
 0001:001d3cd0       ?_Root@?$_Tree@V?$_Tmap_traits@VName@Imf@@UChannel@2@U?$less@VName@Imf@@@std@@V?$allocator@U?$pair@$$CBVName@Imf@@UChannel@2@@std@@@5@$0A@@std@@@std@@IEBAAEAPEAU?$_Tree_node@U?$pair@$$CBVName@Imf@@UChannel@2@@std@@PEAX@2@XZ 00000001801d4cd0 f i OpenExr:ImfHeader.obj
 0001:001d3d10       ?_Rrotate@?$_Tree@V?$_Tmap_traits@VName@Imf@@PEAVAttribute@2@U?$less@VName@Imf@@@std@@V?$allocator@U?$pair@$$CBVName@Imf@@PEAVAttribute@2@@std@@@5@$0A@@std@@@std@@IEAAXPEAU?$_Tree_node@U?$pair@$$CBVName@Imf@@PEAVAttribute@2@@std@@PEAX@2@@Z 00000001801d4d10 f i OpenExr:ImfHeader.obj
 0001:001d3e70       ?_Rrotate@?$_Tree@V?$_Tmap_traits@VName@Imf@@UChannel@2@U?$less@VName@Imf@@@std@@V?$allocator@U?$pair@$$CBVName@Imf@@UChannel@2@@std@@@5@$0A@@std@@@std@@IEAAXPEAU?$_Tree_node@U?$pair@$$CBVName@Imf@@UChannel@2@@std@@PEAX@2@@Z 00000001801d4e70 f i OpenExr:ImfHeader.obj
 0001:001d3fd0       ?_Setcomp@?$_Tree_comp@$0A@V?$_Tmap_traits@VName@Imf@@UChannel@2@U?$less@VName@Imf@@@std@@V?$allocator@U?$pair@$$CBVName@Imf@@UChannel@2@@std@@@5@$0A@@std@@@std@@QEAAXAEBU?$less@VName@Imf@@@2@@Z 00000001801d4fd0 f i OpenExr:ImfHeader.obj
 0001:001d3fe0       ?_Tidy@?$_Tree@V?$_Tmap_traits@VName@Imf@@PEAVAttribute@2@U?$less@VName@Imf@@@std@@V?$allocator@U?$pair@$$CBVName@Imf@@PEAVAttribute@2@@std@@@5@$0A@@std@@@std@@IEAAXXZ 00000001801d4fe0 f i OpenExr:ImfHeader.obj
 0001:001d4110       ?_Tidy@?$_Tree@V?$_Tmap_traits@VName@Imf@@UChannel@2@U?$less@VName@Imf@@@std@@V?$allocator@U?$pair@$$CBVName@Imf@@UChannel@2@@std@@@5@$0A@@std@@@std@@IEAAXXZ 00000001801d5110 f i OpenExr:ImfHeader.obj
 0001:001d4240       ?_Tidy@?$basic_stringbuf@DU?$char_traits@D@std@@V?$allocator@D@2@@std@@IEAAXXZ 00000001801d5240 f i OpenExr:ImfHeader.obj
 0001:001d4330       ?_Tidy@?$vector@MV?$allocator@M@std@@@std@@IEAAXXZ 00000001801d5330 f i OpenExr:ImfHeader.obj
 0001:001d4400       ?_Tidy@?$vector@V?$basic_string@DU?$char_traits@D@std@@V?$allocator@D@2@@std@@V?$allocator@V?$basic_string@DU?$char_traits@D@std@@V?$allocator@D@2@@std@@@2@@std@@IEAAXXZ 00000001801d5400 f i OpenExr:ImfHeader.obj
 0001:001d44d0       ?_Xlen@?$vector@MV?$allocator@M@std@@@std@@IEBAXXZ 00000001801d54d0 f i OpenExr:ImfHeader.obj
 0001:001d4510       ?_Xlen@?$vector@V?$basic_string@DU?$char_traits@D@std@@V?$allocator@D@2@@std@@V?$allocator@V?$basic_string@DU?$char_traits@D@std@@V?$allocator@D@2@@std@@@2@@std@@IEBAXXZ 00000001801d5510 f i OpenExr:ImfHeader.obj
 0001:001d4550       ?allocate@?$_Wrap_alloc@V?$allocator@M@std@@@std@@QEAAPEAM_K@Z 00000001801d5550 f i OpenExr:ImfHeader.obj
 0001:001d4590       ?allocate@?$_Wrap_alloc@V?$allocator@U?$_Tree_node@U?$pair@$$CBVName@Imf@@PEAVAttribute@2@@std@@PEAX@std@@@std@@@std@@QEAAPEAU?$_Tree_node@U?$pair@$$CBVName@Imf@@PEAVAttribute@2@@std@@PEAX@2@_K@Z 00000001801d5590 f i OpenExr:ImfHeader.obj
 0001:001d45d0       ?allocate@?$_Wrap_alloc@V?$allocator@U?$_Tree_node@U?$pair@$$CBVName@Imf@@UChannel@2@@std@@PEAX@std@@@std@@@std@@QEAAPEAU?$_Tree_node@U?$pair@$$CBVName@Imf@@UChannel@2@@std@@PEAX@2@_K@Z 00000001801d55d0 f i OpenExr:ImfHeader.obj
 0001:001d4610       ?allocate@?$_Wrap_alloc@V?$allocator@V?$basic_string@DU?$char_traits@D@std@@V?$allocator@D@2@@std@@@std@@@std@@QEAAPEAV?$basic_string@DU?$char_traits@D@std@@V?$allocator@D@2@@2@_K@Z 00000001801d5610 f i OpenExr:ImfHeader.obj
 0001:001d4650       ?allocate@?$allocator@M@std@@QEAAPEAM_K@Z 00000001801d5650 f i OpenExr:ImfHeader.obj
 0001:001d4690       ?allocate@?$allocator@U?$_Tree_node@U?$pair@$$CBVName@Imf@@PEAVAttribute@2@@std@@PEAX@std@@@std@@QEAAPEAU?$_Tree_node@U?$pair@$$CBVName@Imf@@PEAVAttribute@2@@std@@PEAX@2@_K@Z 00000001801d5690 f i OpenExr:ImfHeader.obj
 0001:001d46d0       ?allocate@?$allocator@U?$_Tree_node@U?$pair@$$CBVName@Imf@@UChannel@2@@std@@PEAX@std@@@std@@QEAAPEAU?$_Tree_node@U?$pair@$$CBVName@Imf@@UChannel@2@@std@@PEAX@2@_K@Z 00000001801d56d0 f i OpenExr:ImfHeader.obj
 0001:001d4710       ?allocate@?$allocator@V?$basic_string@DU?$char_traits@D@std@@V?$allocator@D@2@@std@@@std@@QEAAPEAV?$basic_string@DU?$char_traits@D@std@@V?$allocator@D@2@@2@_K@Z 00000001801d5710 f i OpenExr:ImfHeader.obj
 0001:001d4750       ?append@?$basic_string@DU?$char_traits@D@std@@V?$allocator@D@2@@std@@QEAAAEAV12@AEBV12@@Z 00000001801d5750 f i OpenExr:ImfHeader.obj
 0001:001d47a0       ?append@?$basic_string@DU?$char_traits@D@std@@V?$allocator@D@2@@std@@QEAAAEAV12@AEBV12@_K1@Z 00000001801d57a0 f i OpenExr:ImfHeader.obj
 0001:001d48d0       ?append@?$basic_string@DU?$char_traits@D@std@@V?$allocator@D@2@@std@@QEAAAEAV12@PEBD@Z 00000001801d58d0 f i OpenExr:ImfHeader.obj
 0001:001d4930       ?append@?$basic_string@DU?$char_traits@D@std@@V?$allocator@D@2@@std@@QEAAAEAV12@PEBD_K@Z 00000001801d5930 f i OpenExr:ImfHeader.obj
 0001:001d4a60       ?assign@?$basic_string@DU?$char_traits@D@std@@V?$allocator@D@2@@std@@QEAAAEAV12@AEBV12@@Z 00000001801d5a60 f i OpenExr:ImfHeader.obj
 0001:001d4ab0       ?attribute@ConstIterator@Header@Imf@@QEBAAEBVAttribute@3@XZ 00000001801d5ab0 f i OpenExr:ImfHeader.obj
 0001:001d4af0       ?baseTypeMax@?$Vec2@M@Imath@@SAMXZ 00000001801d5af0 f i OpenExr:ImfHeader.obj
 0001:001d4b10       ?baseTypeMin@?$Vec2@M@Imath@@SAMXZ 00000001801d5b10 f i OpenExr:ImfHeader.obj
 0001:001d4b30       ?begin@?$_Tree@V?$_Tmap_traits@VName@Imf@@PEAVAttribute@2@U?$less@VName@Imf@@@std@@V?$allocator@U?$pair@$$CBVName@Imf@@PEAVAttribute@2@@std@@@5@$0A@@std@@@std@@QEAA?AV?$_Tree_iterator@V?$_Tree_val@U?$_Tree_simple_types@U?$pair@$$CBVName@Imf@@PEAVAttribute@2@@std@@@std@@@std@@@2@XZ 00000001801d5b30 f i OpenExr:ImfHeader.obj
 0001:001d4b80       ?begin@?$_Tree@V?$_Tmap_traits@VName@Imf@@PEAVAttribute@2@U?$less@VName@Imf@@@std@@V?$allocator@U?$pair@$$CBVName@Imf@@PEAVAttribute@2@@std@@@5@$0A@@std@@@std@@QEBA?AV?$_Tree_const_iterator@V?$_Tree_val@U?$_Tree_simple_types@U?$pair@$$CBVName@Imf@@PEAVAttribute@2@@std@@@std@@@std@@@2@XZ 00000001801d5b80 f i OpenExr:ImfHeader.obj
 0001:001d4bd0       ?begin@?$_Tree@V?$_Tmap_traits@VName@Imf@@UChannel@2@U?$less@VName@Imf@@@std@@V?$allocator@U?$pair@$$CBVName@Imf@@UChannel@2@@std@@@5@$0A@@std@@@std@@QEAA?AV?$_Tree_iterator@V?$_Tree_val@U?$_Tree_simple_types@U?$pair@$$CBVName@Imf@@UChannel@2@@std@@@std@@@std@@@2@XZ 00000001801d5bd0 f i OpenExr:ImfHeader.obj
 0001:001d4c20       ?capacity@?$vector@MV?$allocator@M@std@@@std@@QEBA_KXZ 00000001801d5c20 f i OpenExr:ImfHeader.obj
 0001:001d4c50       ?capacity@?$vector@V?$basic_string@DU?$char_traits@D@std@@V?$allocator@D@2@@std@@V?$allocator@V?$basic_string@DU?$char_traits@D@std@@V?$allocator@D@2@@std@@@2@@std@@QEBA_KXZ 00000001801d5c50 f i OpenExr:ImfHeader.obj
 0001:001d4c80       ?cast@?$TypedAttribute@H@Imf@@SAAEBV12@AEBVAttribute@2@@Z 00000001801d5c80 f i OpenExr:ImfHeader.obj
 0001:001d4cb0       ?cast@?$TypedAttribute@H@Imf@@SAPEBV12@PEBVAttribute@2@@Z 00000001801d5cb0 f i OpenExr:ImfHeader.obj
 0001:001d4d60       ?cast@?$TypedAttribute@M@Imf@@SAAEBV12@AEBVAttribute@2@@Z 00000001801d5d60 f i OpenExr:ImfHeader.obj
 0001:001d4d90       ?cast@?$TypedAttribute@M@Imf@@SAPEBV12@PEBVAttribute@2@@Z 00000001801d5d90 f i OpenExr:ImfHeader.obj
 0001:001d4e40       ?cast@?$TypedAttribute@N@Imf@@SAAEBV12@AEBVAttribute@2@@Z 00000001801d5e40 f i OpenExr:ImfHeader.obj
 0001:001d4e70       ?cast@?$TypedAttribute@N@Imf@@SAPEBV12@PEBVAttribute@2@@Z 00000001801d5e70 f i OpenExr:ImfHeader.obj
 0001:001d4f20       ?cast@?$TypedAttribute@UChromaticities@Imf@@@Imf@@SAAEBV12@AEBVAttribute@2@@Z 00000001801d5f20 f i OpenExr:ImfHeader.obj
 0001:001d4f50       ?cast@?$TypedAttribute@UChromaticities@Imf@@@Imf@@SAPEBV12@PEBVAttribute@2@@Z 00000001801d5f50 f i OpenExr:ImfHeader.obj
 0001:001d5000       ?cast@?$TypedAttribute@V?$Box@V?$Vec2@H@Imath@@@Imath@@@Imf@@SAAEBV12@AEBVAttribute@2@@Z 00000001801d6000 f i OpenExr:ImfHeader.obj
 0001:001d5030       ?cast@?$TypedAttribute@V?$Box@V?$Vec2@H@Imath@@@Imath@@@Imf@@SAPEBV12@PEBVAttribute@2@@Z 00000001801d6030 f i OpenExr:ImfHeader.obj
 0001:001d50e0       ?cast@?$TypedAttribute@V?$Box@V?$Vec2@M@Imath@@@Imath@@@Imf@@SAAEBV12@AEBVAttribute@2@@Z 00000001801d60e0 f i OpenExr:ImfHeader.obj
 0001:001d5110       ?cast@?$TypedAttribute@V?$Box@V?$Vec2@M@Imath@@@Imath@@@Imf@@SAPEBV12@PEBVAttribute@2@@Z 00000001801d6110 f i OpenExr:ImfHeader.obj
 0001:001d51c0       ?cast@?$TypedAttribute@V?$Matrix33@M@Imath@@@Imf@@SAAEBV12@AEBVAttribute@2@@Z 00000001801d61c0 f i OpenExr:ImfHeader.obj
 0001:001d51f0       ?cast@?$TypedAttribute@V?$Matrix33@M@Imath@@@Imf@@SAPEBV12@PEBVAttribute@2@@Z 00000001801d61f0 f i OpenExr:ImfHeader.obj
 0001:001d52a0       ?cast@?$TypedAttribute@V?$Matrix33@N@Imath@@@Imf@@SAAEBV12@AEBVAttribute@2@@Z 00000001801d62a0 f i OpenExr:ImfHeader.obj
 0001:001d52d0       ?cast@?$TypedAttribute@V?$Matrix33@N@Imath@@@Imf@@SAPEBV12@PEBVAttribute@2@@Z 00000001801d62d0 f i OpenExr:ImfHeader.obj
 0001:001d5380       ?cast@?$TypedAttribute@V?$Matrix44@M@Imath@@@Imf@@SAAEBV12@AEBVAttribute@2@@Z 00000001801d6380 f i OpenExr:ImfHeader.obj
 0001:001d53b0       ?cast@?$TypedAttribute@V?$Matrix44@M@Imath@@@Imf@@SAPEBV12@PEBVAttribute@2@@Z 00000001801d63b0 f i OpenExr:ImfHeader.obj
 0001:001d5460       ?cast@?$TypedAttribute@V?$Matrix44@N@Imath@@@Imf@@SAAEBV12@AEBVAttribute@2@@Z 00000001801d6460 f i OpenExr:ImfHeader.obj
 0001:001d5490       ?cast@?$TypedAttribute@V?$Matrix44@N@Imath@@@Imf@@SAPEBV12@PEBVAttribute@2@@Z 00000001801d6490 f i OpenExr:ImfHeader.obj
 0001:001d5540       ?cast@?$TypedAttribute@V?$Vec2@H@Imath@@@Imf@@SAAEBV12@AEBVAttribute@2@@Z 00000001801d6540 f i OpenExr:ImfHeader.obj
 0001:001d5570       ?cast@?$TypedAttribute@V?$Vec2@H@Imath@@@Imf@@SAPEBV12@PEBVAttribute@2@@Z 00000001801d6570 f i OpenExr:ImfHeader.obj
 0001:001d5620       ?cast@?$TypedAttribute@V?$Vec2@M@Imath@@@Imf@@SAAEBV12@AEBVAttribute@2@@Z 00000001801d6620 f i OpenExr:ImfHeader.obj
 0001:001d5650       ?cast@?$TypedAttribute@V?$Vec2@M@Imath@@@Imf@@SAPEBV12@PEBVAttribute@2@@Z 00000001801d6650 f i OpenExr:ImfHeader.obj
 0001:001d5700       ?cast@?$TypedAttribute@V?$Vec2@N@Imath@@@Imf@@SAAEBV12@AEBVAttribute@2@@Z 00000001801d6700 f i OpenExr:ImfHeader.obj
 0001:001d5730       ?cast@?$TypedAttribute@V?$Vec2@N@Imath@@@Imf@@SAPEBV12@PEBVAttribute@2@@Z 00000001801d6730 f i OpenExr:ImfHeader.obj
 0001:001d57e0       ?cast@?$TypedAttribute@V?$Vec3@H@Imath@@@Imf@@SAAEBV12@AEBVAttribute@2@@Z 00000001801d67e0 f i OpenExr:ImfHeader.obj
 0001:001d5810       ?cast@?$TypedAttribute@V?$Vec3@H@Imath@@@Imf@@SAPEBV12@PEBVAttribute@2@@Z 00000001801d6810 f i OpenExr:ImfHeader.obj
 0001:001d58c0       ?cast@?$TypedAttribute@V?$Vec3@M@Imath@@@Imf@@SAAEBV12@AEBVAttribute@2@@Z 00000001801d68c0 f i OpenExr:ImfHeader.obj
 0001:001d58f0       ?cast@?$TypedAttribute@V?$Vec3@M@Imath@@@Imf@@SAPEBV12@PEBVAttribute@2@@Z 00000001801d68f0 f i OpenExr:ImfHeader.obj
 0001:001d59a0       ?cast@?$TypedAttribute@V?$Vec3@N@Imath@@@Imf@@SAAEBV12@AEBVAttribute@2@@Z 00000001801d69a0 f i OpenExr:ImfHeader.obj
 0001:001d59d0       ?cast@?$TypedAttribute@V?$Vec3@N@Imath@@@Imf@@SAPEBV12@PEBVAttribute@2@@Z 00000001801d69d0 f i OpenExr:ImfHeader.obj
 0001:001d5a80       ?cast@?$TypedAttribute@V?$basic_string@DU?$char_traits@D@std@@V?$allocator@D@2@@std@@@Imf@@SAAEBV12@AEBVAttribute@2@@Z 00000001801d6a80 f i OpenExr:ImfHeader.obj
 0001:001d5ab0       ?cast@?$TypedAttribute@V?$basic_string@DU?$char_traits@D@std@@V?$allocator@D@2@@std@@@Imf@@SAPEBV12@PEBVAttribute@2@@Z 00000001801d6ab0 f i OpenExr:ImfHeader.obj
 0001:001d5b60       ?cast@?$TypedAttribute@V?$vector@MV?$allocator@M@std@@@std@@@Imf@@SAAEBV12@AEBVAttribute@2@@Z 00000001801d6b60 f i OpenExr:ImfHeader.obj
 0001:001d5b90       ?cast@?$TypedAttribute@V?$vector@MV?$allocator@M@std@@@std@@@Imf@@SAPEBV12@PEBVAttribute@2@@Z 00000001801d6b90 f i OpenExr:ImfHeader.obj
 0001:001d5c40       ?cast@?$TypedAttribute@V?$vector@V?$basic_string@DU?$char_traits@D@std@@V?$allocator@D@2@@std@@V?$allocator@V?$basic_string@DU?$char_traits@D@std@@V?$allocator@D@2@@std@@@2@@std@@@Imf@@SAAEBV12@AEBVAttribute@2@@Z 00000001801d6c40 f i OpenExr:ImfHeader.obj
 0001:001d5c70       ?cast@?$TypedAttribute@V?$vector@V?$basic_string@DU?$char_traits@D@std@@V?$allocator@D@2@@std@@V?$allocator@V?$basic_string@DU?$char_traits@D@std@@V?$allocator@D@2@@std@@@2@@std@@@Imf@@SAPEBV12@PEBVAttribute@2@@Z 00000001801d6c70 f i OpenExr:ImfHeader.obj
 0001:001d5d20       ?cast@?$TypedAttribute@VChannelList@Imf@@@Imf@@SAAEBV12@AEBVAttribute@2@@Z 00000001801d6d20 f i OpenExr:ImfHeader.obj
 0001:001d5d50       ?cast@?$TypedAttribute@VChannelList@Imf@@@Imf@@SAPEBV12@PEBVAttribute@2@@Z 00000001801d6d50 f i OpenExr:ImfHeader.obj
 0001:001d5e00       ?cast@?$TypedAttribute@VKeyCode@Imf@@@Imf@@SAAEBV12@AEBVAttribute@2@@Z 00000001801d6e00 f i OpenExr:ImfHeader.obj
 0001:001d5e30       ?cast@?$TypedAttribute@VKeyCode@Imf@@@Imf@@SAPEBV12@PEBVAttribute@2@@Z 00000001801d6e30 f i OpenExr:ImfHeader.obj
 0001:001d5ee0       ?cast@?$TypedAttribute@VPreviewImage@Imf@@@Imf@@SAAEBV12@AEBVAttribute@2@@Z 00000001801d6ee0 f i OpenExr:ImfHeader.obj
 0001:001d5f10       ?cast@?$TypedAttribute@VPreviewImage@Imf@@@Imf@@SAPEBV12@PEBVAttribute@2@@Z 00000001801d6f10 f i OpenExr:ImfHeader.obj
 0001:001d5fc0       ?cast@?$TypedAttribute@VRational@Imf@@@Imf@@SAAEBV12@AEBVAttribute@2@@Z 00000001801d6fc0 f i OpenExr:ImfHeader.obj
 0001:001d5ff0       ?cast@?$TypedAttribute@VRational@Imf@@@Imf@@SAPEBV12@PEBVAttribute@2@@Z 00000001801d6ff0 f i OpenExr:ImfHeader.obj
 0001:001d60a0       ?cast@?$TypedAttribute@VTileDescription@Imf@@@Imf@@SAAEBV12@AEBVAttribute@2@@Z 00000001801d70a0 f i OpenExr:ImfHeader.obj
 0001:001d60d0       ?cast@?$TypedAttribute@VTileDescription@Imf@@@Imf@@SAPEBV12@PEBVAttribute@2@@Z 00000001801d70d0 f i OpenExr:ImfHeader.obj
 0001:001d6180       ?cast@?$TypedAttribute@VTimeCode@Imf@@@Imf@@SAAEBV12@AEBVAttribute@2@@Z 00000001801d7180 f i OpenExr:ImfHeader.obj
 0001:001d61b0       ?cast@?$TypedAttribute@VTimeCode@Imf@@@Imf@@SAPEBV12@PEBVAttribute@2@@Z 00000001801d71b0 f i OpenExr:ImfHeader.obj
 0001:001d6260       ?cast@?$TypedAttribute@W4Compression@Imf@@@Imf@@SAAEBV12@AEBVAttribute@2@@Z 00000001801d7260 f i OpenExr:ImfHeader.obj
 0001:001d6290       ?cast@?$TypedAttribute@W4Compression@Imf@@@Imf@@SAPEBV12@PEBVAttribute@2@@Z 00000001801d7290 f i OpenExr:ImfHeader.obj
 0001:001d6340       ?cast@?$TypedAttribute@W4DeepImageState@Imf@@@Imf@@SAAEBV12@AEBVAttribute@2@@Z 00000001801d7340 f i OpenExr:ImfHeader.obj
 0001:001d6370       ?cast@?$TypedAttribute@W4DeepImageState@Imf@@@Imf@@SAPEBV12@PEBVAttribute@2@@Z 00000001801d7370 f i OpenExr:ImfHeader.obj
 0001:001d6420       ?cast@?$TypedAttribute@W4Envmap@Imf@@@Imf@@SAAEBV12@AEBVAttribute@2@@Z 00000001801d7420 f i OpenExr:ImfHeader.obj
 0001:001d6450       ?cast@?$TypedAttribute@W4Envmap@Imf@@@Imf@@SAPEBV12@PEBVAttribute@2@@Z 00000001801d7450 f i OpenExr:ImfHeader.obj
 0001:001d6500       ?cast@?$TypedAttribute@W4LineOrder@Imf@@@Imf@@SAAEBV12@AEBVAttribute@2@@Z 00000001801d7500 f i OpenExr:ImfHeader.obj
 0001:001d6530       ?cast@?$TypedAttribute@W4LineOrder@Imf@@@Imf@@SAPEBV12@PEBVAttribute@2@@Z 00000001801d7530 f i OpenExr:ImfHeader.obj
 0001:001d65e0       ?channel@ConstIterator@ChannelList@Imf@@QEBAAEBUChannel@3@XZ 00000001801d75e0 f i OpenExr:ImfHeader.obj
 0001:001d6620       ?clear@?$_Tree@V?$_Tmap_traits@VName@Imf@@PEAVAttribute@2@U?$less@VName@Imf@@@std@@V?$allocator@U?$pair@$$CBVName@Imf@@PEAVAttribute@2@@std@@@5@$0A@@std@@@std@@QEAAXXZ 00000001801d7620 f i OpenExr:ImfHeader.obj
 0001:001d66c0       ?clear@?$_Tree@V?$_Tmap_traits@VName@Imf@@UChannel@2@U?$less@VName@Imf@@@std@@V?$allocator@U?$pair@$$CBVName@Imf@@UChannel@2@@std@@@5@$0A@@std@@@std@@QEAAXXZ 00000001801d76c0 f i OpenExr:ImfHeader.obj
 0001:001d6760       ?clear@?$vector@MV?$allocator@M@std@@@std@@QEAAXXZ 00000001801d7760 f i OpenExr:ImfHeader.obj
 0001:001d67c0       ?clear@?$vector@V?$basic_string@DU?$char_traits@D@std@@V?$allocator@D@2@@std@@V?$allocator@V?$basic_string@DU?$char_traits@D@std@@V?$allocator@D@2@@std@@@2@@std@@QEAAXXZ 00000001801d77c0 f i OpenExr:ImfHeader.obj
 0001:001d6820       ?copy@?$TypedAttribute@H@Imf@@UEBAPEAVAttribute@2@XZ 00000001801d7820 f i OpenExr:ImfHeader.obj
 0001:001d68b0       ?copy@?$TypedAttribute@M@Imf@@UEBAPEAVAttribute@2@XZ 00000001801d78b0 f i OpenExr:ImfHeader.obj
 0001:001d6940       ?copy@?$TypedAttribute@N@Imf@@UEBAPEAVAttribute@2@XZ 00000001801d7940 f i OpenExr:ImfHeader.obj
 0001:001d69d0       ?copy@?$TypedAttribute@UChromaticities@Imf@@@Imf@@UEBAPEAVAttribute@2@XZ 00000001801d79d0 f i OpenExr:ImfHeader.obj
 0001:001d6a60       ?copy@?$TypedAttribute@V?$Box@V?$Vec2@H@Imath@@@Imath@@@Imf@@UEBAPEAVAttribute@2@XZ 00000001801d7a60 f i OpenExr:ImfHeader.obj
 0001:001d6af0       ?copy@?$TypedAttribute@V?$Box@V?$Vec2@M@Imath@@@Imath@@@Imf@@UEBAPEAVAttribute@2@XZ 00000001801d7af0 f i OpenExr:ImfHeader.obj
 0001:001d6b80       ?copy@?$TypedAttribute@V?$Matrix33@M@Imath@@@Imf@@UEBAPEAVAttribute@2@XZ 00000001801d7b80 f i OpenExr:ImfHeader.obj
 0001:001d6c10       ?copy@?$TypedAttribute@V?$Matrix33@N@Imath@@@Imf@@UEBAPEAVAttribute@2@XZ 00000001801d7c10 f i OpenExr:ImfHeader.obj
 0001:001d6ca0       ?copy@?$TypedAttribute@V?$Matrix44@M@Imath@@@Imf@@UEBAPEAVAttribute@2@XZ 00000001801d7ca0 f i OpenExr:ImfHeader.obj
 0001:001d6d30       ?copy@?$TypedAttribute@V?$Matrix44@N@Imath@@@Imf@@UEBAPEAVAttribute@2@XZ 00000001801d7d30 f i OpenExr:ImfHeader.obj
 0001:001d6dc0       ?copy@?$TypedAttribute@V?$Vec2@H@Imath@@@Imf@@UEBAPEAVAttribute@2@XZ 00000001801d7dc0 f i OpenExr:ImfHeader.obj
 0001:001d6e50       ?copy@?$TypedAttribute@V?$Vec2@M@Imath@@@Imf@@UEBAPEAVAttribute@2@XZ 00000001801d7e50 f i OpenExr:ImfHeader.obj
 0001:001d6ee0       ?copy@?$TypedAttribute@V?$Vec2@N@Imath@@@Imf@@UEBAPEAVAttribute@2@XZ 00000001801d7ee0 f i OpenExr:ImfHeader.obj
 0001:001d6f70       ?copy@?$TypedAttribute@V?$Vec3@H@Imath@@@Imf@@UEBAPEAVAttribute@2@XZ 00000001801d7f70 f i OpenExr:ImfHeader.obj
 0001:001d7000       ?copy@?$TypedAttribute@V?$Vec3@M@Imath@@@Imf@@UEBAPEAVAttribute@2@XZ 00000001801d8000 f i OpenExr:ImfHeader.obj
 0001:001d7090       ?copy@?$TypedAttribute@V?$Vec3@N@Imath@@@Imf@@UEBAPEAVAttribute@2@XZ 00000001801d8090 f i OpenExr:ImfHeader.obj
 0001:001d7120       ?copy@?$TypedAttribute@V?$basic_string@DU?$char_traits@D@std@@V?$allocator@D@2@@std@@@Imf@@UEBAPEAVAttribute@2@XZ 00000001801d8120 f i OpenExr:ImfHeader.obj
 0001:001d71b0       ?copy@?$TypedAttribute@V?$vector@MV?$allocator@M@std@@@std@@@Imf@@UEBAPEAVAttribute@2@XZ 00000001801d81b0 f i OpenExr:ImfHeader.obj
 0001:001d7240       ?copy@?$TypedAttribute@V?$vector@V?$basic_string@DU?$char_traits@D@std@@V?$allocator@D@2@@std@@V?$allocator@V?$basic_string@DU?$char_traits@D@std@@V?$allocator@D@2@@std@@@2@@std@@@Imf@@UEBAPEAVAttribute@2@XZ 00000001801d8240 f i OpenExr:ImfHeader.obj
 0001:001d72d0       ?copy@?$TypedAttribute@VChannelList@Imf@@@Imf@@UEBAPEAVAttribute@2@XZ 00000001801d82d0 f i OpenExr:ImfHeader.obj
 0001:001d7360       ?copy@?$TypedAttribute@VKeyCode@Imf@@@Imf@@UEBAPEAVAttribute@2@XZ 00000001801d8360 f i OpenExr:ImfHeader.obj
 0001:001d73f0       ?copy@?$TypedAttribute@VPreviewImage@Imf@@@Imf@@UEBAPEAVAttribute@2@XZ 00000001801d83f0 f i OpenExr:ImfHeader.obj
 0001:001d7480       ?copy@?$TypedAttribute@VRational@Imf@@@Imf@@UEBAPEAVAttribute@2@XZ 00000001801d8480 f i OpenExr:ImfHeader.obj
 0001:001d7510       ?copy@?$TypedAttribute@VTileDescription@Imf@@@Imf@@UEBAPEAVAttribute@2@XZ 00000001801d8510 f i OpenExr:ImfHeader.obj
 0001:001d75a0       ?copy@?$TypedAttribute@VTimeCode@Imf@@@Imf@@UEBAPEAVAttribute@2@XZ 00000001801d85a0 f i OpenExr:ImfHeader.obj
 0001:001d7630       ?copy@?$TypedAttribute@W4Compression@Imf@@@Imf@@UEBAPEAVAttribute@2@XZ 00000001801d8630 f i OpenExr:ImfHeader.obj
 0001:001d76c0       ?copy@?$TypedAttribute@W4DeepImageState@Imf@@@Imf@@UEBAPEAVAttribute@2@XZ 00000001801d86c0 f i OpenExr:ImfHeader.obj
 0001:001d7750       ?copy@?$TypedAttribute@W4Envmap@Imf@@@Imf@@UEBAPEAVAttribute@2@XZ 00000001801d8750 f i OpenExr:ImfHeader.obj
 0001:001d77e0       ?copy@?$TypedAttribute@W4LineOrder@Imf@@@Imf@@UEBAPEAVAttribute@2@XZ 00000001801d87e0 f i OpenExr:ImfHeader.obj
 0001:001d7870       ?copyValueFrom@?$TypedAttribute@H@Imf@@UEAAXAEBVAttribute@2@@Z 00000001801d8870 f i OpenExr:ImfHeader.obj
 0001:001d78b0       ?copyValueFrom@?$TypedAttribute@M@Imf@@UEAAXAEBVAttribute@2@@Z 00000001801d88b0 f i OpenExr:ImfHeader.obj
 0001:001d7900       ?copyValueFrom@?$TypedAttribute@N@Imf@@UEAAXAEBVAttribute@2@@Z 00000001801d8900 f i OpenExr:ImfHeader.obj
 0001:001d7950       ?copyValueFrom@?$TypedAttribute@UChromaticities@Imf@@@Imf@@UEAAXAEBVAttribute@2@@Z 00000001801d8950 f i OpenExr:ImfHeader.obj
 0001:001d79a0       ?copyValueFrom@?$TypedAttribute@V?$Box@V?$Vec2@H@Imath@@@Imath@@@Imf@@UEAAXAEBVAttribute@2@@Z 00000001801d89a0 f i OpenExr:ImfHeader.obj
 0001:001d79f0       ?copyValueFrom@?$TypedAttribute@V?$Box@V?$Vec2@M@Imath@@@Imath@@@Imf@@UEAAXAEBVAttribute@2@@Z 00000001801d89f0 f i OpenExr:ImfHeader.obj
 0001:001d7a40       ?copyValueFrom@?$TypedAttribute@V?$Matrix33@M@Imath@@@Imf@@UEAAXAEBVAttribute@2@@Z 00000001801d8a40 f i OpenExr:ImfHeader.obj
 0001:001d7a90       ?copyValueFrom@?$TypedAttribute@V?$Matrix33@N@Imath@@@Imf@@UEAAXAEBVAttribute@2@@Z 00000001801d8a90 f i OpenExr:ImfHeader.obj
 0001:001d7ae0       ?copyValueFrom@?$TypedAttribute@V?$Matrix44@M@Imath@@@Imf@@UEAAXAEBVAttribute@2@@Z 00000001801d8ae0 f i OpenExr:ImfHeader.obj
 0001:001d7b30       ?copyValueFrom@?$TypedAttribute@V?$Matrix44@N@Imath@@@Imf@@UEAAXAEBVAttribute@2@@Z 00000001801d8b30 f i OpenExr:ImfHeader.obj
 0001:001d7b80       ?copyValueFrom@?$TypedAttribute@V?$Vec2@H@Imath@@@Imf@@UEAAXAEBVAttribute@2@@Z 00000001801d8b80 f i OpenExr:ImfHeader.obj
 0001:001d7bd0       ?copyValueFrom@?$TypedAttribute@V?$Vec2@M@Imath@@@Imf@@UEAAXAEBVAttribute@2@@Z 00000001801d8bd0 f i OpenExr:ImfHeader.obj
 0001:001d7c20       ?copyValueFrom@?$TypedAttribute@V?$Vec2@N@Imath@@@Imf@@UEAAXAEBVAttribute@2@@Z 00000001801d8c20 f i OpenExr:ImfHeader.obj
 0001:001d7c70       ?copyValueFrom@?$TypedAttribute@V?$Vec3@H@Imath@@@Imf@@UEAAXAEBVAttribute@2@@Z 00000001801d8c70 f i OpenExr:ImfHeader.obj
 0001:001d7cc0       ?copyValueFrom@?$TypedAttribute@V?$Vec3@M@Imath@@@Imf@@UEAAXAEBVAttribute@2@@Z 00000001801d8cc0 f i OpenExr:ImfHeader.obj
 0001:001d7d10       ?copyValueFrom@?$TypedAttribute@V?$Vec3@N@Imath@@@Imf@@UEAAXAEBVAttribute@2@@Z 00000001801d8d10 f i OpenExr:ImfHeader.obj
 0001:001d7d60       ?copyValueFrom@?$TypedAttribute@V?$basic_string@DU?$char_traits@D@std@@V?$allocator@D@2@@std@@@Imf@@UEAAXAEBVAttribute@2@@Z 00000001801d8d60 f i OpenExr:ImfHeader.obj
 0001:001d7db0       ?copyValueFrom@?$TypedAttribute@V?$vector@MV?$allocator@M@std@@@std@@@Imf@@UEAAXAEBVAttribute@2@@Z 00000001801d8db0 f i OpenExr:ImfHeader.obj
 0001:001d7e00       ?copyValueFrom@?$TypedAttribute@V?$vector@V?$basic_string@DU?$char_traits@D@std@@V?$allocator@D@2@@std@@V?$allocator@V?$basic_string@DU?$char_traits@D@std@@V?$allocator@D@2@@std@@@2@@std@@@Imf@@UEAAXAEBVAttribute@2@@Z 00000001801d8e00 f i OpenExr:ImfHeader.obj
 0001:001d7e50       ?copyValueFrom@?$TypedAttribute@VChannelList@Imf@@@Imf@@UEAAXAEBVAttribute@2@@Z 00000001801d8e50 f i OpenExr:ImfHeader.obj
 0001:001d7ea0       ?copyValueFrom@?$TypedAttribute@VKeyCode@Imf@@@Imf@@UEAAXAEBVAttribute@2@@Z 00000001801d8ea0 f i OpenExr:ImfHeader.obj
 0001:001d7ef0       ?copyValueFrom@?$TypedAttribute@VPreviewImage@Imf@@@Imf@@UEAAXAEBVAttribute@2@@Z 00000001801d8ef0 f i OpenExr:ImfHeader.obj
 0001:001d7f40       ?copyValueFrom@?$TypedAttribute@VRational@Imf@@@Imf@@UEAAXAEBVAttribute@2@@Z 00000001801d8f40 f i OpenExr:ImfHeader.obj
 0001:001d7f80       ?copyValueFrom@?$TypedAttribute@VTileDescription@Imf@@@Imf@@UEAAXAEBVAttribute@2@@Z 00000001801d8f80 f i OpenExr:ImfHeader.obj
 0001:001d7fd0       ?copyValueFrom@?$TypedAttribute@VTimeCode@Imf@@@Imf@@UEAAXAEBVAttribute@2@@Z 00000001801d8fd0 f i OpenExr:ImfHeader.obj
 0001:001d8020       ?copyValueFrom@?$TypedAttribute@W4Compression@Imf@@@Imf@@UEAAXAEBVAttribute@2@@Z 00000001801d9020 f i OpenExr:ImfHeader.obj
 0001:001d8060       ?copyValueFrom@?$TypedAttribute@W4DeepImageState@Imf@@@Imf@@UEAAXAEBVAttribute@2@@Z 00000001801d9060 f i OpenExr:ImfHeader.obj
 0001:001d80a0       ?copyValueFrom@?$TypedAttribute@W4Envmap@Imf@@@Imf@@UEAAXAEBVAttribute@2@@Z 00000001801d90a0 f i OpenExr:ImfHeader.obj
 0001:001d80e0       ?copyValueFrom@?$TypedAttribute@W4LineOrder@Imf@@@Imf@@UEAAXAEBVAttribute@2@@Z 00000001801d90e0 f i OpenExr:ImfHeader.obj
 0001:001d8120       ?data@?$basic_string@DU?$char_traits@D@std@@V?$allocator@D@2@@std@@QEBAPEBDXZ 00000001801d9120 f i OpenExr:ImfHeader.obj
 0001:001d8150       ?deallocate@?$_Wrap_alloc@V?$allocator@M@std@@@std@@QEAAXPEAM_K@Z 00000001801d9150 f i OpenExr:ImfHeader.obj
 0001:001d81a0       ?deallocate@?$_Wrap_alloc@V?$allocator@U?$_Tree_node@U?$pair@$$CBVName@Imf@@PEAVAttribute@2@@std@@PEAX@std@@@std@@@std@@QEAAXPEAU?$_Tree_node@U?$pair@$$CBVName@Imf@@PEAVAttribute@2@@std@@PEAX@2@_K@Z 00000001801d91a0 f i OpenExr:ImfHeader.obj
 0001:001d81f0       ?deallocate@?$_Wrap_alloc@V?$allocator@U?$_Tree_node@U?$pair@$$CBVName@Imf@@UChannel@2@@std@@PEAX@std@@@std@@@std@@QEAAXPEAU?$_Tree_node@U?$pair@$$CBVName@Imf@@UChannel@2@@std@@PEAX@2@_K@Z 00000001801d91f0 f i OpenExr:ImfHeader.obj
 0001:001d8240       ?deallocate@?$_Wrap_alloc@V?$allocator@V?$basic_string@DU?$char_traits@D@std@@V?$allocator@D@2@@std@@@std@@@std@@QEAAXPEAV?$basic_string@DU?$char_traits@D@std@@V?$allocator@D@2@@2@_K@Z 00000001801d9240 f i OpenExr:ImfHeader.obj
 0001:001d8290       ?deallocate@?$allocator@M@std@@QEAAXPEAM_K@Z 00000001801d9290 f i OpenExr:ImfHeader.obj
 0001:001d82d0       ?deallocate@?$allocator@U?$_Tree_node@U?$pair@$$CBVName@Imf@@PEAVAttribute@2@@std@@PEAX@std@@@std@@QEAAXPEAU?$_Tree_node@U?$pair@$$CBVName@Imf@@PEAVAttribute@2@@std@@PEAX@2@_K@Z 00000001801d92d0 f i OpenExr:ImfHeader.obj
 0001:001d8310       ?deallocate@?$allocator@U?$_Tree_node@U?$pair@$$CBVName@Imf@@UChannel@2@@std@@PEAX@std@@@std@@QEAAXPEAU?$_Tree_node@U?$pair@$$CBVName@Imf@@UChannel@2@@std@@PEAX@2@_K@Z 00000001801d9310 f i OpenExr:ImfHeader.obj
 0001:001d8350       ?deallocate@?$allocator@V?$basic_string@DU?$char_traits@D@std@@V?$allocator@D@2@@std@@@std@@QEAAXPEAV?$basic_string@DU?$char_traits@D@std@@V?$allocator@D@2@@2@_K@Z 00000001801d9350 f i OpenExr:ImfHeader.obj
 0001:001d8390       ?empty@?$vector@MV?$allocator@M@std@@@std@@QEBA_NXZ 00000001801d9390 f i OpenExr:ImfHeader.obj
 0001:001d83e0       ?empty@?$vector@V?$basic_string@DU?$char_traits@D@std@@V?$allocator@D@2@@std@@V?$allocator@V?$basic_string@DU?$char_traits@D@std@@V?$allocator@D@2@@std@@@2@@std@@QEBA_NXZ 00000001801d93e0 f i OpenExr:ImfHeader.obj
 0001:001d8430       ?end@?$_Tree@V?$_Tmap_traits@VName@Imf@@PEAVAttribute@2@U?$less@VName@Imf@@@std@@V?$allocator@U?$pair@$$CBVName@Imf@@PEAVAttribute@2@@std@@@5@$0A@@std@@@std@@QEAA?AV?$_Tree_iterator@V?$_Tree_val@U?$_Tree_simple_types@U?$pair@$$CBVName@Imf@@PEAVAttribute@2@@std@@@std@@@std@@@2@XZ 00000001801d9430 f i OpenExr:ImfHeader.obj
 0001:001d8480       ?end@?$_Tree@V?$_Tmap_traits@VName@Imf@@PEAVAttribute@2@U?$less@VName@Imf@@@std@@V?$allocator@U?$pair@$$CBVName@Imf@@PEAVAttribute@2@@std@@@5@$0A@@std@@@std@@QEBA?AV?$_Tree_const_iterator@V?$_Tree_val@U?$_Tree_simple_types@U?$pair@$$CBVName@Imf@@PEAVAttribute@2@@std@@@std@@@std@@@2@XZ 00000001801d9480 f i OpenExr:ImfHeader.obj
 0001:001d84d0       ?end@?$_Tree@V?$_Tmap_traits@VName@Imf@@UChannel@2@U?$less@VName@Imf@@@std@@V?$allocator@U?$pair@$$CBVName@Imf@@UChannel@2@@std@@@5@$0A@@std@@@std@@QEAA?AV?$_Tree_iterator@V?$_Tree_val@U?$_Tree_simple_types@U?$pair@$$CBVName@Imf@@UChannel@2@@std@@@std@@@std@@@2@XZ 00000001801d94d0 f i OpenExr:ImfHeader.obj
 0001:001d8520       ?eq@?$char_traits@D@std@@SA_NAEBD0@Z 00000001801d9520 f i OpenExr:ImfHeader.obj
 0001:001d8580       ?erase@?$_Tree@V?$_Tmap_traits@VName@Imf@@PEAVAttribute@2@U?$less@VName@Imf@@@std@@V?$allocator@U?$pair@$$CBVName@Imf@@PEAVAttribute@2@@std@@@5@$0A@@std@@@std@@QEAA?AV?$_Tree_iterator@V?$_Tree_val@U?$_Tree_simple_types@U?$pair@$$CBVName@Imf@@PEAVAttribute@2@@std@@@std@@@std@@@2@V?$_Tree_const_iterator@V?$_Tree_val@U?$_Tree_simple_types@U?$pair@$$CBVName@Imf@@PEAVAttribute@2@@std@@@std@@@std@@@2@0@Z 00000001801d9580 f i OpenExr:ImfHeader.obj
 0001:001d8830       ?erase@?$_Tree@V?$_Tmap_traits@VName@Imf@@PEAVAttribute@2@U?$less@VName@Imf@@@std@@V?$allocator@U?$pair@$$CBVName@Imf@@PEAVAttribute@2@@std@@@5@$0A@@std@@@std@@QEAA?AV?$_Tree_iterator@V?$_Tree_val@U?$_Tree_simple_types@U?$pair@$$CBVName@Imf@@PEAVAttribute@2@@std@@@std@@@std@@@2@V?$_Tree_const_iterator@V?$_Tree_val@U?$_Tree_simple_types@U?$pair@$$CBVName@Imf@@PEAVAttribute@2@@std@@@std@@@std@@@2@@Z 00000001801d9830 f i OpenExr:ImfHeader.obj
 0001:001d9120       ?erase@?$_Tree@V?$_Tmap_traits@VName@Imf@@UChannel@2@U?$less@VName@Imf@@@std@@V?$allocator@U?$pair@$$CBVName@Imf@@UChannel@2@@std@@@5@$0A@@std@@@std@@QEAA?AV?$_Tree_iterator@V?$_Tree_val@U?$_Tree_simple_types@U?$pair@$$CBVName@Imf@@UChannel@2@@std@@@std@@@std@@@2@V?$_Tree_const_iterator@V?$_Tree_val@U?$_Tree_simple_types@U?$pair@$$CBVName@Imf@@UChannel@2@@std@@@std@@@std@@@2@0@Z 00000001801da120 f i OpenExr:ImfHeader.obj
 0001:001d93d0       ?erase@?$_Tree@V?$_Tmap_traits@VName@Imf@@UChannel@2@U?$less@VName@Imf@@@std@@V?$allocator@U?$pair@$$CBVName@Imf@@UChannel@2@@std@@@5@$0A@@std@@@std@@QEAA?AV?$_Tree_iterator@V?$_Tree_val@U?$_Tree_simple_types@U?$pair@$$CBVName@Imf@@UChannel@2@@std@@@std@@@std@@@2@V?$_Tree_const_iterator@V?$_Tree_val@U?$_Tree_simple_types@U?$pair@$$CBVName@Imf@@UChannel@2@@std@@@std@@@std@@@2@@Z 00000001801da3d0 f i OpenExr:ImfHeader.obj
 0001:001d9cc0       ?find@?$_Tree@V?$_Tmap_traits@VName@Imf@@PEAVAttribute@2@U?$less@VName@Imf@@@std@@V?$allocator@U?$pair@$$CBVName@Imf@@PEAVAttribute@2@@std@@@5@$0A@@std@@@std@@QEAA?AV?$_Tree_iterator@V?$_Tree_val@U?$_Tree_simple_types@U?$pair@$$CBVName@Imf@@PEAVAttribute@2@@std@@@std@@@std@@@2@AEBVName@Imf@@@Z 00000001801dacc0 f i OpenExr:ImfHeader.obj
 0001:001d9f50       ?find@?$_Tree@V?$_Tmap_traits@VName@Imf@@PEAVAttribute@2@U?$less@VName@Imf@@@std@@V?$allocator@U?$pair@$$CBVName@Imf@@PEAVAttribute@2@@std@@@5@$0A@@std@@@std@@QEBA?AV?$_Tree_const_iterator@V?$_Tree_val@U?$_Tree_simple_types@U?$pair@$$CBVName@Imf@@PEAVAttribute@2@@std@@@std@@@std@@@2@AEBVName@Imf@@@Z 00000001801daf50 f i OpenExr:ImfHeader.obj
 0001:001da1e0       ?length@?$basic_string@DU?$char_traits@D@std@@V?$allocator@D@2@@std@@QEBA_KXZ 00000001801db1e0 f i OpenExr:ImfHeader.obj
 0001:001da200       ?lower_bound@?$_Tree@V?$_Tmap_traits@VName@Imf@@PEAVAttribute@2@U?$less@VName@Imf@@@std@@V?$allocator@U?$pair@$$CBVName@Imf@@PEAVAttribute@2@@std@@@5@$0A@@std@@@std@@QEAA?AV?$_Tree_iterator@V?$_Tree_val@U?$_Tree_simple_types@U?$pair@$$CBVName@Imf@@PEAVAttribute@2@@std@@@std@@@std@@@2@AEBVName@Imf@@@Z 00000001801db200 f i OpenExr:ImfHeader.obj
 0001:001da270       ?lower_bound@?$_Tree@V?$_Tmap_traits@VName@Imf@@PEAVAttribute@2@U?$less@VName@Imf@@@std@@V?$allocator@U?$pair@$$CBVName@Imf@@PEAVAttribute@2@@std@@@5@$0A@@std@@@std@@QEBA?AV?$_Tree_const_iterator@V?$_Tree_val@U?$_Tree_simple_types@U?$pair@$$CBVName@Imf@@PEAVAttribute@2@@std@@@std@@@std@@@2@AEBVName@Imf@@@Z 00000001801db270 f i OpenExr:ImfHeader.obj
 0001:001da2e0       ?makeEmpty@?$Box@V?$Vec2@M@Imath@@@Imath@@QEAAXXZ 00000001801db2e0 f i OpenExr:ImfHeader.obj
 0001:001da350       ?makeNewAttribute@?$TypedAttribute@H@Imf@@SAPEAVAttribute@2@XZ 00000001801db350 f i OpenExr:ImfHeader.obj
 0001:001da3c0       ?makeNewAttribute@?$TypedAttribute@M@Imf@@SAPEAVAttribute@2@XZ 00000001801db3c0 f i OpenExr:ImfHeader.obj
 0001:001da430       ?makeNewAttribute@?$TypedAttribute@N@Imf@@SAPEAVAttribute@2@XZ 00000001801db430 f i OpenExr:ImfHeader.obj
 0001:001da4a0       ?makeNewAttribute@?$TypedAttribute@UChromaticities@Imf@@@Imf@@SAPEAVAttribute@2@XZ 00000001801db4a0 f i OpenExr:ImfHeader.obj
 0001:001da510       ?makeNewAttribute@?$TypedAttribute@V?$Box@V?$Vec2@H@Imath@@@Imath@@@Imf@@SAPEAVAttribute@2@XZ 00000001801db510 f i OpenExr:ImfHeader.obj
 0001:001da580       ?makeNewAttribute@?$TypedAttribute@V?$Box@V?$Vec2@M@Imath@@@Imath@@@Imf@@SAPEAVAttribute@2@XZ 00000001801db580 f i OpenExr:ImfHeader.obj
 0001:001da5f0       ?makeNewAttribute@?$TypedAttribute@V?$Matrix33@M@Imath@@@Imf@@SAPEAVAttribute@2@XZ 00000001801db5f0 f i OpenExr:ImfHeader.obj
 0001:001da660       ?makeNewAttribute@?$TypedAttribute@V?$Matrix33@N@Imath@@@Imf@@SAPEAVAttribute@2@XZ 00000001801db660 f i OpenExr:ImfHeader.obj
 0001:001da6d0       ?makeNewAttribute@?$TypedAttribute@V?$Matrix44@M@Imath@@@Imf@@SAPEAVAttribute@2@XZ 00000001801db6d0 f i OpenExr:ImfHeader.obj
 0001:001da740       ?makeNewAttribute@?$TypedAttribute@V?$Matrix44@N@Imath@@@Imf@@SAPEAVAttribute@2@XZ 00000001801db740 f i OpenExr:ImfHeader.obj
 0001:001da7b0       ?makeNewAttribute@?$TypedAttribute@V?$Vec2@H@Imath@@@Imf@@SAPEAVAttribute@2@XZ 00000001801db7b0 f i OpenExr:ImfHeader.obj
 0001:001da820       ?makeNewAttribute@?$TypedAttribute@V?$Vec2@M@Imath@@@Imf@@SAPEAVAttribute@2@XZ 00000001801db820 f i OpenExr:ImfHeader.obj
 0001:001da890       ?makeNewAttribute@?$TypedAttribute@V?$Vec2@N@Imath@@@Imf@@SAPEAVAttribute@2@XZ 00000001801db890 f i OpenExr:ImfHeader.obj
 0001:001da900       ?makeNewAttribute@?$TypedAttribute@V?$Vec3@H@Imath@@@Imf@@SAPEAVAttribute@2@XZ 00000001801db900 f i OpenExr:ImfHeader.obj
 0001:001da970       ?makeNewAttribute@?$TypedAttribute@V?$Vec3@M@Imath@@@Imf@@SAPEAVAttribute@2@XZ 00000001801db970 f i OpenExr:ImfHeader.obj
 0001:001da9e0       ?makeNewAttribute@?$TypedAttribute@V?$Vec3@N@Imath@@@Imf@@SAPEAVAttribute@2@XZ 00000001801db9e0 f i OpenExr:ImfHeader.obj
 0001:001daa50       ?makeNewAttribute@?$TypedAttribute@V?$basic_string@DU?$char_traits@D@std@@V?$allocator@D@2@@std@@@Imf@@SAPEAVAttribute@2@XZ 00000001801dba50 f i OpenExr:ImfHeader.obj
 0001:001daac0       ?makeNewAttribute@?$TypedAttribute@V?$vector@MV?$allocator@M@std@@@std@@@Imf@@SAPEAVAttribute@2@XZ 00000001801dbac0 f i OpenExr:ImfHeader.obj
 0001:001dab30       ?makeNewAttribute@?$TypedAttribute@V?$vector@V?$basic_string@DU?$char_traits@D@std@@V?$allocator@D@2@@std@@V?$allocator@V?$basic_string@DU?$char_traits@D@std@@V?$allocator@D@2@@std@@@2@@std@@@Imf@@SAPEAVAttribute@2@XZ 00000001801dbb30 f i OpenExr:ImfHeader.obj
 0001:001daba0       ?makeNewAttribute@?$TypedAttribute@VChannelList@Imf@@@Imf@@SAPEAVAttribute@2@XZ 00000001801dbba0 f i OpenExr:ImfHeader.obj
 0001:001dac10       ?makeNewAttribute@?$TypedAttribute@VKeyCode@Imf@@@Imf@@SAPEAVAttribute@2@XZ 00000001801dbc10 f i OpenExr:ImfHeader.obj
 0001:001dac80       ?makeNewAttribute@?$TypedAttribute@VPreviewImage@Imf@@@Imf@@SAPEAVAttribute@2@XZ 00000001801dbc80 f i OpenExr:ImfHeader.obj
 0001:001dacf0       ?makeNewAttribute@?$TypedAttribute@VRational@Imf@@@Imf@@SAPEAVAttribute@2@XZ 00000001801dbcf0 f i OpenExr:ImfHeader.obj
 0001:001dad60       ?makeNewAttribute@?$TypedAttribute@VTileDescription@Imf@@@Imf@@SAPEAVAttribute@2@XZ 00000001801dbd60 f i OpenExr:ImfHeader.obj
 0001:001dadd0       ?makeNewAttribute@?$TypedAttribute@VTimeCode@Imf@@@Imf@@SAPEAVAttribute@2@XZ 00000001801dbdd0 f i OpenExr:ImfHeader.obj
 0001:001dae40       ?makeNewAttribute@?$TypedAttribute@W4Compression@Imf@@@Imf@@SAPEAVAttribute@2@XZ 00000001801dbe40 f i OpenExr:ImfHeader.obj
 0001:001daeb0       ?makeNewAttribute@?$TypedAttribute@W4DeepImageState@Imf@@@Imf@@SAPEAVAttribute@2@XZ 00000001801dbeb0 f i OpenExr:ImfHeader.obj
 0001:001daf20       ?makeNewAttribute@?$TypedAttribute@W4Envmap@Imf@@@Imf@@SAPEAVAttribute@2@XZ 00000001801dbf20 f i OpenExr:ImfHeader.obj
 0001:001daf90       ?makeNewAttribute@?$TypedAttribute@W4LineOrder@Imf@@@Imf@@SAPEAVAttribute@2@XZ 00000001801dbf90 f i OpenExr:ImfHeader.obj
 0001:001db000       ?max@?$limits@M@Imath@@SAMXZ 00000001801dc000 f i OpenExr:ImfHeader.obj
 0001:001db030       ?max_size@?$_Tree@V?$_Tmap_traits@VName@Imf@@PEAVAttribute@2@U?$less@VName@Imf@@@std@@V?$allocator@U?$pair@$$CBVName@Imf@@PEAVAttribute@2@@std@@@5@$0A@@std@@@std@@QEBA_KXZ 00000001801dc030 f i OpenExr:ImfHeader.obj
 0001:001db070       ?max_size@?$_Wrap_alloc@V?$allocator@M@std@@@std@@QEBA_KXZ 00000001801dc070 f i OpenExr:ImfHeader.obj
 0001:001db0a0       ?max_size@?$_Wrap_alloc@V?$allocator@U?$_Tree_node@U?$pair@$$CBVName@Imf@@PEAVAttribute@2@@std@@PEAX@std@@@std@@@std@@QEBA_KXZ 00000001801dc0a0 f i OpenExr:ImfHeader.obj
 0001:001db0d0       ?max_size@?$_Wrap_alloc@V?$allocator@V?$basic_string@DU?$char_traits@D@std@@V?$allocator@D@2@@std@@@std@@@std@@QEBA_KXZ 00000001801dc0d0 f i OpenExr:ImfHeader.obj
 0001:001db100       ?max_size@?$allocator@M@std@@QEBA_KXZ 00000001801dc100 f i OpenExr:ImfHeader.obj
 0001:001db120       ?max_size@?$allocator@U?$_Tree_node@U?$pair@$$CBVName@Imf@@PEAVAttribute@2@@std@@PEAX@std@@@std@@QEBA_KXZ 00000001801dc120 f i OpenExr:ImfHeader.obj
 0001:001db140       ?max_size@?$allocator@V?$basic_string@DU?$char_traits@D@std@@V?$allocator@D@2@@std@@@std@@QEBA_KXZ 00000001801dc140 f i OpenExr:ImfHeader.obj
 0001:001db160       ?max_size@?$allocator_traits@V?$allocator@M@std@@@std@@SA_KAEBV?$allocator@M@2@@Z 00000001801dc160 f i OpenExr:ImfHeader.obj
 0001:001db190       ?max_size@?$allocator_traits@V?$allocator@U?$_Tree_node@U?$pair@$$CBVName@Imf@@PEAVAttribute@2@@std@@PEAX@std@@@std@@@std@@SA_KAEBV?$allocator@U?$_Tree_node@U?$pair@$$CBVName@Imf@@PEAVAttribute@2@@std@@PEAX@std@@@2@@Z 00000001801dc190 f i OpenExr:ImfHeader.obj
 0001:001db1c0       ?max_size@?$allocator_traits@V?$allocator@V?$basic_string@DU?$char_traits@D@std@@V?$allocator@D@2@@std@@@std@@@std@@SA_KAEBV?$allocator@V?$basic_string@DU?$char_traits@D@std@@V?$allocator@D@2@@std@@@2@@Z 00000001801dc1c0 f i OpenExr:ImfHeader.obj
 0001:001db1f0       ?max_size@?$vector@MV?$allocator@M@std@@@std@@QEBA_KXZ 00000001801dc1f0 f i OpenExr:ImfHeader.obj
 0001:001db230       ?max_size@?$vector@V?$basic_string@DU?$char_traits@D@std@@V?$allocator@D@2@@std@@V?$allocator@V?$basic_string@DU?$char_traits@D@std@@V?$allocator@D@2@@std@@@2@@std@@QEBA_KXZ 00000001801dc230 f i OpenExr:ImfHeader.obj
 0001:001db270       ?min@?$limits@M@Imath@@SAMXZ 00000001801dc270 f i OpenExr:ImfHeader.obj
 0001:001db2a0       ?name@ConstIterator@ChannelList@Imf@@QEBAPEBDXZ 00000001801dc2a0 f i OpenExr:ImfHeader.obj
 0001:001db2e0       ?name@ConstIterator@Header@Imf@@QEBAPEBDXZ 00000001801dc2e0 f i OpenExr:ImfHeader.obj
 0001:001db320       ?not_eof@?$char_traits@D@std@@SAHAEBH@Z 00000001801dc320 f i OpenExr:ImfHeader.obj
 0001:001db390       ?overflow@?$basic_stringbuf@DU?$char_traits@D@std@@V?$allocator@D@2@@std@@MEAAHH@Z 00000001801dc390 f i OpenExr:ImfHeader.obj
 0001:001db8a0       ?pbackfail@?$basic_stringbuf@DU?$char_traits@D@std@@V?$allocator@D@2@@std@@MEAAHH@Z 00000001801dc8a0 f i OpenExr:ImfHeader.obj
 0001:001db9d0       ?pointer_to@?$pointer_traits@PEAU?$pair@$$CBVName@Imf@@PEAVAttribute@2@@std@@@std@@SAPEAU?$pair@$$CBVName@Imf@@PEAVAttribute@2@@2@AEAU32@@Z 00000001801dc9d0 f i OpenExr:ImfHeader.obj
 0001:001dba00       ?pointer_to@?$pointer_traits@PEBU?$pair@$$CBVName@Imf@@PEAVAttribute@2@@std@@@std@@SAPEBU?$pair@$$CBVName@Imf@@PEAVAttribute@2@@2@AEBU32@@Z 00000001801dca00 f i OpenExr:ImfHeader.obj
 0001:001dba30       ?pointer_to@?$pointer_traits@PEBU?$pair@$$CBVName@Imf@@UChannel@2@@std@@@std@@SAPEBU?$pair@$$CBVName@Imf@@UChannel@2@@2@AEBU32@@Z 00000001801dca30 f i OpenExr:ImfHeader.obj
 0001:001dba60       ?readChars@StreamIO@Imf@@SA_NAEAVIStream@2@QEADH@Z 00000001801dca60 f i OpenExr:ImfHeader.obj
 0001:001dbab0       ?readValueFrom@?$TypedAttribute@H@Imf@@UEAAXAEAVIStream@2@HH@Z 00000001801dcab0 f i OpenExr:ImfHeader.obj
 0001:001dbb00       ?readValueFrom@?$TypedAttribute@M@Imf@@UEAAXAEAVIStream@2@HH@Z 00000001801dcb00 f i OpenExr:ImfHeader.obj
 0001:001dbb50       ?readValueFrom@?$TypedAttribute@N@Imf@@UEAAXAEAVIStream@2@HH@Z 00000001801dcb50 f i OpenExr:ImfHeader.obj
 0001:001dbba0       ?registerAttributeType@?$TypedAttribute@H@Imf@@SAXXZ 00000001801dcba0 f i OpenExr:ImfHeader.obj
 0001:001dbbd0       ?registerAttributeType@?$TypedAttribute@M@Imf@@SAXXZ 00000001801dcbd0 f i OpenExr:ImfHeader.obj
 0001:001dbc00       ?registerAttributeType@?$TypedAttribute@N@Imf@@SAXXZ 00000001801dcc00 f i OpenExr:ImfHeader.obj
 0001:001dbc30       ?registerAttributeType@?$TypedAttribute@UChromaticities@Imf@@@Imf@@SAXXZ 00000001801dcc30 f i OpenExr:ImfHeader.obj
 0001:001dbc60       ?registerAttributeType@?$TypedAttribute@V?$Box@V?$Vec2@H@Imath@@@Imath@@@Imf@@SAXXZ 00000001801dcc60 f i OpenExr:ImfHeader.obj
 0001:001dbc90       ?registerAttributeType@?$TypedAttribute@V?$Box@V?$Vec2@M@Imath@@@Imath@@@Imf@@SAXXZ 00000001801dcc90 f i OpenExr:ImfHeader.obj
 0001:001dbcc0       ?registerAttributeType@?$TypedAttribute@V?$Matrix33@M@Imath@@@Imf@@SAXXZ 00000001801dccc0 f i OpenExr:ImfHeader.obj
 0001:001dbcf0       ?registerAttributeType@?$TypedAttribute@V?$Matrix33@N@Imath@@@Imf@@SAXXZ 00000001801dccf0 f i OpenExr:ImfHeader.obj
 0001:001dbd20       ?registerAttributeType@?$TypedAttribute@V?$Matrix44@M@Imath@@@Imf@@SAXXZ 00000001801dcd20 f i OpenExr:ImfHeader.obj
 0001:001dbd50       ?registerAttributeType@?$TypedAttribute@V?$Matrix44@N@Imath@@@Imf@@SAXXZ 00000001801dcd50 f i OpenExr:ImfHeader.obj
 0001:001dbd80       ?registerAttributeType@?$TypedAttribute@V?$Vec2@H@Imath@@@Imf@@SAXXZ 00000001801dcd80 f i OpenExr:ImfHeader.obj
 0001:001dbdb0       ?registerAttributeType@?$TypedAttribute@V?$Vec2@M@Imath@@@Imf@@SAXXZ 00000001801dcdb0 f i OpenExr:ImfHeader.obj
 0001:001dbde0       ?registerAttributeType@?$TypedAttribute@V?$Vec2@N@Imath@@@Imf@@SAXXZ 00000001801dcde0 f i OpenExr:ImfHeader.obj
 0001:001dbe10       ?registerAttributeType@?$TypedAttribute@V?$Vec3@H@Imath@@@Imf@@SAXXZ 00000001801dce10 f i OpenExr:ImfHeader.obj
 0001:001dbe40       ?registerAttributeType@?$TypedAttribute@V?$Vec3@M@Imath@@@Imf@@SAXXZ 00000001801dce40 f i OpenExr:ImfHeader.obj
 0001:001dbe70       ?registerAttributeType@?$TypedAttribute@V?$Vec3@N@Imath@@@Imf@@SAXXZ 00000001801dce70 f i OpenExr:ImfHeader.obj
 0001:001dbea0       ?registerAttributeType@?$TypedAttribute@V?$basic_string@DU?$char_traits@D@std@@V?$allocator@D@2@@std@@@Imf@@SAXXZ 00000001801dcea0 f i OpenExr:ImfHeader.obj
 0001:001dbed0       ?registerAttributeType@?$TypedAttribute@V?$vector@MV?$allocator@M@std@@@std@@@Imf@@SAXXZ 00000001801dced0 f i OpenExr:ImfHeader.obj
 0001:001dbf00       ?registerAttributeType@?$TypedAttribute@V?$vector@V?$basic_string@DU?$char_traits@D@std@@V?$allocator@D@2@@std@@V?$allocator@V?$basic_string@DU?$char_traits@D@std@@V?$allocator@D@2@@std@@@2@@std@@@Imf@@SAXXZ 00000001801dcf00 f i OpenExr:ImfHeader.obj
 0001:001dbf30       ?registerAttributeType@?$TypedAttribute@VChannelList@Imf@@@Imf@@SAXXZ 00000001801dcf30 f i OpenExr:ImfHeader.obj
 0001:001dbf60       ?registerAttributeType@?$TypedAttribute@VKeyCode@Imf@@@Imf@@SAXXZ 00000001801dcf60 f i OpenExr:ImfHeader.obj
 0001:001dbf90       ?registerAttributeType@?$TypedAttribute@VPreviewImage@Imf@@@Imf@@SAXXZ 00000001801dcf90 f i OpenExr:ImfHeader.obj
 0001:001dbfc0       ?registerAttributeType@?$TypedAttribute@VRational@Imf@@@Imf@@SAXXZ 00000001801dcfc0 f i OpenExr:ImfHeader.obj
 0001:001dbff0       ?registerAttributeType@?$TypedAttribute@VTileDescription@Imf@@@Imf@@SAXXZ 00000001801dcff0 f i OpenExr:ImfHeader.obj
 0001:001dc020       ?registerAttributeType@?$TypedAttribute@VTimeCode@Imf@@@Imf@@SAXXZ 00000001801dd020 f i OpenExr:ImfHeader.obj
 0001:001dc050       ?registerAttributeType@?$TypedAttribute@W4Compression@Imf@@@Imf@@SAXXZ 00000001801dd050 f i OpenExr:ImfHeader.obj
 0001:001dc080       ?registerAttributeType@?$TypedAttribute@W4DeepImageState@Imf@@@Imf@@SAXXZ 00000001801dd080 f i OpenExr:ImfHeader.obj
 0001:001dc0b0       ?registerAttributeType@?$TypedAttribute@W4Envmap@Imf@@@Imf@@SAXXZ 00000001801dd0b0 f i OpenExr:ImfHeader.obj
 0001:001dc0e0       ?registerAttributeType@?$TypedAttribute@W4LineOrder@Imf@@@Imf@@SAXXZ 00000001801dd0e0 f i OpenExr:ImfHeader.obj
 0001:001dc110       ?reserve@?$basic_string@DU?$char_traits@D@std@@V?$allocator@D@2@@std@@QEAAX_K@Z 00000001801dd110 f i OpenExr:ImfHeader.obj
 0001:001dc190       ?seekoff@?$basic_stringbuf@DU?$char_traits@D@std@@V?$allocator@D@2@@std@@MEAA?AV?$fpos@H@2@_JHH@Z 00000001801dd190 f i OpenExr:ImfHeader.obj
 0001:001dc4f0       ?seekpos@?$basic_stringbuf@DU?$char_traits@D@std@@V?$allocator@D@2@@std@@MEAA?AV?$fpos@H@2@V32@H@Z 00000001801dd4f0 f i OpenExr:ImfHeader.obj
 0001:001dc740       ?size@?$_Tree@V?$_Tmap_traits@VName@Imf@@PEAVAttribute@2@U?$less@VName@Imf@@@std@@V?$allocator@U?$pair@$$CBVName@Imf@@PEAVAttribute@2@@std@@@5@$0A@@std@@@std@@QEBA_KXZ 00000001801dd740 f i OpenExr:ImfHeader.obj
 0001:001dc760       ?size@?$_Tree@V?$_Tmap_traits@VName@Imf@@UChannel@2@U?$less@VName@Imf@@@std@@V?$allocator@U?$pair@$$CBVName@Imf@@UChannel@2@@std@@@5@$0A@@std@@@std@@QEBA_KXZ 00000001801dd760 f i OpenExr:ImfHeader.obj
 0001:001dc780       ?size@?$vector@MV?$allocator@M@std@@@std@@QEBA_KXZ 00000001801dd780 f i OpenExr:ImfHeader.obj
 0001:001dc7b0       ?size@?$vector@V?$basic_string@DU?$char_traits@D@std@@V?$allocator@D@2@@std@@V?$allocator@V?$basic_string@DU?$char_traits@D@std@@V?$allocator@D@2@@std@@@2@@std@@QEBA_KXZ 00000001801dd7b0 f i OpenExr:ImfHeader.obj
 0001:001dc7e0       ?str@?$basic_ostringstream@DU?$char_traits@D@std@@V?$allocator@D@2@@std@@QEBA?AV?$basic_string@DU?$char_traits@D@std@@V?$allocator@D@2@@2@XZ 00000001801dd7e0 f i OpenExr:ImfHeader.obj
 0001:001dc840       ?str@?$basic_stringbuf@DU?$char_traits@D@std@@V?$allocator@D@2@@std@@QEBA?AV?$basic_string@DU?$char_traits@D@std@@V?$allocator@D@2@@2@XZ 00000001801dd840 f i OpenExr:ImfHeader.obj
 0001:001dcac0       ?str@StdOSStream@Imf@@QEBA?AV?$basic_string@DU?$char_traits@D@std@@V?$allocator@D@2@@std@@XZ 00000001801ddac0 f i OpenExr:ImfHeader.obj
 0001:001dcb20       ?to_char_type@?$char_traits@D@std@@SADAEBH@Z 00000001801ddb20 f i OpenExr:ImfHeader.obj
 0001:001dcb30       ?to_int_type@?$char_traits@D@std@@SAHAEBD@Z 00000001801ddb30 f i OpenExr:ImfHeader.obj
 0001:001dcb40       ?typeName@?$TypedAttribute@H@Imf@@UEBAPEBDXZ 00000001801ddb40 f i OpenExr:ImfHeader.obj
 0001:001dcb70       ?typeName@?$TypedAttribute@M@Imf@@UEBAPEBDXZ 00000001801ddb70 f i OpenExr:ImfHeader.obj
 0001:001dcba0       ?typeName@?$TypedAttribute@N@Imf@@UEBAPEBDXZ 00000001801ddba0 f i OpenExr:ImfHeader.obj
 0001:001dcbd0       ?typeName@?$TypedAttribute@UChromaticities@Imf@@@Imf@@UEBAPEBDXZ 00000001801ddbd0 f i OpenExr:ImfHeader.obj
 0001:001dcc00       ?typeName@?$TypedAttribute@V?$Box@V?$Vec2@H@Imath@@@Imath@@@Imf@@UEBAPEBDXZ 00000001801ddc00 f i OpenExr:ImfHeader.obj
 0001:001dcc30       ?typeName@?$TypedAttribute@V?$Box@V?$Vec2@M@Imath@@@Imath@@@Imf@@UEBAPEBDXZ 00000001801ddc30 f i OpenExr:ImfHeader.obj
 0001:001dcc60       ?typeName@?$TypedAttribute@V?$Matrix33@M@Imath@@@Imf@@UEBAPEBDXZ 00000001801ddc60 f i OpenExr:ImfHeader.obj
 0001:001dcc90       ?typeName@?$TypedAttribute@V?$Matrix33@N@Imath@@@Imf@@UEBAPEBDXZ 00000001801ddc90 f i OpenExr:ImfHeader.obj
 0001:001dccc0       ?typeName@?$TypedAttribute@V?$Matrix44@M@Imath@@@Imf@@UEBAPEBDXZ 00000001801ddcc0 f i OpenExr:ImfHeader.obj
 0001:001dccf0       ?typeName@?$TypedAttribute@V?$Matrix44@N@Imath@@@Imf@@UEBAPEBDXZ 00000001801ddcf0 f i OpenExr:ImfHeader.obj
 0001:001dcd20       ?typeName@?$TypedAttribute@V?$Vec2@H@Imath@@@Imf@@UEBAPEBDXZ 00000001801ddd20 f i OpenExr:ImfHeader.obj
 0001:001dcd50       ?typeName@?$TypedAttribute@V?$Vec2@M@Imath@@@Imf@@UEBAPEBDXZ 00000001801ddd50 f i OpenExr:ImfHeader.obj
 0001:001dcd80       ?typeName@?$TypedAttribute@V?$Vec2@N@Imath@@@Imf@@UEBAPEBDXZ 00000001801ddd80 f i OpenExr:ImfHeader.obj
 0001:001dcdb0       ?typeName@?$TypedAttribute@V?$Vec3@H@Imath@@@Imf@@UEBAPEBDXZ 00000001801dddb0 f i OpenExr:ImfHeader.obj
 0001:001dcde0       ?typeName@?$TypedAttribute@V?$Vec3@M@Imath@@@Imf@@UEBAPEBDXZ 00000001801ddde0 f i OpenExr:ImfHeader.obj
 0001:001dce10       ?typeName@?$TypedAttribute@V?$Vec3@N@Imath@@@Imf@@UEBAPEBDXZ 00000001801dde10 f i OpenExr:ImfHeader.obj
 0001:001dce40       ?typeName@?$TypedAttribute@V?$basic_string@DU?$char_traits@D@std@@V?$allocator@D@2@@std@@@Imf@@UEBAPEBDXZ 00000001801dde40 f i OpenExr:ImfHeader.obj
 0001:001dce70       ?typeName@?$TypedAttribute@V?$vector@MV?$allocator@M@std@@@std@@@Imf@@UEBAPEBDXZ 00000001801dde70 f i OpenExr:ImfHeader.obj
 0001:001dcea0       ?typeName@?$TypedAttribute@V?$vector@V?$basic_string@DU?$char_traits@D@std@@V?$allocator@D@2@@std@@V?$allocator@V?$basic_string@DU?$char_traits@D@std@@V?$allocator@D@2@@std@@@2@@std@@@Imf@@UEBAPEBDXZ 00000001801ddea0 f i OpenExr:ImfHeader.obj
 0001:001dced0       ?typeName@?$TypedAttribute@VChannelList@Imf@@@Imf@@UEBAPEBDXZ 00000001801dded0 f i OpenExr:ImfHeader.obj
 0001:001dcf00       ?typeName@?$TypedAttribute@VKeyCode@Imf@@@Imf@@UEBAPEBDXZ 00000001801ddf00 f i OpenExr:ImfHeader.obj
 0001:001dcf30       ?typeName@?$TypedAttribute@VPreviewImage@Imf@@@Imf@@UEBAPEBDXZ 00000001801ddf30 f i OpenExr:ImfHeader.obj
 0001:001dcf60       ?typeName@?$TypedAttribute@VRational@Imf@@@Imf@@UEBAPEBDXZ 00000001801ddf60 f i OpenExr:ImfHeader.obj
 0001:001dcf90       ?typeName@?$TypedAttribute@VTileDescription@Imf@@@Imf@@UEBAPEBDXZ 00000001801ddf90 f i OpenExr:ImfHeader.obj
 0001:001dcfc0       ?typeName@?$TypedAttribute@VTimeCode@Imf@@@Imf@@UEBAPEBDXZ 00000001801ddfc0 f i OpenExr:ImfHeader.obj
 0001:001dcff0       ?typeName@?$TypedAttribute@W4Compression@Imf@@@Imf@@UEBAPEBDXZ 00000001801ddff0 f i OpenExr:ImfHeader.obj
 0001:001dd020       ?typeName@?$TypedAttribute@W4DeepImageState@Imf@@@Imf@@UEBAPEBDXZ 00000001801de020 f i OpenExr:ImfHeader.obj
 0001:001dd050       ?typeName@?$TypedAttribute@W4Envmap@Imf@@@Imf@@UEBAPEBDXZ 00000001801de050 f i OpenExr:ImfHeader.obj
 0001:001dd080       ?typeName@?$TypedAttribute@W4LineOrder@Imf@@@Imf@@UEBAPEBDXZ 00000001801de080 f i OpenExr:ImfHeader.obj
 0001:001dd0b0       ?underflow@?$basic_stringbuf@DU?$char_traits@D@std@@V?$allocator@D@2@@std@@MEAAHXZ 00000001801de0b0 f i OpenExr:ImfHeader.obj
 0001:001dd210       ?value@?$TypedAttribute@H@Imf@@QEAAAEAHXZ 00000001801de210 f i OpenExr:ImfHeader.obj
 0001:001dd230       ?value@?$TypedAttribute@H@Imf@@QEBAAEBHXZ 00000001801de230 f i OpenExr:ImfHeader.obj
 0001:001dd250       ?value@?$TypedAttribute@M@Imf@@QEAAAEAMXZ 00000001801de250 f i OpenExr:ImfHeader.obj
 0001:001dd270       ?value@?$TypedAttribute@M@Imf@@QEBAAEBMXZ 00000001801de270 f i OpenExr:ImfHeader.obj
 0001:001dd290       ?value@?$TypedAttribute@V?$Box@V?$Vec2@H@Imath@@@Imath@@@Imf@@QEAAAEAV?$Box@V?$Vec2@H@Imath@@@Imath@@XZ 00000001801de290 f i OpenExr:ImfHeader.obj
 0001:001dd2b0       ?value@?$TypedAttribute@V?$Box@V?$Vec2@H@Imath@@@Imath@@@Imf@@QEBAAEBV?$Box@V?$Vec2@H@Imath@@@Imath@@XZ 00000001801de2b0 f i OpenExr:ImfHeader.obj
 0001:001dd2d0       ?value@?$TypedAttribute@V?$Vec2@M@Imath@@@Imf@@QEAAAEAV?$Vec2@M@Imath@@XZ 00000001801de2d0 f i OpenExr:ImfHeader.obj
 0001:001dd2f0       ?value@?$TypedAttribute@V?$Vec2@M@Imath@@@Imf@@QEBAAEBV?$Vec2@M@Imath@@XZ 00000001801de2f0 f i OpenExr:ImfHeader.obj
 0001:001dd310       ?value@?$TypedAttribute@V?$basic_string@DU?$char_traits@D@std@@V?$allocator@D@2@@std@@@Imf@@QEAAAEAV?$basic_string@DU?$char_traits@D@std@@V?$allocator@D@2@@std@@XZ 00000001801de310 f i OpenExr:ImfHeader.obj
 0001:001dd330       ?value@?$TypedAttribute@V?$basic_string@DU?$char_traits@D@std@@V?$allocator@D@2@@std@@@Imf@@QEBAAEBV?$basic_string@DU?$char_traits@D@std@@V?$allocator@D@2@@std@@XZ 00000001801de330 f i OpenExr:ImfHeader.obj
 0001:001dd350       ?value@?$TypedAttribute@VChannelList@Imf@@@Imf@@QEAAAEAVChannelList@2@XZ 00000001801de350 f i OpenExr:ImfHeader.obj
 0001:001dd370       ?value@?$TypedAttribute@VChannelList@Imf@@@Imf@@QEBAAEBVChannelList@2@XZ 00000001801de370 f i OpenExr:ImfHeader.obj
 0001:001dd390       ?value@?$TypedAttribute@VPreviewImage@Imf@@@Imf@@QEAAAEAVPreviewImage@2@XZ 00000001801de390 f i OpenExr:ImfHeader.obj
 0001:001dd3b0       ?value@?$TypedAttribute@VPreviewImage@Imf@@@Imf@@QEBAAEBVPreviewImage@2@XZ 00000001801de3b0 f i OpenExr:ImfHeader.obj
 0001:001dd3d0       ?value@?$TypedAttribute@VTileDescription@Imf@@@Imf@@QEAAAEAVTileDescription@2@XZ 00000001801de3d0 f i OpenExr:ImfHeader.obj
 0001:001dd3f0       ?value@?$TypedAttribute@VTileDescription@Imf@@@Imf@@QEBAAEBVTileDescription@2@XZ 00000001801de3f0 f i OpenExr:ImfHeader.obj
 0001:001dd410       ?value@?$TypedAttribute@W4Compression@Imf@@@Imf@@QEAAAEAW4Compression@2@XZ 00000001801de410 f i OpenExr:ImfHeader.obj
 0001:001dd430       ?value@?$TypedAttribute@W4Compression@Imf@@@Imf@@QEBAAEBW4Compression@2@XZ 00000001801de430 f i OpenExr:ImfHeader.obj
 0001:001dd450       ?value@?$TypedAttribute@W4LineOrder@Imf@@@Imf@@QEAAAEAW4LineOrder@2@XZ 00000001801de450 f i OpenExr:ImfHeader.obj
 0001:001dd470       ?value@?$TypedAttribute@W4LineOrder@Imf@@@Imf@@QEBAAEBW4LineOrder@2@XZ 00000001801de470 f i OpenExr:ImfHeader.obj
 0001:001dd490       ?writeChars@StreamIO@Imf@@SAXAEAVOStream@2@QEBDH@Z 00000001801de490 f i OpenExr:ImfHeader.obj
 0001:001dd4e0       ?writeValueTo@?$TypedAttribute@H@Imf@@UEBAXAEAVOStream@2@H@Z 00000001801de4e0 f i OpenExr:ImfHeader.obj
 0001:001dd520       ?writeValueTo@?$TypedAttribute@M@Imf@@UEBAXAEAVOStream@2@H@Z 00000001801de520 f i OpenExr:ImfHeader.obj
 0001:001dd570       ?writeValueTo@?$TypedAttribute@N@Imf@@UEBAXAEAVOStream@2@H@Z 00000001801de570 f i OpenExr:ImfHeader.obj
 0001:001dd5c0       ?globalThreadCount@Imf@@YAHXZ 00000001801de5c0 f   OpenExr:ImfThreading.obj
 0001:001dd5f0       ?setGlobalThreadCount@Imf@@YAXH@Z 00000001801de5f0 f   OpenExr:ImfThreading.obj
 0001:001dd630       ??0RgbaOutputFile@Imf@@QEAA@QEBDAEBVHeader@1@W4RgbaChannels@1@H@Z 00000001801de630 f   OpenExr:ImfRgbaFile.obj
 0001:001dd7e0       ??0RgbaOutputFile@Imf@@QEAA@AEAVOStream@1@AEBVHeader@1@W4RgbaChannels@1@H@Z 00000001801de7e0 f   OpenExr:ImfRgbaFile.obj
 0001:001dd990       ??0RgbaOutputFile@Imf@@QEAA@QEBDAEBV?$Box@V?$Vec2@H@Imath@@@Imath@@1W4RgbaChannels@1@MV?$Vec2@M@3@MW4LineOrder@1@W4Compression@1@H@Z 00000001801de990 f   OpenExr:ImfRgbaFile.obj
 0001:001ddbe0       ??0RgbaOutputFile@Imf@@QEAA@QEBDHHW4RgbaChannels@1@MV?$Vec2@M@Imath@@MW4LineOrder@1@W4Compression@1@H@Z 00000001801debe0 f   OpenExr:ImfRgbaFile.obj
 0001:001dddf0       ??1RgbaOutputFile@Imf@@UEAA@XZ 00000001801dedf0 f   OpenExr:ImfRgbaFile.obj
 0001:001ddec0       ?setFrameBuffer@RgbaOutputFile@Imf@@QEAAXPEBURgba@2@_K1@Z 00000001801deec0 f   OpenExr:ImfRgbaFile.obj
 0001:001de1c0       ?writePixels@RgbaOutputFile@Imf@@QEAAXH@Z 00000001801df1c0 f   OpenExr:ImfRgbaFile.obj
 0001:001de260       ?currentScanLine@RgbaOutputFile@Imf@@QEBAHXZ 00000001801df260 f   OpenExr:ImfRgbaFile.obj
 0001:001de300       ?header@RgbaOutputFile@Imf@@QEBAAEBVHeader@2@XZ 00000001801df300 f   OpenExr:ImfRgbaFile.obj
 0001:001de340       ?frameBuffer@RgbaOutputFile@Imf@@QEBAAEBVFrameBuffer@2@XZ 00000001801df340 f   OpenExr:ImfRgbaFile.obj
 0001:001de380       ?displayWindow@RgbaOutputFile@Imf@@QEBAAEBV?$Box@V?$Vec2@H@Imath@@@Imath@@XZ 00000001801df380 f   OpenExr:ImfRgbaFile.obj
 0001:001de3c0       ?dataWindow@RgbaOutputFile@Imf@@QEBAAEBV?$Box@V?$Vec2@H@Imath@@@Imath@@XZ 00000001801df3c0 f   OpenExr:ImfRgbaFile.obj
 0001:001de400       ?pixelAspectRatio@RgbaOutputFile@Imf@@QEBAMXZ 00000001801df400 f   OpenExr:ImfRgbaFile.obj
 0001:001de450       ?screenWindowCenter@RgbaOutputFile@Imf@@QEBA?BV?$Vec2@M@Imath@@XZ 00000001801df450 f   OpenExr:ImfRgbaFile.obj
 0001:001de4b0       ?screenWindowWidth@RgbaOutputFile@Imf@@QEBAMXZ 00000001801df4b0 f   OpenExr:ImfRgbaFile.obj
 0001:001de500       ?lineOrder@RgbaOutputFile@Imf@@QEBA?AW4LineOrder@2@XZ 00000001801df500 f   OpenExr:ImfRgbaFile.obj
 0001:001de550       ?compression@RgbaOutputFile@Imf@@QEBA?AW4Compression@2@XZ 00000001801df550 f   OpenExr:ImfRgbaFile.obj
 0001:001de5a0       ?channels@RgbaOutputFile@Imf@@QEBA?AW4RgbaChannels@2@XZ 00000001801df5a0 f   OpenExr:ImfRgbaFile.obj
 0001:001de640       ?updatePreviewImage@RgbaOutputFile@Imf@@QEAAXQEBUPreviewRgba@2@@Z 00000001801df640 f   OpenExr:ImfRgbaFile.obj
 0001:001de690       ?setYCRounding@RgbaOutputFile@Imf@@QEAAXII@Z 00000001801df690 f   OpenExr:ImfRgbaFile.obj
 0001:001de720       ?breakScanLine@RgbaOutputFile@Imf@@QEAAXHHHD@Z 00000001801df720 f   OpenExr:ImfRgbaFile.obj
 0001:001de780       ??0RgbaInputFile@Imf@@QEAA@QEBDH@Z 00000001801df780 f   OpenExr:ImfRgbaFile.obj
 0001:001de8c0       ??0RgbaInputFile@Imf@@QEAA@AEAVIStream@1@H@Z 00000001801df8c0 f   OpenExr:ImfRgbaFile.obj
 0001:001dea00       ??0RgbaInputFile@Imf@@QEAA@QEBDAEBV?$basic_string@DU?$char_traits@D@std@@V?$allocator@D@2@@std@@H@Z 00000001801dfa00 f   OpenExr:ImfRgbaFile.obj
 0001:001deb60       ??0RgbaInputFile@Imf@@QEAA@AEAVIStream@1@AEBV?$basic_string@DU?$char_traits@D@std@@V?$allocator@D@2@@std@@H@Z 00000001801dfb60 f   OpenExr:ImfRgbaFile.obj
 0001:001decc0       ??1RgbaInputFile@Imf@@UEAA@XZ 00000001801dfcc0 f   OpenExr:ImfRgbaFile.obj
 0001:001deda0       ?setFrameBuffer@RgbaInputFile@Imf@@QEAAXPEAURgba@2@_K1@Z 00000001801dfda0 f   OpenExr:ImfRgbaFile.obj
 0001:001df240       ?setLayerName@RgbaInputFile@Imf@@QEAAXAEBV?$basic_string@DU?$char_traits@D@std@@V?$allocator@D@2@@std@@@Z 00000001801e0240 f   OpenExr:ImfRgbaFile.obj
 0001:001df440       ?readPixels@RgbaInputFile@Imf@@QEAAXHH@Z 00000001801e0440 f   OpenExr:ImfRgbaFile.obj
 0001:001df4f0       ?readPixels@RgbaInputFile@Imf@@QEAAXH@Z 00000001801e04f0 f   OpenExr:ImfRgbaFile.obj
 0001:001df540       ?header@RgbaInputFile@Imf@@QEBAAEBVHeader@2@XZ 00000001801e0540 f   OpenExr:ImfRgbaFile.obj
 0001:001df580       ?frameBuffer@RgbaInputFile@Imf@@QEBAAEBVFrameBuffer@2@XZ 00000001801e0580 f   OpenExr:ImfRgbaFile.obj
 0001:001df5c0       ?displayWindow@RgbaInputFile@Imf@@QEBAAEBV?$Box@V?$Vec2@H@Imath@@@Imath@@XZ 00000001801e05c0 f   OpenExr:ImfRgbaFile.obj
 0001:001df600       ?dataWindow@RgbaInputFile@Imf@@QEBAAEBV?$Box@V?$Vec2@H@Imath@@@Imath@@XZ 00000001801e0600 f   OpenExr:ImfRgbaFile.obj
 0001:001df640       ?pixelAspectRatio@RgbaInputFile@Imf@@QEBAMXZ 00000001801e0640 f   OpenExr:ImfRgbaFile.obj
 0001:001df690       ?screenWindowCenter@RgbaInputFile@Imf@@QEBA?BV?$Vec2@M@Imath@@XZ 00000001801e0690 f   OpenExr:ImfRgbaFile.obj
 0001:001df6f0       ?screenWindowWidth@RgbaInputFile@Imf@@QEBAMXZ 00000001801e06f0 f   OpenExr:ImfRgbaFile.obj
 0001:001df740       ?lineOrder@RgbaInputFile@Imf@@QEBA?AW4LineOrder@2@XZ 00000001801e0740 f   OpenExr:ImfRgbaFile.obj
 0001:001df790       ?compression@RgbaInputFile@Imf@@QEBA?AW4Compression@2@XZ 00000001801e0790 f   OpenExr:ImfRgbaFile.obj
 0001:001df7e0       ?channels@RgbaInputFile@Imf@@QEBA?AW4RgbaChannels@2@XZ 00000001801e07e0 f   OpenExr:ImfRgbaFile.obj
 0001:001df840       ?fileName@RgbaInputFile@Imf@@QEBAPEBDXZ 00000001801e0840 f   OpenExr:ImfRgbaFile.obj
 0001:001df880       ?isComplete@RgbaInputFile@Imf@@QEBA_NXZ 00000001801e0880 f   OpenExr:ImfRgbaFile.obj
 0001:001df8c0       ?version@RgbaInputFile@Imf@@QEBAHXZ 00000001801e08c0 f   OpenExr:ImfRgbaFile.obj
 0001:001df900       ?insertChannels@?A0xc3699a11@Imf@@YAXAEAVHeader@2@W4RgbaChannels@2@@Z 00000001801e0900 f   OpenExr:ImfRgbaFile.obj
 0001:001dfb70       ?rgbaChannels@?A0xc3699a11@Imf@@YA?AW4RgbaChannels@2@AEBVChannelList@2@AEBV?$basic_string@DU?$char_traits@D@std@@V?$allocator@D@2@@std@@@Z 00000001801e0b70 f   OpenExr:ImfRgbaFile.obj
 0001:001dff70       ?prefixFromLayerName@?A0xc3699a11@Imf@@YA?AV?$basic_string@DU?$char_traits@D@std@@V?$allocator@D@2@@std@@AEBV34@AEBVHeader@2@@Z 00000001801e0f70 f   OpenExr:ImfRgbaFile.obj
 0001:001e0070       ?ywFromHeader@?A0xc3699a11@Imf@@YA?AV?$Vec3@M@Imath@@AEBVHeader@2@@Z 00000001801e1070 f   OpenExr:ImfRgbaFile.obj
 0001:001e01c0       ?cachePadding@?A0xc3699a11@Imf@@YA_J_J@Z 00000001801e11c0 f   OpenExr:ImfRgbaFile.obj
 0001:001e02e0       ??0ToYca@RgbaOutputFile@Imf@@QEAA@AEAVOutputFile@2@W4RgbaChannels@2@@Z 00000001801e12e0 f   OpenExr:ImfRgbaFile.obj
 0001:001e0740       ??1ToYca@RgbaOutputFile@Imf@@UEAA@XZ 00000001801e1740 f   OpenExr:ImfRgbaFile.obj
 0001:001e07c0       ?setYCRounding@ToYca@RgbaOutputFile@Imf@@QEAAXII@Z 00000001801e17c0 f   OpenExr:ImfRgbaFile.obj
 0001:001e0800       ?setFrameBuffer@ToYca@RgbaOutputFile@Imf@@QEAAXPEBURgba@3@_K1@Z 00000001801e1800 f   OpenExr:ImfRgbaFile.obj
 0001:001e0b10       ?writePixels@ToYca@RgbaOutputFile@Imf@@QEAAXH@Z 00000001801e1b10 f   OpenExr:ImfRgbaFile.obj
 0001:001e11d0       ?currentScanLine@ToYca@RgbaOutputFile@Imf@@QEBAHXZ 00000001801e21d0 f   OpenExr:ImfRgbaFile.obj
 0001:001e11f0       ?padTmpBuf@ToYca@RgbaOutputFile@Imf@@AEAAXXZ 00000001801e21f0 f   OpenExr:ImfRgbaFile.obj
 0001:001e12c0       ?rotateBuffers@ToYca@RgbaOutputFile@Imf@@AEAAXXZ 00000001801e22c0 f   OpenExr:ImfRgbaFile.obj
 0001:001e1360       ?duplicateLastBuffer@ToYca@RgbaOutputFile@Imf@@AEAAXXZ 00000001801e2360 f   OpenExr:ImfRgbaFile.obj
 0001:001e13e0       ?duplicateSecondToLastBuffer@ToYca@RgbaOutputFile@Imf@@AEAAXXZ 00000001801e23e0 f   OpenExr:ImfRgbaFile.obj
 0001:001e1460       ?decimateChromaVertAndWriteScanLine@ToYca@RgbaOutputFile@Imf@@AEAAXXZ 00000001801e2460 f   OpenExr:ImfRgbaFile.obj
 0001:001e1570       ??0FromYca@RgbaInputFile@Imf@@QEAA@AEAVInputFile@2@W4RgbaChannels@2@@Z 00000001801e2570 f   OpenExr:ImfRgbaFile.obj
 0001:001e19b0       ??1FromYca@RgbaInputFile@Imf@@UEAA@XZ 00000001801e29b0 f   OpenExr:ImfRgbaFile.obj
 0001:001e1a30       ?setFrameBuffer@FromYca@RgbaInputFile@Imf@@QEAAXPEAURgba@3@_K1AEBV?$basic_string@DU?$char_traits@D@std@@V?$allocator@D@2@@std@@@Z 00000001801e2a30 f   OpenExr:ImfRgbaFile.obj
 0001:001e1eb0       ?readPixels@FromYca@RgbaInputFile@Imf@@QEAAXHH@Z 00000001801e2eb0 f   OpenExr:ImfRgbaFile.obj
 0001:001e1f80       ?readPixels@FromYca@RgbaInputFile@Imf@@AEAAXH@Z 00000001801e2f80 f   OpenExr:ImfRgbaFile.obj
 0001:001e26d0       ?rotateBuf1@FromYca@RgbaInputFile@Imf@@AEAAXH@Z 00000001801e36d0 f   OpenExr:ImfRgbaFile.obj
 0001:001e2800       ?rotateBuf2@FromYca@RgbaInputFile@Imf@@AEAAXH@Z 00000001801e3800 f   OpenExr:ImfRgbaFile.obj
 0001:001e28f0       ?readYCAScanLine@FromYca@RgbaInputFile@Imf@@AEAAXHQEAURgba@3@@Z 00000001801e38f0 f   OpenExr:ImfRgbaFile.obj
 0001:001e2a50       ?padTmpBuf@FromYca@RgbaInputFile@Imf@@AEAAXXZ 00000001801e3a50 f   OpenExr:ImfRgbaFile.obj
 0001:001e2b10       ??$?0U?$_Tree_node@U?$pair@$$CBVName@Imf@@USlice@2@@std@@PEAX@std@@@?$allocator@U_Container_proxy@std@@@std@@QEAA@AEBV?$allocator@U?$_Tree_node@U?$pair@$$CBVName@Imf@@USlice@2@@std@@PEAX@std@@@1@@Z 00000001801e3b10 f i OpenExr:ImfRgbaFile.obj
 0001:001e2b30       ??$?0U?$_Wrap_alloc@V?$allocator@U?$_Tree_node@U?$pair@$$CBVName@Imf@@USlice@2@@std@@PEAX@std@@@std@@@std@@@?$_Wrap_alloc@V?$allocator@U_Container_proxy@std@@@std@@@std@@QEAA@AEBU?$_Wrap_alloc@V?$allocator@U?$_Tree_node@U?$pair@$$CBVName@Imf@@USlice@2@@std@@PEAX@std@@@std@@@1@@Z 00000001801e3b30 f i OpenExr:ImfRgbaFile.obj
 0001:001e2b70       ??$?8DU?$char_traits@D@std@@V?$allocator@D@1@@std@@YA_NAEBV?$basic_string@DU?$char_traits@D@std@@V?$allocator@D@2@@0@0@Z 00000001801e3b70 f i OpenExr:ImfRgbaFile.obj
 0001:001e2bd0       ??$?RAEBHAEBH@?$less@X@std@@QEBA_NAEBH0@Z 00000001801e3bd0 f i OpenExr:ImfRgbaFile.obj
 0001:001e2c30       ??$_Allocate@U?$_Tree_node@U?$pair@$$CBVName@Imf@@USlice@2@@std@@PEAX@std@@@std@@YAPEAU?$_Tree_node@U?$pair@$$CBVName@Imf@@USlice@2@@std@@PEAX@0@_KPEAU10@@Z 00000001801e3c30 f i OpenExr:ImfRgbaFile.obj
 0001:001e2cb0       ??$_Debug_lt@AEBHAEBH@std@@YA_NAEBH0PEB_WI@Z 00000001801e3cb0 f i OpenExr:ImfRgbaFile.obj
 0001:001e2d30       ??$_Debug_lt_pred@U?$less@X@std@@AEBHAEBH@std@@YA_NU?$less@X@0@AEBH1PEB_WI@Z 00000001801e3d30 f i OpenExr:ImfRgbaFile.obj
 0001:001e2df0       ??$addressof@PEAU?$_Tree_node@U?$pair@$$CBVName@Imf@@USlice@2@@std@@PEAX@std@@@std@@YAPEAPEAU?$_Tree_node@U?$pair@$$CBVName@Imf@@USlice@2@@std@@PEAX@0@AEAPEAU10@@Z 00000001801e3df0 f i OpenExr:ImfRgbaFile.obj
 0001:001e2e00       ??$addressof@U?$pair@$$CBVName@Imf@@USlice@2@@std@@@std@@YAPEAU?$pair@$$CBVName@Imf@@USlice@2@@0@AEAU10@@Z 00000001801e3e00 f i OpenExr:ImfRgbaFile.obj
 0001:001e2e10       ??$construct@PEAU?$_Tree_node@U?$pair@$$CBVName@Imf@@USlice@2@@std@@PEAX@std@@AEAPEAU12@@?$_Wrap_alloc@V?$allocator@U?$_Tree_node@U?$pair@$$CBVName@Imf@@USlice@2@@std@@PEAX@std@@@std@@@std@@QEAAXPEAPEAU?$_Tree_node@U?$pair@$$CBVName@Imf@@USlice@2@@std@@PEAX@1@AEAPEAU21@@Z 00000001801e3e10 f i OpenExr:ImfRgbaFile.obj
 0001:001e2e60       ??$construct@PEAU?$_Tree_node@U?$pair@$$CBVName@Imf@@USlice@2@@std@@PEAX@std@@AEAPEAU12@@?$allocator@U?$_Tree_node@U?$pair@$$CBVName@Imf@@USlice@2@@std@@PEAX@std@@@std@@QEAAXPEAPEAU?$_Tree_node@U?$pair@$$CBVName@Imf@@USlice@2@@std@@PEAX@1@AEAPEAU21@@Z 00000001801e3e60 f i OpenExr:ImfRgbaFile.obj
 0001:001e2ef0       ??$construct@PEAU?$_Tree_node@U?$pair@$$CBVName@Imf@@USlice@2@@std@@PEAX@std@@AEAPEAU12@@?$allocator_traits@V?$allocator@U?$_Tree_node@U?$pair@$$CBVName@Imf@@USlice@2@@std@@PEAX@std@@@std@@@std@@SAXAEAV?$allocator@U?$_Tree_node@U?$pair@$$CBVName@Imf@@USlice@2@@std@@PEAX@std@@@1@PEAPEAU?$_Tree_node@U?$pair@$$CBVName@Imf@@USlice@2@@std@@PEAX@1@AEAPEAU31@@Z 00000001801e3ef0 f i OpenExr:ImfRgbaFile.obj
 0001:001e2f40       ??$destroy@PEAU?$_Tree_node@U?$pair@$$CBVName@Imf@@USlice@2@@std@@PEAX@std@@@?$_Wrap_alloc@V?$allocator@U?$_Tree_node@U?$pair@$$CBVName@Imf@@USlice@2@@std@@PEAX@std@@@std@@@std@@QEAAXPEAPEAU?$_Tree_node@U?$pair@$$CBVName@Imf@@USlice@2@@std@@PEAX@1@@Z 00000001801e3f40 f i OpenExr:ImfRgbaFile.obj
 0001:001e2f80       ??$destroy@PEAU?$_Tree_node@U?$pair@$$CBVName@Imf@@USlice@2@@std@@PEAX@std@@@?$allocator@U?$_Tree_node@U?$pair@$$CBVName@Imf@@USlice@2@@std@@PEAX@std@@@std@@QEAAXPEAPEAU?$_Tree_node@U?$pair@$$CBVName@Imf@@USlice@2@@std@@PEAX@1@@Z 00000001801e3f80 f i OpenExr:ImfRgbaFile.obj
 0001:001e2f90       ??$destroy@PEAU?$_Tree_node@U?$pair@$$CBVName@Imf@@USlice@2@@std@@PEAX@std@@@?$allocator_traits@V?$allocator@U?$_Tree_node@U?$pair@$$CBVName@Imf@@USlice@2@@std@@PEAX@std@@@std@@@std@@SAXAEAV?$allocator@U?$_Tree_node@U?$pair@$$CBVName@Imf@@USlice@2@@std@@PEAX@std@@@1@PEAPEAU?$_Tree_node@U?$pair@$$CBVName@Imf@@USlice@2@@std@@PEAX@1@@Z 00000001801e3f90 f i OpenExr:ImfRgbaFile.obj
 0001:001e2fd0       ??$destroy@U?$pair@$$CBVName@Imf@@USlice@2@@std@@@?$_Wrap_alloc@V?$allocator@U?$_Tree_node@U?$pair@$$CBVName@Imf@@USlice@2@@std@@PEAX@std@@@std@@@std@@QEAAXPEAU?$pair@$$CBVName@Imf@@USlice@2@@1@@Z 00000001801e3fd0 f i OpenExr:ImfRgbaFile.obj
 0001:001e3010       ??$destroy@U?$pair@$$CBVName@Imf@@USlice@2@@std@@@?$allocator@U?$_Tree_node@U?$pair@$$CBVName@Imf@@USlice@2@@std@@PEAX@std@@@std@@QEAAXPEAU?$pair@$$CBVName@Imf@@USlice@2@@1@@Z 00000001801e4010 f i OpenExr:ImfRgbaFile.obj
 0001:001e3020       ??$destroy@U?$pair@$$CBVName@Imf@@USlice@2@@std@@@?$allocator_traits@V?$allocator@U?$_Tree_node@U?$pair@$$CBVName@Imf@@USlice@2@@std@@PEAX@std@@@std@@@std@@SAXAEAV?$allocator@U?$_Tree_node@U?$pair@$$CBVName@Imf@@USlice@2@@std@@PEAX@std@@@1@PEAU?$pair@$$CBVName@Imf@@USlice@2@@1@@Z 00000001801e4020 f i OpenExr:ImfRgbaFile.obj
 0001:001e3060       ??$forward@AEAPEAU?$_Tree_node@U?$pair@$$CBVName@Imf@@USlice@2@@std@@PEAX@std@@@std@@YAAEAPEAU?$_Tree_node@U?$pair@$$CBVName@Imf@@USlice@2@@std@@PEAX@0@AEAPEAU10@@Z 00000001801e4060 f i OpenExr:ImfRgbaFile.obj
 0001:001e3070       ??$forward@AEBH@std@@YAAEBHAEBH@Z 00000001801e4070 f i OpenExr:ImfRgbaFile.obj
 0001:001e3080       ??$max@H@std@@YAAEBHAEBH0@Z 00000001801e4080 f i OpenExr:ImfRgbaFile.obj
 0001:001e3100       ??$min@H@std@@YAAEBHAEBH0@Z 00000001801e4100 f i OpenExr:ImfRgbaFile.obj
 0001:001e3180       ??0?$_Iterator012@Ubidirectional_iterator_tag@std@@U?$pair@$$CBVName@Imf@@USlice@2@@2@_JPEBU32@AEBU32@U_Iterator_base12@2@@std@@QEAA@AEBU01@@Z 00000001801e4180 f i OpenExr:ImfRgbaFile.obj
 0001:001e31c0       ??0?$_Iterator012@Ubidirectional_iterator_tag@std@@U?$pair@$$CBVName@Imf@@USlice@2@@2@_JPEBU32@AEBU32@U_Iterator_base12@2@@std@@QEAA@XZ 00000001801e41c0 f i OpenExr:ImfRgbaFile.obj
 0001:001e3200       ??0?$_Tree@V?$_Tmap_traits@VName@Imf@@USlice@2@U?$less@VName@Imf@@@std@@V?$allocator@U?$pair@$$CBVName@Imf@@USlice@2@@std@@@5@$0A@@std@@@std@@QEAA@AEBU?$less@VName@Imf@@@1@AEBV?$allocator@U?$pair@$$CBVName@Imf@@USlice@2@@std@@@1@@Z 00000001801e4200 f i OpenExr:ImfRgbaFile.obj
 0001:001e3250       ??0?$_Tree_alloc@$0A@U?$_Tree_base_types@U?$pair@$$CBVName@Imf@@USlice@2@@std@@V?$allocator@U?$pair@$$CBVName@Imf@@USlice@2@@std@@@2@@std@@@std@@QEAA@AEBV?$allocator@U?$pair@$$CBVName@Imf@@USlice@2@@std@@@1@@Z 00000001801e4250 f i OpenExr:ImfRgbaFile.obj
 0001:001e32c0       ??0?$_Tree_buy@U?$pair@$$CBVName@Imf@@USlice@2@@std@@V?$allocator@U?$pair@$$CBVName@Imf@@USlice@2@@std@@@2@@std@@QEAA@AEBV?$allocator@U?$pair@$$CBVName@Imf@@USlice@2@@std@@@1@@Z 00000001801e42c0 f i OpenExr:ImfRgbaFile.obj
 0001:001e3300       ??0?$_Tree_comp@$0A@V?$_Tmap_traits@VName@Imf@@USlice@2@U?$less@VName@Imf@@@std@@V?$allocator@U?$pair@$$CBVName@Imf@@USlice@2@@std@@@5@$0A@@std@@@std@@QEAA@AEBU?$less@VName@Imf@@@1@AEBV?$allocator@U?$pair@$$CBVName@Imf@@USlice@2@@std@@@1@@Z 00000001801e4300 f i OpenExr:ImfRgbaFile.obj
 0001:001e3350       ??0?$_Tree_const_iterator@V?$_Tree_val@U?$_Tree_simple_types@U?$pair@$$CBVName@Imf@@USlice@2@@std@@@std@@@std@@@std@@QEAA@AEBV01@@Z 00000001801e4350 f i OpenExr:ImfRgbaFile.obj
 0001:001e3390       ??0?$_Tree_const_iterator@V?$_Tree_val@U?$_Tree_simple_types@U?$pair@$$CBVName@Imf@@USlice@2@@std@@@std@@@std@@@std@@QEAA@PEAU?$_Tree_node@U?$pair@$$CBVName@Imf@@USlice@2@@std@@PEAX@1@PEBV?$_Tree_val@U?$_Tree_simple_types@U?$pair@$$CBVName@Imf@@USlice@2@@std@@@std@@@1@@Z 00000001801e4390 f i OpenExr:ImfRgbaFile.obj
 0001:001e33e0       ??0?$_Tree_iterator@V?$_Tree_val@U?$_Tree_simple_types@U?$pair@$$CBVName@Imf@@USlice@2@@std@@@std@@@std@@@std@@QEAA@PEAU?$_Tree_node@U?$pair@$$CBVName@Imf@@USlice@2@@std@@PEAX@1@PEBV?$_Tree_val@U?$_Tree_simple_types@U?$pair@$$CBVName@Imf@@USlice@2@@std@@@std@@@1@@Z 00000001801e43e0 f i OpenExr:ImfRgbaFile.obj
 0001:001e3430       ??0?$_Tree_unchecked_const_iterator@V?$_Tree_val@U?$_Tree_simple_types@U?$pair@$$CBVName@Imf@@USlice@2@@std@@@std@@@std@@U_Iterator_base12@2@@std@@QEAA@AEBV01@@Z 00000001801e4430 f i OpenExr:ImfRgbaFile.obj
 0001:001e3480       ??0?$_Tree_unchecked_const_iterator@V?$_Tree_val@U?$_Tree_simple_types@U?$pair@$$CBVName@Imf@@USlice@2@@std@@@std@@@std@@U_Iterator_base12@2@@std@@QEAA@PEAU?$_Tree_node@U?$pair@$$CBVName@Imf@@USlice@2@@std@@PEAX@1@PEBV?$_Tree_val@U?$_Tree_simple_types@U?$pair@$$CBVName@Imf@@USlice@2@@std@@@std@@@1@@Z 00000001801e4480 f i OpenExr:ImfRgbaFile.obj
 0001:001e34f0       ??0?$_Tree_val@U?$_Tree_simple_types@U?$pair@$$CBVName@Imf@@USlice@2@@std@@@std@@@std@@QEAA@XZ 00000001801e44f0 f i OpenExr:ImfRgbaFile.obj
 0001:001e3540       ??0?$_Wrap_alloc@V?$allocator@U?$_Tree_node@U?$pair@$$CBVName@Imf@@USlice@2@@std@@PEAX@std@@@std@@@std@@QEAA@XZ 00000001801e4540 f i OpenExr:ImfRgbaFile.obj
 0001:001e3580       ??0?$allocator@U?$_Tree_node@U?$pair@$$CBVName@Imf@@USlice@2@@std@@PEAX@std@@@std@@QEAA@XZ 00000001801e4580 f i OpenExr:ImfRgbaFile.obj
 0001:001e3590       ??0?$allocator@U?$pair@$$CBVName@Imf@@USlice@2@@std@@@std@@QEAA@XZ 00000001801e4590 f i OpenExr:ImfRgbaFile.obj
 0001:001e35a0       ??0?$map@VName@Imf@@USlice@2@U?$less@VName@Imf@@@std@@V?$allocator@U?$pair@$$CBVName@Imf@@USlice@2@@std@@@5@@std@@QEAA@XZ 00000001801e45a0 f i OpenExr:ImfRgbaFile.obj
 0001:001e35f0       ??0FrameBuffer@Imf@@QEAA@XZ 00000001801e45f0 f i OpenExr:ImfRgbaFile.obj
 0001:001e3630       ??1?$_Iterator012@Ubidirectional_iterator_tag@std@@U?$pair@$$CBVName@Imf@@USlice@2@@2@_JPEBU32@AEBU32@U_Iterator_base12@2@@std@@QEAA@XZ 00000001801e4630 f i OpenExr:ImfRgbaFile.obj
 0001:001e3660       ??1?$_Tree@V?$_Tmap_traits@VName@Imf@@USlice@2@U?$less@VName@Imf@@@std@@V?$allocator@U?$pair@$$CBVName@Imf@@USlice@2@@std@@@5@$0A@@std@@@std@@QEAA@XZ 00000001801e4660 f i OpenExr:ImfRgbaFile.obj
 0001:001e36a0       ??1?$_Tree_alloc@$0A@U?$_Tree_base_types@U?$pair@$$CBVName@Imf@@USlice@2@@std@@V?$allocator@U?$pair@$$CBVName@Imf@@USlice@2@@std@@@2@@std@@@std@@QEAA@XZ 00000001801e46a0 f i OpenExr:ImfRgbaFile.obj
 0001:001e36f0       ??1?$_Tree_buy@U?$pair@$$CBVName@Imf@@USlice@2@@std@@V?$allocator@U?$pair@$$CBVName@Imf@@USlice@2@@std@@@2@@std@@QEAA@XZ 00000001801e46f0 f i OpenExr:ImfRgbaFile.obj
 0001:001e3720       ??1?$_Tree_comp@$0A@V?$_Tmap_traits@VName@Imf@@USlice@2@U?$less@VName@Imf@@@std@@V?$allocator@U?$pair@$$CBVName@Imf@@USlice@2@@std@@@5@$0A@@std@@@std@@QEAA@XZ 00000001801e4720 f i OpenExr:ImfRgbaFile.obj
 0001:001e3750       ??1?$_Tree_const_iterator@V?$_Tree_val@U?$_Tree_simple_types@U?$pair@$$CBVName@Imf@@USlice@2@@std@@@std@@@std@@@std@@QEAA@XZ 00000001801e4750 f i OpenExr:ImfRgbaFile.obj
 0001:001e3780       ??1?$_Tree_iterator@V?$_Tree_val@U?$_Tree_simple_types@U?$pair@$$CBVName@Imf@@USlice@2@@std@@@std@@@std@@@std@@QEAA@XZ 00000001801e4780 f i OpenExr:ImfRgbaFile.obj
 0001:001e37b0       ??1?$_Tree_unchecked_const_iterator@V?$_Tree_val@U?$_Tree_simple_types@U?$pair@$$CBVName@Imf@@USlice@2@@std@@@std@@@std@@U_Iterator_base12@2@@std@@QEAA@XZ 00000001801e47b0 f i OpenExr:ImfRgbaFile.obj
 0001:001e37e0       ??1?$_Tree_val@U?$_Tree_simple_types@U?$pair@$$CBVName@Imf@@USlice@2@@std@@@std@@@std@@QEAA@XZ 00000001801e47e0 f i OpenExr:ImfRgbaFile.obj
 0001:001e3810       ??1?$map@VName@Imf@@USlice@2@U?$less@VName@Imf@@@std@@V?$allocator@U?$pair@$$CBVName@Imf@@USlice@2@@std@@@5@@std@@QEAA@XZ 00000001801e4810 f i OpenExr:ImfRgbaFile.obj
 0001:001e3840       ??1FrameBuffer@Imf@@QEAA@XZ 00000001801e4840 f i OpenExr:ImfRgbaFile.obj
 0001:001e3880       ??4Rgba@Imf@@QEAAAEAU01@AEBU01@@Z 00000001801e4880 f i OpenExr:ImfRgbaFile.obj
 0001:001e3920       ??8?$_Tree_const_iterator@V?$_Tree_val@U?$_Tree_simple_types@U?$pair@$$CBVName@Imf@@USlice@2@@std@@@std@@@std@@@std@@QEBA_NAEBV01@@Z 00000001801e4920 f i OpenExr:ImfRgbaFile.obj
 0001:001e3a40       ??9?$_Tree_const_iterator@V?$_Tree_val@U?$_Tree_simple_types@U?$pair@$$CBVName@Imf@@USlice@2@@std@@@std@@@std@@@std@@QEBA_NAEBV01@@Z 00000001801e4a40 f i OpenExr:ImfRgbaFile.obj
 0001:001e3aa0       ??A?$Vec2@H@Imath@@QEBAAEBHH@Z 00000001801e4aa0 f i OpenExr:ImfRgbaFile.obj
 0001:001e3ac0       ??A?$vector@V?$basic_string@DU?$char_traits@D@std@@V?$allocator@D@2@@std@@V?$allocator@V?$basic_string@DU?$char_traits@D@std@@V?$allocator@D@2@@std@@@2@@std@@QEBAAEBV?$basic_string@DU?$char_traits@D@std@@V?$allocator@D@2@@1@_K@Z 00000001801e4ac0 f i OpenExr:ImfRgbaFile.obj
 0001:001e3ba0       ??E?$_Tree_const_iterator@V?$_Tree_val@U?$_Tree_simple_types@U?$pair@$$CBVName@Imf@@USlice@2@@std@@@std@@@std@@@std@@QEAA?AV01@H@Z 00000001801e4ba0 f i OpenExr:ImfRgbaFile.obj
 0001:001e3c40       ??E?$_Tree_const_iterator@V?$_Tree_val@U?$_Tree_simple_types@U?$pair@$$CBVName@Imf@@USlice@2@@std@@@std@@@std@@@std@@QEAAAEAV01@XZ 00000001801e4c40 f i OpenExr:ImfRgbaFile.obj
 0001:001e3d40       ??E?$_Tree_unchecked_const_iterator@V?$_Tree_val@U?$_Tree_simple_types@U?$pair@$$CBVName@Imf@@USlice@2@@std@@@std@@@std@@U_Iterator_base12@2@@std@@QEAAAEAV01@XZ 00000001801e4d40 f i OpenExr:ImfRgbaFile.obj
 0001:001e3e20       ??_EFromYca@RgbaInputFile@Imf@@UEAAPEAXI@Z 00000001801e4e20 f i OpenExr:ImfRgbaFile.obj
 0001:001e3e20       ??_GFromYca@RgbaInputFile@Imf@@UEAAPEAXI@Z 00000001801e4e20 f i OpenExr:ImfRgbaFile.obj
 0001:001e3e70       ??_ERgbaInputFile@Imf@@UEAAPEAXI@Z 00000001801e4e70 f i OpenExr:ImfRgbaFile.obj
 0001:001e3e70       ??_GRgbaInputFile@Imf@@UEAAPEAXI@Z 00000001801e4e70 f i OpenExr:ImfRgbaFile.obj
 0001:001e3ec0       ??_GRgbaOutputFile@Imf@@UEAAPEAXI@Z 00000001801e4ec0 f i OpenExr:ImfRgbaFile.obj
 0001:001e3ec0       ??_ERgbaOutputFile@Imf@@UEAAPEAXI@Z 00000001801e4ec0 f i OpenExr:ImfRgbaFile.obj
 0001:001e3f10       ??_GToYca@RgbaOutputFile@Imf@@UEAAPEAXI@Z 00000001801e4f10 f i OpenExr:ImfRgbaFile.obj
 0001:001e3f10       ??_EToYca@RgbaOutputFile@Imf@@UEAAPEAXI@Z 00000001801e4f10 f i OpenExr:ImfRgbaFile.obj
 0001:001e3f60       ?_Alloc_proxy@?$_Tree_alloc@$0A@U?$_Tree_base_types@U?$pair@$$CBVName@Imf@@USlice@2@@std@@V?$allocator@U?$pair@$$CBVName@Imf@@USlice@2@@std@@@2@@std@@@std@@QEAAXXZ 00000001801e4f60 f i OpenExr:ImfRgbaFile.obj
 0001:001e4000       ?_Buyheadnode@?$_Tree_alloc@$0A@U?$_Tree_base_types@U?$pair@$$CBVName@Imf@@USlice@2@@std@@V?$allocator@U?$pair@$$CBVName@Imf@@USlice@2@@std@@@2@@std@@@std@@QEAAPEAU?$_Tree_node@U?$pair@$$CBVName@Imf@@USlice@2@@std@@PEAX@2@XZ 00000001801e5000 f i OpenExr:ImfRgbaFile.obj
 0001:001e4160       ?_Color@?$_Tree_val@U?$_Tree_simple_types@U?$pair@$$CBVName@Imf@@USlice@2@@std@@@std@@@std@@SAAEADPEAU?$_Tree_node@U?$pair@$$CBVName@Imf@@USlice@2@@std@@PEAX@2@@Z 00000001801e5160 f i OpenExr:ImfRgbaFile.obj
 0001:001e4180       ?_Erase@?$_Tree@V?$_Tmap_traits@VName@Imf@@USlice@2@U?$less@VName@Imf@@@std@@V?$allocator@U?$pair@$$CBVName@Imf@@USlice@2@@std@@@5@$0A@@std@@@std@@IEAAXPEAU?$_Tree_node@U?$pair@$$CBVName@Imf@@USlice@2@@std@@PEAX@2@@Z 00000001801e5180 f i OpenExr:ImfRgbaFile.obj
 0001:001e4260       ?_Free_proxy@?$_Tree_alloc@$0A@U?$_Tree_base_types@U?$pair@$$CBVName@Imf@@USlice@2@@std@@V?$allocator@U?$pair@$$CBVName@Imf@@USlice@2@@std@@@2@@std@@@std@@QEAAXXZ 00000001801e5260 f i OpenExr:ImfRgbaFile.obj
 0001:001e42f0       ?_Freeheadnode@?$_Tree_alloc@$0A@U?$_Tree_base_types@U?$pair@$$CBVName@Imf@@USlice@2@@std@@V?$allocator@U?$pair@$$CBVName@Imf@@USlice@2@@std@@@2@@std@@@std@@QEAAXPEAU?$_Tree_node@U?$pair@$$CBVName@Imf@@USlice@2@@std@@PEAX@2@@Z 00000001801e52f0 f i OpenExr:ImfRgbaFile.obj
 0001:001e43e0       ?_Getal@?$_Tree_alloc@$0A@U?$_Tree_base_types@U?$pair@$$CBVName@Imf@@USlice@2@@std@@V?$allocator@U?$pair@$$CBVName@Imf@@USlice@2@@std@@@2@@std@@@std@@QEBA?AU?$_Wrap_alloc@V?$allocator@U?$_Tree_node@U?$pair@$$CBVName@Imf@@USlice@2@@std@@PEAX@std@@@std@@@2@XZ 00000001801e53e0 f i OpenExr:ImfRgbaFile.obj
 0001:001e4420       ?_Isnil@?$_Tree_val@U?$_Tree_simple_types@U?$pair@$$CBVName@Imf@@USlice@2@@std@@@std@@@std@@SAAEADPEAU?$_Tree_node@U?$pair@$$CBVName@Imf@@USlice@2@@std@@PEAX@2@@Z 00000001801e5420 f i OpenExr:ImfRgbaFile.obj
 0001:001e4440       ?_Left@?$_Tree_val@U?$_Tree_simple_types@U?$pair@$$CBVName@Imf@@USlice@2@@std@@@std@@@std@@SAAEAPEAU?$_Tree_node@U?$pair@$$CBVName@Imf@@USlice@2@@std@@PEAX@2@PEAU32@@Z 00000001801e5440 f i OpenExr:ImfRgbaFile.obj
 0001:001e4450       ?_Lmost@?$_Tree@V?$_Tmap_traits@VName@Imf@@USlice@2@U?$less@VName@Imf@@@std@@V?$allocator@U?$pair@$$CBVName@Imf@@USlice@2@@std@@@5@$0A@@std@@@std@@IEBAAEAPEAU?$_Tree_node@U?$pair@$$CBVName@Imf@@USlice@2@@std@@PEAX@2@XZ 00000001801e5450 f i OpenExr:ImfRgbaFile.obj
 0001:001e4490       ?_Lrotate@?$_Tree@V?$_Tmap_traits@VName@Imf@@USlice@2@U?$less@VName@Imf@@@std@@V?$allocator@U?$pair@$$CBVName@Imf@@USlice@2@@std@@@5@$0A@@std@@@std@@IEAAXPEAU?$_Tree_node@U?$pair@$$CBVName@Imf@@USlice@2@@std@@PEAX@2@@Z 00000001801e5490 f i OpenExr:ImfRgbaFile.obj
 0001:001e45f0       ?_Max@?$_Tree_val@U?$_Tree_simple_types@U?$pair@$$CBVName@Imf@@USlice@2@@std@@@std@@@std@@SAPEAU?$_Tree_node@U?$pair@$$CBVName@Imf@@USlice@2@@std@@PEAX@2@PEAU32@@Z 00000001801e55f0 f i OpenExr:ImfRgbaFile.obj
 0001:001e4650       ?_Min@?$_Tree_val@U?$_Tree_simple_types@U?$pair@$$CBVName@Imf@@USlice@2@@std@@@std@@@std@@SAPEAU?$_Tree_node@U?$pair@$$CBVName@Imf@@USlice@2@@std@@PEAX@2@PEAU32@@Z 00000001801e5650 f i OpenExr:ImfRgbaFile.obj
 0001:001e46b0       ?_Mynode@?$_Tree_unchecked_const_iterator@V?$_Tree_val@U?$_Tree_simple_types@U?$pair@$$CBVName@Imf@@USlice@2@@std@@@std@@@std@@U_Iterator_base12@2@@std@@QEBAPEAU?$_Tree_node@U?$pair@$$CBVName@Imf@@USlice@2@@std@@PEAX@2@XZ 00000001801e56b0 f i OpenExr:ImfRgbaFile.obj
 0001:001e46d0       ?_Myval@?$_Tree_val@U?$_Tree_simple_types@U?$pair@$$CBVName@Imf@@USlice@2@@std@@@std@@@std@@SAAEAU?$pair@$$CBVName@Imf@@USlice@2@@2@PEAU?$_Tree_node@U?$pair@$$CBVName@Imf@@USlice@2@@std@@PEAX@2@@Z 00000001801e56d0 f i OpenExr:ImfRgbaFile.obj
 0001:001e46f0       ?_Orphan_ptr@?$_Tree@V?$_Tmap_traits@VName@Imf@@USlice@2@U?$less@VName@Imf@@@std@@V?$allocator@U?$pair@$$CBVName@Imf@@USlice@2@@std@@@5@$0A@@std@@@std@@IEBAXAEAV12@PEAU?$_Tree_node@U?$pair@$$CBVName@Imf@@USlice@2@@std@@PEAX@2@@Z 00000001801e56f0 f i OpenExr:ImfRgbaFile.obj
 0001:001e47f0       ?_Parent@?$_Tree_val@U?$_Tree_simple_types@U?$pair@$$CBVName@Imf@@USlice@2@@std@@@std@@@std@@SAAEAPEAU?$_Tree_node@U?$pair@$$CBVName@Imf@@USlice@2@@std@@PEAX@2@PEAU32@@Z 00000001801e57f0 f i OpenExr:ImfRgbaFile.obj
 0001:001e4810       ?_Right@?$_Tree_val@U?$_Tree_simple_types@U?$pair@$$CBVName@Imf@@USlice@2@@std@@@std@@@std@@SAAEAPEAU?$_Tree_node@U?$pair@$$CBVName@Imf@@USlice@2@@std@@PEAX@2@PEAU32@@Z 00000001801e5810 f i OpenExr:ImfRgbaFile.obj
 0001:001e4830       ?_Rmost@?$_Tree@V?$_Tmap_traits@VName@Imf@@USlice@2@U?$less@VName@Imf@@@std@@V?$allocator@U?$pair@$$CBVName@Imf@@USlice@2@@std@@@5@$0A@@std@@@std@@IEBAAEAPEAU?$_Tree_node@U?$pair@$$CBVName@Imf@@USlice@2@@std@@PEAX@2@XZ 00000001801e5830 f i OpenExr:ImfRgbaFile.obj
 0001:001e4870       ?_Root@?$_Tree@V?$_Tmap_traits@VName@Imf@@USlice@2@U?$less@VName@Imf@@@std@@V?$allocator@U?$pair@$$CBVName@Imf@@USlice@2@@std@@@5@$0A@@std@@@std@@IEBAAEAPEAU?$_Tree_node@U?$pair@$$CBVName@Imf@@USlice@2@@std@@PEAX@2@XZ 00000001801e5870 f i OpenExr:ImfRgbaFile.obj
 0001:001e48b0       ?_Rrotate@?$_Tree@V?$_Tmap_traits@VName@Imf@@USlice@2@U?$less@VName@Imf@@@std@@V?$allocator@U?$pair@$$CBVName@Imf@@USlice@2@@std@@@5@$0A@@std@@@std@@IEAAXPEAU?$_Tree_node@U?$pair@$$CBVName@Imf@@USlice@2@@std@@PEAX@2@@Z 00000001801e58b0 f i OpenExr:ImfRgbaFile.obj
 0001:001e4a10       ?_Tidy@?$_Tree@V?$_Tmap_traits@VName@Imf@@USlice@2@U?$less@VName@Imf@@@std@@V?$allocator@U?$pair@$$CBVName@Imf@@USlice@2@@std@@@5@$0A@@std@@@std@@IEAAXXZ 00000001801e5a10 f i OpenExr:ImfRgbaFile.obj
 0001:001e4b40       ?allocate@?$_Wrap_alloc@V?$allocator@U?$_Tree_node@U?$pair@$$CBVName@Imf@@USlice@2@@std@@PEAX@std@@@std@@@std@@QEAAPEAU?$_Tree_node@U?$pair@$$CBVName@Imf@@USlice@2@@std@@PEAX@2@_K@Z 00000001801e5b40 f i OpenExr:ImfRgbaFile.obj
 0001:001e4b80       ?allocate@?$allocator@U?$_Tree_node@U?$pair@$$CBVName@Imf@@USlice@2@@std@@PEAX@std@@@std@@QEAAPEAU?$_Tree_node@U?$pair@$$CBVName@Imf@@USlice@2@@std@@PEAX@2@_K@Z 00000001801e5b80 f i OpenExr:ImfRgbaFile.obj
 0001:001e4bc0       ?begin@?$_Tree@V?$_Tmap_traits@VName@Imf@@USlice@2@U?$less@VName@Imf@@@std@@V?$allocator@U?$pair@$$CBVName@Imf@@USlice@2@@std@@@5@$0A@@std@@@std@@QEAA?AV?$_Tree_iterator@V?$_Tree_val@U?$_Tree_simple_types@U?$pair@$$CBVName@Imf@@USlice@2@@std@@@std@@@std@@@2@XZ 00000001801e5bc0 f i OpenExr:ImfRgbaFile.obj
 0001:001e4c10       ?clear@?$_Tree@V?$_Tmap_traits@VName@Imf@@USlice@2@U?$less@VName@Imf@@@std@@V?$allocator@U?$pair@$$CBVName@Imf@@USlice@2@@std@@@5@$0A@@std@@@std@@QEAAXXZ 00000001801e5c10 f i OpenExr:ImfRgbaFile.obj
 0001:001e4cb0       ?compare@?$basic_string@DU?$char_traits@D@std@@V?$allocator@D@2@@std@@QEBAHAEBV12@@Z 00000001801e5cb0 f i OpenExr:ImfRgbaFile.obj
 0001:001e4d20       ?deallocate@?$_Wrap_alloc@V?$allocator@U?$_Tree_node@U?$pair@$$CBVName@Imf@@USlice@2@@std@@PEAX@std@@@std@@@std@@QEAAXPEAU?$_Tree_node@U?$pair@$$CBVName@Imf@@USlice@2@@std@@PEAX@2@_K@Z 00000001801e5d20 f i OpenExr:ImfRgbaFile.obj
 0001:001e4d70       ?deallocate@?$allocator@U?$_Tree_node@U?$pair@$$CBVName@Imf@@USlice@2@@std@@PEAX@std@@@std@@QEAAXPEAU?$_Tree_node@U?$pair@$$CBVName@Imf@@USlice@2@@std@@PEAX@2@_K@Z 00000001801e5d70 f i OpenExr:ImfRgbaFile.obj
 0001:001e4db0       ?divp@Imath@@YAHHH@Z       00000001801e5db0 f i OpenExr:ImfRgbaFile.obj
 0001:001e4e60       ?empty@?$basic_string@DU?$char_traits@D@std@@V?$allocator@D@2@@std@@QEBA_NXZ 00000001801e5e60 f i OpenExr:ImfRgbaFile.obj
 0001:001e4eb0       ?end@?$_Tree@V?$_Tmap_traits@VName@Imf@@USlice@2@U?$less@VName@Imf@@@std@@V?$allocator@U?$pair@$$CBVName@Imf@@USlice@2@@std@@@5@$0A@@std@@@std@@QEAA?AV?$_Tree_iterator@V?$_Tree_val@U?$_Tree_simple_types@U?$pair@$$CBVName@Imf@@USlice@2@@std@@@std@@@std@@@2@XZ 00000001801e5eb0 f i OpenExr:ImfRgbaFile.obj
 0001:001e4f00       ?erase@?$_Tree@V?$_Tmap_traits@VName@Imf@@USlice@2@U?$less@VName@Imf@@@std@@V?$allocator@U?$pair@$$CBVName@Imf@@USlice@2@@std@@@5@$0A@@std@@@std@@QEAA?AV?$_Tree_iterator@V?$_Tree_val@U?$_Tree_simple_types@U?$pair@$$CBVName@Imf@@USlice@2@@std@@@std@@@std@@@2@V?$_Tree_const_iterator@V?$_Tree_val@U?$_Tree_simple_types@U?$pair@$$CBVName@Imf@@USlice@2@@std@@@std@@@std@@@2@0@Z 00000001801e5f00 f i OpenExr:ImfRgbaFile.obj
 0001:001e51b0       ?erase@?$_Tree@V?$_Tmap_traits@VName@Imf@@USlice@2@U?$less@VName@Imf@@@std@@V?$allocator@U?$pair@$$CBVName@Imf@@USlice@2@@std@@@5@$0A@@std@@@std@@QEAA?AV?$_Tree_iterator@V?$_Tree_val@U?$_Tree_simple_types@U?$pair@$$CBVName@Imf@@USlice@2@@std@@@std@@@std@@@2@V?$_Tree_const_iterator@V?$_Tree_val@U?$_Tree_simple_types@U?$pair@$$CBVName@Imf@@USlice@2@@std@@@std@@@std@@@2@@Z 00000001801e61b0 f i OpenExr:ImfRgbaFile.obj
 0001:001e5aa0       ?isEmpty@?$Box@V?$Vec2@H@Imath@@@Imath@@QEBA_NXZ 00000001801e6aa0 f i OpenExr:ImfRgbaFile.obj
 0001:001e5b30       ?modp@Imath@@YAHHH@Z       00000001801e6b30 f i OpenExr:ImfRgbaFile.obj
 0001:001e5b80       ??0StdIFStream@Imf@@QEAA@QEBD@Z 00000001801e6b80 f   OpenExr:ImfStdIO.obj
 0001:001e5d10       ??0StdIFStream@Imf@@QEAA@AEAV?$basic_ifstream@DU?$char_traits@D@std@@@std@@QEBD@Z 00000001801e6d10 f   OpenExr:ImfStdIO.obj
 0001:001e5d80       ??1StdIFStream@Imf@@UEAA@XZ 00000001801e6d80 f   OpenExr:ImfStdIO.obj
 0001:001e5e40       ?read@StdIFStream@Imf@@UEAA_NQEADH@Z 00000001801e6e40 f   OpenExr:ImfStdIO.obj
 0001:001e5f50       ?tellg@StdIFStream@Imf@@UEAA_KXZ 00000001801e6f50 f   OpenExr:ImfStdIO.obj
 0001:001e5fa0       ?seekg@StdIFStream@Imf@@UEAAX_K@Z 00000001801e6fa0 f   OpenExr:ImfStdIO.obj
 0001:001e6030       ?clear@StdIFStream@Imf@@UEAAXXZ 00000001801e7030 f   OpenExr:ImfStdIO.obj
 0001:001e6090       ??0StdOFStream@Imf@@QEAA@QEBD@Z 00000001801e7090 f   OpenExr:ImfStdIO.obj
 0001:001e6220       ??0StdOFStream@Imf@@QEAA@AEAV?$basic_ofstream@DU?$char_traits@D@std@@@std@@QEBD@Z 00000001801e7220 f   OpenExr:ImfStdIO.obj
 0001:001e6290       ??1StdOFStream@Imf@@UEAA@XZ 00000001801e7290 f   OpenExr:ImfStdIO.obj
 0001:001e6350       ?write@StdOFStream@Imf@@UEAAXQEBDH@Z 00000001801e7350 f   OpenExr:ImfStdIO.obj
 0001:001e63c0       ?tellp@StdOFStream@Imf@@UEAA_KXZ 00000001801e73c0 f   OpenExr:ImfStdIO.obj
 0001:001e6410       ?seekp@StdOFStream@Imf@@UEAAX_K@Z 00000001801e7410 f   OpenExr:ImfStdIO.obj
 0001:001e64a0       ??0StdOSStream@Imf@@QEAA@XZ 00000001801e74a0 f   OpenExr:ImfStdIO.obj
 0001:001e6520       ?write@StdOSStream@Imf@@UEAAXQEBDH@Z 00000001801e7520 f   OpenExr:ImfStdIO.obj
 0001:001e6590       ?tellp@StdOSStream@Imf@@UEAA_KXZ 00000001801e7590 f   OpenExr:ImfStdIO.obj
 0001:001e65e0       ?seekp@StdOSStream@Imf@@UEAAX_K@Z 00000001801e75e0 f   OpenExr:ImfStdIO.obj
 0001:001e6670       ?clearError@?A0x4821f318@Imf@@YAXXZ 00000001801e7670 f   OpenExr:ImfStdIO.obj
 0001:001e66a0       ?checkError@?A0x4821f318@Imf@@YA_NAEAV?$basic_istream@DU?$char_traits@D@std@@@std@@_J@Z 00000001801e76a0 f   OpenExr:ImfStdIO.obj
 0001:001e6870       ?checkError@?A0x4821f318@Imf@@YAXAEAV?$basic_ostream@DU?$char_traits@D@std@@@std@@@Z 00000001801e7870 f   OpenExr:ImfStdIO.obj
 0001:001e6920       ??$_DebugHeapDelete@V_Facet_base@std@@@std@@YAXPEAV_Facet_base@0@@Z 00000001801e7920 f i OpenExr:ImfStdIO.obj
 0001:001e6970       ??$_Fgetc@D@std@@YA_NAEADPEAU_iobuf@@@Z 00000001801e7970 f i OpenExr:ImfStdIO.obj
 0001:001e69d0       ??$_Fputc@D@std@@YA_NDPEAU_iobuf@@@Z 00000001801e79d0 f i OpenExr:ImfStdIO.obj
 0001:001e6a30       ??$_Ungetc@D@std@@YA_NAEBDPEAU_iobuf@@@Z 00000001801e7a30 f i OpenExr:ImfStdIO.obj
 0001:001e6a90       ??$use_facet@V?$codecvt@DDH@std@@@std@@YAAEBV?$codecvt@DDH@0@AEBVlocale@0@@Z 00000001801e7a90 f i OpenExr:ImfStdIO.obj
 0001:001e6be0       ??0?$basic_filebuf@DU?$char_traits@D@std@@@std@@QEAA@PEAU_iobuf@@@Z 00000001801e7be0 f i OpenExr:ImfStdIO.obj
 0001:001e6c50       ??0?$basic_ifstream@DU?$char_traits@D@std@@@std@@QEAA@PEBDHH@Z 00000001801e7c50 f i OpenExr:ImfStdIO.obj
 0001:001e6da0       ??0?$basic_ofstream@DU?$char_traits@D@std@@@std@@QEAA@PEBDHH@Z 00000001801e7da0 f i OpenExr:ImfStdIO.obj
 0001:001e6ef0       ??0?$basic_ostringstream@DU?$char_traits@D@std@@V?$allocator@D@2@@std@@QEAA@H@Z 00000001801e7ef0 f i OpenExr:ImfStdIO.obj
 0001:001e6ff0       ??0?$basic_string@DU?$char_traits@D@std@@V?$allocator@D@2@@std@@QEAA@_KD@Z 00000001801e7ff0 f i OpenExr:ImfStdIO.obj
 0001:001e7070       ??0?$fpos@H@std@@QEAA@H_J@Z 00000001801e8070 f i OpenExr:ImfStdIO.obj
 0001:001e70b0       ??0ErrnoExc@Iex@@QEAA@AEBV01@@Z 00000001801e80b0 f i OpenExr:ImfStdIO.obj
 0001:001e7100       ??0ErrnoExc@Iex@@QEAA@PEBD@Z 00000001801e8100 f i OpenExr:ImfStdIO.obj
 0001:001e7150       ??1?$basic_filebuf@DU?$char_traits@D@std@@@std@@UEAA@XZ 00000001801e8150 f i OpenExr:ImfStdIO.obj
 0001:001e71d0       ??1?$basic_ifstream@DU?$char_traits@D@std@@@std@@UEAA@XZ 00000001801e81d0 f i OpenExr:ImfStdIO.obj
 0001:001e7280       ??1?$basic_ofstream@DU?$char_traits@D@std@@@std@@UEAA@XZ 00000001801e8280 f i OpenExr:ImfStdIO.obj
 0001:001e7330       ??1ErrnoExc@Iex@@UEAA@XZ   00000001801e8330 f i OpenExr:ImfStdIO.obj
 0001:001e7370       ??1locale@std@@QEAA@XZ     00000001801e8370 f i OpenExr:ImfStdIO.obj
 0001:001e73c0       ??_D?$basic_ifstream@DU?$char_traits@D@std@@@std@@QEAAXXZ 00000001801e83c0 f i OpenExr:ImfStdIO.obj
 0001:001e7410       ??_D?$basic_ofstream@DU?$char_traits@D@std@@@std@@QEAAXXZ 00000001801e8410 f i OpenExr:ImfStdIO.obj
 0001:001e745c       ??_E?$basic_ifstream@DU?$char_traits@D@std@@@std@@$4PPPPPPPM@A@EAAPEAXI@Z 00000001801e845c f i OpenExr:ImfStdIO.obj
 0001:001e7468       ??_E?$basic_ofstream@DU?$char_traits@D@std@@@std@@$4PPPPPPPM@A@EAAPEAXI@Z 00000001801e8468 f i OpenExr:ImfStdIO.obj
 0001:001e7480       ??_G?$basic_filebuf@DU?$char_traits@D@std@@@std@@UEAAPEAXI@Z 00000001801e8480 f i OpenExr:ImfStdIO.obj
 0001:001e7480       ??_E?$basic_filebuf@DU?$char_traits@D@std@@@std@@UEAAPEAXI@Z 00000001801e8480 f i OpenExr:ImfStdIO.obj
 0001:001e74d0       ??_E?$basic_ifstream@DU?$char_traits@D@std@@@std@@UEAAPEAXI@Z 00000001801e84d0 f i OpenExr:ImfStdIO.obj
 0001:001e74d0       ??_G?$basic_ifstream@DU?$char_traits@D@std@@@std@@UEAAPEAXI@Z 00000001801e84d0 f i OpenExr:ImfStdIO.obj
 0001:001e7540       ??_E?$basic_ofstream@DU?$char_traits@D@std@@@std@@UEAAPEAXI@Z 00000001801e8540 f i OpenExr:ImfStdIO.obj
 0001:001e7540       ??_G?$basic_ofstream@DU?$char_traits@D@std@@@std@@UEAAPEAXI@Z 00000001801e8540 f i OpenExr:ImfStdIO.obj
 0001:001e75b0       ??_EErrnoExc@Iex@@UEAAPEAXI@Z 00000001801e85b0 f i OpenExr:ImfStdIO.obj
 0001:001e75b0       ??_GErrnoExc@Iex@@UEAAPEAXI@Z 00000001801e85b0 f i OpenExr:ImfStdIO.obj
 0001:001e7600       ??_EStdIFStream@Imf@@UEAAPEAXI@Z 00000001801e8600 f i OpenExr:ImfStdIO.obj
 0001:001e7600       ??_GStdIFStream@Imf@@UEAAPEAXI@Z 00000001801e8600 f i OpenExr:ImfStdIO.obj
 0001:001e7650       ??_GStdOFStream@Imf@@UEAAPEAXI@Z 00000001801e8650 f i OpenExr:ImfStdIO.obj
 0001:001e7650       ??_EStdOFStream@Imf@@UEAAPEAXI@Z 00000001801e8650 f i OpenExr:ImfStdIO.obj
 0001:001e76a0       ??_GStdOSStream@Imf@@UEAAPEAXI@Z 00000001801e86a0 f i OpenExr:ImfStdIO.obj
 0001:001e76a0       ??_EStdOSStream@Imf@@UEAAPEAXI@Z 00000001801e86a0 f i OpenExr:ImfStdIO.obj
 0001:001e76f0       ?_Chassign@?$basic_string@DU?$char_traits@D@std@@V?$allocator@D@2@@std@@QEAAX_K0D@Z 00000001801e86f0 f i OpenExr:ImfStdIO.obj
 0001:001e7770       ?_Endwrite@?$basic_filebuf@DU?$char_traits@D@std@@@std@@IEAA_NXZ 00000001801e8770 f i OpenExr:ImfStdIO.obj
 0001:001e7bc0       ?_Getfacet@locale@std@@QEBAPEBVfacet@12@_K@Z 00000001801e8bc0 f i OpenExr:ImfStdIO.obj
 0001:001e7c90       ?_Init@?$basic_filebuf@DU?$char_traits@D@std@@@std@@IEAAXPEAU_iobuf@@W4_Initfl@12@@Z 00000001801e8c90 f i OpenExr:ImfStdIO.obj
 0001:001e7de0       ?_Initcvt@?$basic_filebuf@DU?$char_traits@D@std@@@std@@IEAAXPEBV?$codecvt@DDH@2@@Z 00000001801e8de0 f i OpenExr:ImfStdIO.obj
 0001:001e7e50       ?_Lock@?$basic_filebuf@DU?$char_traits@D@std@@@std@@UEAAXXZ 00000001801e8e50 f i OpenExr:ImfStdIO.obj
 0001:001e7ea0       ?_Reset_back@?$basic_filebuf@DU?$char_traits@D@std@@@std@@AEAAXXZ 00000001801e8ea0 f i OpenExr:ImfStdIO.obj
 0001:001e7f10       ?_Set_back@?$basic_filebuf@DU?$char_traits@D@std@@@std@@AEAAXXZ 00000001801e8f10 f i OpenExr:ImfStdIO.obj
 0001:001e7fb0       ?_Unlock@?$basic_filebuf@DU?$char_traits@D@std@@@std@@UEAAXXZ 00000001801e8fb0 f i OpenExr:ImfStdIO.obj
 0001:001e8000       ?append@?$basic_string@DU?$char_traits@D@std@@V?$allocator@D@2@@std@@QEAAAEAV12@_KD@Z 00000001801e9000 f i OpenExr:ImfStdIO.obj
 0001:001e80c0       ?assign@?$basic_string@DU?$char_traits@D@std@@V?$allocator@D@2@@std@@QEAAAEAV12@_KD@Z 00000001801e90c0 f i OpenExr:ImfStdIO.obj
 0001:001e8150       ?assign@?$char_traits@D@std@@SAPEADPEAD_KD@Z 00000001801e9150 f i OpenExr:ImfStdIO.obj
 0001:001e81a0       ?close@?$basic_filebuf@DU?$char_traits@D@std@@@std@@QEAAPEAV12@XZ 00000001801e91a0 f i OpenExr:ImfStdIO.obj
 0001:001e8240       ?imbue@?$basic_filebuf@DU?$char_traits@D@std@@@std@@MEAAXAEBVlocale@2@@Z 00000001801e9240 f i OpenExr:ImfStdIO.obj
 0001:001e8280       ?open@?$basic_filebuf@DU?$char_traits@D@std@@@std@@QEAAPEAV12@PEBDHH@Z 00000001801e9280 f i OpenExr:ImfStdIO.obj
 0001:001e8350       ?overflow@?$basic_filebuf@DU?$char_traits@D@std@@@std@@MEAAHH@Z 00000001801e9350 f i OpenExr:ImfStdIO.obj
 0001:001e8940       ?pbackfail@?$basic_filebuf@DU?$char_traits@D@std@@@std@@MEAAHH@Z 00000001801e9940 f i OpenExr:ImfStdIO.obj
 0001:001e8ae0       ?seekoff@?$basic_filebuf@DU?$char_traits@D@std@@@std@@MEAA?AV?$fpos@H@2@_JHH@Z 00000001801e9ae0 f i OpenExr:ImfStdIO.obj
 0001:001e8c20       ?seekpos@?$basic_filebuf@DU?$char_traits@D@std@@@std@@MEAA?AV?$fpos@H@2@V32@H@Z 00000001801e9c20 f i OpenExr:ImfStdIO.obj
 0001:001e8d70       ?seekpos@?$fpos@H@std@@QEBA_JXZ 00000001801e9d70 f i OpenExr:ImfStdIO.obj
 0001:001e8d90       ?setbuf@?$basic_filebuf@DU?$char_traits@D@std@@@std@@MEAAPEAV?$basic_streambuf@DU?$char_traits@D@std@@@2@PEAD_J@Z 00000001801e9d90 f i OpenExr:ImfStdIO.obj
 0001:001e8e40       ?state@?$fpos@H@std@@QEBAHXZ 00000001801e9e40 f i OpenExr:ImfStdIO.obj
 0001:001e8e50       ?sync@?$basic_filebuf@DU?$char_traits@D@std@@@std@@MEAAHXZ 00000001801e9e50 f i OpenExr:ImfStdIO.obj
 0001:001e8f00       ?uflow@?$basic_filebuf@DU?$char_traits@D@std@@@std@@MEAAHXZ 00000001801e9f00 f i OpenExr:ImfStdIO.obj
 0001:001e9460       ?underflow@?$basic_filebuf@DU?$char_traits@D@std@@@std@@MEAAHXZ 00000001801ea460 f i OpenExr:ImfStdIO.obj
 0001:001e9540       ??0Compressor@Imf@@QEAA@AEBVHeader@1@@Z 00000001801ea540 f   OpenExr:ImfCompressor.obj
 0001:001e9580       ??1Compressor@Imf@@UEAA@XZ 00000001801ea580 f   OpenExr:ImfCompressor.obj
 0001:001e95a0       ?format@Compressor@Imf@@UEBA?AW4Format@12@XZ 00000001801ea5a0 f   OpenExr:ImfCompressor.obj
 0001:001e95c0       ?compressTile@Compressor@Imf@@UEAAHPEBDHV?$Box@V?$Vec2@H@Imath@@@Imath@@AEAPEBD@Z 00000001801ea5c0 f   OpenExr:ImfCompressor.obj
 0001:001e9630       ?uncompressTile@Compressor@Imf@@UEAAHPEBDHV?$Box@V?$Vec2@H@Imath@@@Imath@@AEAPEBD@Z 00000001801ea630 f   OpenExr:ImfCompressor.obj
 0001:001e96a0       ?isValidCompression@Imf@@YA_NW4Compression@1@@Z 00000001801ea6a0 f   OpenExr:ImfCompressor.obj
 0001:001e96f0       ?isValidDeepCompression@Imf@@YA_NW4Compression@1@@Z 00000001801ea6f0 f   OpenExr:ImfCompressor.obj
 0001:001e9740       ?newCompressor@Imf@@YAPEAVCompressor@1@W4Compression@1@_KAEBVHeader@1@@Z 00000001801ea740 f   OpenExr:ImfCompressor.obj
 0001:001e9bd0       ?newTileCompressor@Imf@@YAPEAVCompressor@1@W4Compression@1@_K1AEBVHeader@1@@Z 00000001801eabd0 f   OpenExr:ImfCompressor.obj
 0001:001e9f80       ??$uiMult@_K@Imf@@YA_K_K0@Z 00000001801eaf80 f i OpenExr:ImfCompressor.obj
 0001:001ea050       ??0MathExc@Iex@@QEAA@AEBV01@@Z 00000001801eb050 f i OpenExr:ImfCompressor.obj
 0001:001ea0a0       ??0MathExc@Iex@@QEAA@PEBD@Z 00000001801eb0a0 f i OpenExr:ImfCompressor.obj
 0001:001ea0f0       ??0OverflowExc@Iex@@QEAA@AEBV01@@Z 00000001801eb0f0 f i OpenExr:ImfCompressor.obj
 0001:001ea140       ??0OverflowExc@Iex@@QEAA@PEBD@Z 00000001801eb140 f i OpenExr:ImfCompressor.obj
 0001:001ea190       ??1MathExc@Iex@@UEAA@XZ    00000001801eb190 f i OpenExr:ImfCompressor.obj
 0001:001ea1d0       ??1OverflowExc@Iex@@UEAA@XZ 00000001801eb1d0 f i OpenExr:ImfCompressor.obj
 0001:001ea210       ??_ECompressor@Imf@@UEAAPEAXI@Z 00000001801eb210 f i OpenExr:ImfCompressor.obj
 0001:001ea210       ??_GCompressor@Imf@@UEAAPEAXI@Z 00000001801eb210 f i OpenExr:ImfCompressor.obj
 0001:001ea260       ??_GMathExc@Iex@@UEAAPEAXI@Z 00000001801eb260 f i OpenExr:ImfCompressor.obj
 0001:001ea260       ??_EMathExc@Iex@@UEAAPEAXI@Z 00000001801eb260 f i OpenExr:ImfCompressor.obj
 0001:001ea2b0       ??_EOverflowExc@Iex@@UEAAPEAXI@Z 00000001801eb2b0 f i OpenExr:ImfCompressor.obj
 0001:001ea2b0       ??_GOverflowExc@Iex@@UEAAPEAXI@Z 00000001801eb2b0 f i OpenExr:ImfCompressor.obj
 0001:001ea300       ?max@?$numeric_limits@_K@std@@SA_KXZ 00000001801eb300 f i OpenExr:ImfCompressor.obj
 0001:001ea310       ??0Attribute@Imf@@QEAA@XZ  00000001801eb310 f   OpenExr:ImfAttribute.obj
 0001:001ea340       ??1Attribute@Imf@@UEAA@XZ  00000001801eb340 f   OpenExr:ImfAttribute.obj
 0001:001ea360       ?newAttribute@Attribute@Imf@@SAPEAV12@QEBD@Z 00000001801eb360 f   OpenExr:ImfAttribute.obj
 0001:001ea5a0       ?knownType@Attribute@Imf@@SA_NQEBD@Z 00000001801eb5a0 f   OpenExr:ImfAttribute.obj
 0001:001ea6b0       ?registerAttributeType@Attribute@Imf@@KAXQEBDP6APEAV12@XZ@Z 00000001801eb6b0 f   OpenExr:ImfAttribute.obj
 0001:001ea8f0       ?unRegisterAttributeType@Attribute@Imf@@KAXQEBD@Z 00000001801eb8f0 f   OpenExr:ImfAttribute.obj
 0001:001ea970       ?typeMap@?A0xd430efe7@Imf@@YAAEAVLockedTypeMap@12@XZ 00000001801eb970 f   OpenExr:ImfAttribute.obj
 0001:001eaa60       ??$?0AEAQEBDAEAP6APEAVAttribute@Imf@@XZX@?$pair@QEBDP6APEAVAttribute@Imf@@XZ@std@@QEAA@AEAQEBDAEAP6APEAVAttribute@Imf@@XZ@Z 00000001801eba60 f i OpenExr:ImfAttribute.obj
 0001:001eaac0       ??$?0AEAV?$_Tree_iterator@V?$_Tree_val@U?$_Tree_simple_types@U?$pair@QEBDP6APEAVAttribute@Imf@@XZ@std@@@std@@@std@@@std@@AEAV01@X@?$pair@V?$_Tree_iterator@V?$_Tree_val@U?$_Tree_simple_types@U?$pair@QEBDP6APEAVAttribute@Imf@@XZ@std@@@std@@@std@@@std@@V12@@std@@QEAA@AEAV?$_Tree_iterator@V?$_Tree_val@U?$_Tree_simple_types@U?$pair@QEBDP6APEAVAttribute@Imf@@XZ@std@@@std@@@std@@@1@0@Z 00000001801ebac0 f i OpenExr:ImfAttribute.obj
 0001:001eab30       ??$?0AEAV?$_Tree_iterator@V?$_Tree_val@U?$_Tree_simple_types@U?$pair@QEBDP6APEAVAttribute@Imf@@XZ@std@@@std@@@std@@@std@@_NX@?$pair@V?$_Tree_iterator@V?$_Tree_val@U?$_Tree_simple_types@U?$pair@QEBDP6APEAVAttribute@Imf@@XZ@std@@@std@@@std@@@std@@_N@std@@QEAA@AEAV?$_Tree_iterator@V?$_Tree_val@U?$_Tree_simple_types@U?$pair@QEBDP6APEAVAttribute@Imf@@XZ@std@@@std@@@std@@@1@$$QEA_N@Z 00000001801ebb30 f i OpenExr:ImfAttribute.obj
 0001:001eaba0       ??$?0QEBDP6APEAVAttribute@Imf@@XZX@?$pair@QEBDP6APEAVAttribute@Imf@@XZ@std@@QEAA@$$QEAU01@@Z 00000001801ebba0 f i OpenExr:ImfAttribute.obj
 0001:001eac10       ??$?0U?$_Tree_node@U?$pair@QEBDP6APEAVAttribute@Imf@@XZ@std@@PEAX@std@@@?$allocator@U_Container_proxy@std@@@std@@QEAA@AEBV?$allocator@U?$_Tree_node@U?$pair@QEBDP6APEAVAttribute@Imf@@XZ@std@@PEAX@std@@@1@@Z 00000001801ebc10 f i OpenExr:ImfAttribute.obj
 0001:001eac30       ??$?0U?$_Wrap_alloc@V?$allocator@U?$_Tree_node@U?$pair@QEBDP6APEAVAttribute@Imf@@XZ@std@@PEAX@std@@@std@@@std@@@?$_Wrap_alloc@V?$allocator@U_Container_proxy@std@@@std@@@std@@QEAA@AEBU?$_Wrap_alloc@V?$allocator@U?$_Tree_node@U?$pair@QEBDP6APEAVAttribute@Imf@@XZ@std@@PEAX@std@@@std@@@1@@Z 00000001801ebc30 f i OpenExr:ImfAttribute.obj
 0001:001eac70       ??$?0V?$_Tree_iterator@V?$_Tree_val@U?$_Tree_simple_types@U?$pair@QEBDP6APEAVAttribute@Imf@@XZ@std@@@std@@@std@@@std@@_NX@?$pair@V?$_Tree_iterator@V?$_Tree_val@U?$_Tree_simple_types@U?$pair@QEBDP6APEAVAttribute@Imf@@XZ@std@@@std@@@std@@@std@@_N@std@@QEAA@$$QEAV?$_Tree_iterator@V?$_Tree_val@U?$_Tree_simple_types@U?$pair@QEBDP6APEAVAttribute@Imf@@XZ@std@@@std@@@std@@@1@$$QEA_N@Z 00000001801ebc70 f i OpenExr:ImfAttribute.obj
 0001:001eace0       ??$_Allocate@U?$_Tree_node@U?$pair@QEBDP6APEAVAttribute@Imf@@XZ@std@@PEAX@std@@@std@@YAPEAU?$_Tree_node@U?$pair@QEBDP6APEAVAttribute@Imf@@XZ@std@@PEAX@0@_KPEAU10@@Z 00000001801ebce0 f i OpenExr:ImfAttribute.obj
 0001:001ead60       ??$_Buynode@U?$pair@QEBDP6APEAVAttribute@Imf@@XZ@std@@@?$_Tree_buy@U?$pair@QEBDP6APEAVAttribute@Imf@@XZ@std@@V?$allocator@U?$pair@QEBDP6APEAVAttribute@Imf@@XZ@std@@@2@@std@@QEAAPEAU?$_Tree_node@U?$pair@QEBDP6APEAVAttribute@Imf@@XZ@std@@PEAX@1@$$QEAU?$pair@QEBDP6APEAVAttribute@Imf@@XZ@1@@Z 00000001801ebd60 f i OpenExr:ImfAttribute.obj
 0001:001eae20       ??$_Buynode_if_nil@U?$pair@QEBDP6APEAVAttribute@Imf@@XZ@std@@@?$_Tree@V?$_Tmap_traits@PEBDP6APEAVAttribute@Imf@@XZUNameCompare@?A0xd430efe7@2@V?$allocator@U?$pair@QEBDP6APEAVAttribute@Imf@@XZ@std@@@std@@$0A@@std@@@std@@IEAAPEAU?$_Tree_node@U?$pair@QEBDP6APEAVAttribute@Imf@@XZ@std@@PEAX@1@U_Nil@1@$$QEAU?$pair@QEBDP6APEAVAttribute@Imf@@XZ@1@@Z 00000001801ebe20 f i OpenExr:ImfAttribute.obj
 0001:001eae70       ??$_Debug_lt_pred@UNameCompare@?A0xd430efe7@Imf@@AEBQEBDAEBQEBD@std@@YA_NUNameCompare@?A0xd430efe7@Imf@@AEBQEBD1PEB_WI@Z 00000001801ebe70 f i OpenExr:ImfAttribute.obj
 0001:001eaf30       ??$_Distance2@V?$_Tree_iterator@V?$_Tree_val@U?$_Tree_simple_types@U?$pair@QEBDP6APEAVAttribute@Imf@@XZ@std@@@std@@@std@@@std@@_K@std@@YAXV?$_Tree_iterator@V?$_Tree_val@U?$_Tree_simple_types@U?$pair@QEBDP6APEAVAttribute@Imf@@XZ@std@@@std@@@std@@@0@0AEA_KUbidirectional_iterator_tag@0@@Z 00000001801ebf30 f i OpenExr:ImfAttribute.obj
 0001:001eafc0       ??$_Distance@V?$_Tree_iterator@V?$_Tree_val@U?$_Tree_simple_types@U?$pair@QEBDP6APEAVAttribute@Imf@@XZ@std@@@std@@@std@@@std@@_K@std@@YAXV?$_Tree_iterator@V?$_Tree_val@U?$_Tree_simple_types@U?$pair@QEBDP6APEAVAttribute@Imf@@XZ@std@@@std@@@std@@@0@0AEA_K@Z 00000001801ebfc0 f i OpenExr:ImfAttribute.obj
 0001:001eb0b0       ??$_Insert_at@U?$pair@QEBDP6APEAVAttribute@Imf@@XZ@std@@U_Nil@2@@?$_Tree@V?$_Tmap_traits@PEBDP6APEAVAttribute@Imf@@XZUNameCompare@?A0xd430efe7@2@V?$allocator@U?$pair@QEBDP6APEAVAttribute@Imf@@XZ@std@@@std@@$0A@@std@@@std@@IEAA?AV?$_Tree_iterator@V?$_Tree_val@U?$_Tree_simple_types@U?$pair@QEBDP6APEAVAttribute@Imf@@XZ@std@@@std@@@std@@@1@_NPEAU?$_Tree_node@U?$pair@QEBDP6APEAVAttribute@Imf@@XZ@std@@PEAX@1@$$QEAU?$pair@QEBDP6APEAVAttribute@Imf@@XZ@1@U_Nil@1@@Z 00000001801ec0b0 f i OpenExr:ImfAttribute.obj
 0001:001eb510       ??$_Insert_nohint@U?$pair@QEBDP6APEAVAttribute@Imf@@XZ@std@@U_Nil@2@@?$_Tree@V?$_Tmap_traits@PEBDP6APEAVAttribute@Imf@@XZUNameCompare@?A0xd430efe7@2@V?$allocator@U?$pair@QEBDP6APEAVAttribute@Imf@@XZ@std@@@std@@$0A@@std@@@std@@IEAA?AU?$pair@V?$_Tree_iterator@V?$_Tree_val@U?$_Tree_simple_types@U?$pair@QEBDP6APEAVAttribute@Imf@@XZ@std@@@std@@@std@@@std@@_N@1@_N$$QEAU?$pair@QEBDP6APEAVAttribute@Imf@@XZ@1@U_Nil@1@@Z 00000001801ec510 f i OpenExr:ImfAttribute.obj
 0001:001ebbb0       ??$_Iter_cat@V?$_Tree_iterator@V?$_Tree_val@U?$_Tree_simple_types@U?$pair@QEBDP6APEAVAttribute@Imf@@XZ@std@@@std@@@std@@@std@@@std@@YA?AUbidirectional_iterator_tag@0@AEBV?$_Tree_iterator@V?$_Tree_val@U?$_Tree_simple_types@U?$pair@QEBDP6APEAVAttribute@Imf@@XZ@std@@@std@@@std@@@0@@Z 00000001801ecbb0 f i OpenExr:ImfAttribute.obj
 0001:001ebc00       ??$_Kfn@QEBDP6APEAVAttribute@Imf@@XZ@?$_Tmap_traits@PEBDP6APEAVAttribute@Imf@@XZUNameCompare@?A0xd430efe7@2@V?$allocator@U?$pair@QEBDP6APEAVAttribute@Imf@@XZ@std@@@std@@$0A@@std@@SAAEBQEBDAEBU?$pair@QEBDP6APEAVAttribute@Imf@@XZ@1@@Z 00000001801ecc00 f i OpenExr:ImfAttribute.obj
 0001:001ebc10       ??$addressof@$$CBU?$pair@QEBDP6APEAVAttribute@Imf@@XZ@std@@@std@@YAPEBU?$pair@QEBDP6APEAVAttribute@Imf@@XZ@0@AEBU10@@Z 00000001801ecc10 f i OpenExr:ImfAttribute.obj
 0001:001ebc20       ??$addressof@PEAU?$_Tree_node@U?$pair@QEBDP6APEAVAttribute@Imf@@XZ@std@@PEAX@std@@@std@@YAPEAPEAU?$_Tree_node@U?$pair@QEBDP6APEAVAttribute@Imf@@XZ@std@@PEAX@0@AEAPEAU10@@Z 00000001801ecc20 f i OpenExr:ImfAttribute.obj
 0001:001ebc30       ??$addressof@U?$pair@QEBDP6APEAVAttribute@Imf@@XZ@std@@@std@@YAPEAU?$pair@QEBDP6APEAVAttribute@Imf@@XZ@0@AEAU10@@Z 00000001801ecc30 f i OpenExr:ImfAttribute.obj
 0001:001ebc40       ??$construct@PEAU?$_Tree_node@U?$pair@QEBDP6APEAVAttribute@Imf@@XZ@std@@PEAX@std@@AEAPEAU12@@?$_Wrap_alloc@V?$allocator@U?$_Tree_node@U?$pair@QEBDP6APEAVAttribute@Imf@@XZ@std@@PEAX@std@@@std@@@std@@QEAAXPEAPEAU?$_Tree_node@U?$pair@QEBDP6APEAVAttribute@Imf@@XZ@std@@PEAX@1@AEAPEAU21@@Z 00000001801ecc40 f i OpenExr:ImfAttribute.obj
 0001:001ebc90       ??$construct@PEAU?$_Tree_node@U?$pair@QEBDP6APEAVAttribute@Imf@@XZ@std@@PEAX@std@@AEAPEAU12@@?$allocator@U?$_Tree_node@U?$pair@QEBDP6APEAVAttribute@Imf@@XZ@std@@PEAX@std@@@std@@QEAAXPEAPEAU?$_Tree_node@U?$pair@QEBDP6APEAVAttribute@Imf@@XZ@std@@PEAX@1@AEAPEAU21@@Z 00000001801ecc90 f i OpenExr:ImfAttribute.obj
 0001:001ebd20       ??$construct@PEAU?$_Tree_node@U?$pair@QEBDP6APEAVAttribute@Imf@@XZ@std@@PEAX@std@@AEAPEAU12@@?$allocator_traits@V?$allocator@U?$_Tree_node@U?$pair@QEBDP6APEAVAttribute@Imf@@XZ@std@@PEAX@std@@@std@@@std@@SAXAEAV?$allocator@U?$_Tree_node@U?$pair@QEBDP6APEAVAttribute@Imf@@XZ@std@@PEAX@std@@@1@PEAPEAU?$_Tree_node@U?$pair@QEBDP6APEAVAttribute@Imf@@XZ@std@@PEAX@1@AEAPEAU31@@Z 00000001801ecd20 f i OpenExr:ImfAttribute.obj
 0001:001ebd70       ??$construct@U?$pair@QEBDP6APEAVAttribute@Imf@@XZ@std@@U12@@?$_Wrap_alloc@V?$allocator@U?$_Tree_node@U?$pair@QEBDP6APEAVAttribute@Imf@@XZ@std@@PEAX@std@@@std@@@std@@QEAAXPEAU?$pair@QEBDP6APEAVAttribute@Imf@@XZ@1@$$QEAU21@@Z 00000001801ecd70 f i OpenExr:ImfAttribute.obj
 0001:001ebdc0       ??$construct@U?$pair@QEBDP6APEAVAttribute@Imf@@XZ@std@@U12@@?$allocator@U?$_Tree_node@U?$pair@QEBDP6APEAVAttribute@Imf@@XZ@std@@PEAX@std@@@std@@QEAAXPEAU?$pair@QEBDP6APEAVAttribute@Imf@@XZ@1@$$QEAU21@@Z 00000001801ecdc0 f i OpenExr:ImfAttribute.obj
 0001:001ebe50       ??$construct@U?$pair@QEBDP6APEAVAttribute@Imf@@XZ@std@@U12@@?$allocator_traits@V?$allocator@U?$_Tree_node@U?$pair@QEBDP6APEAVAttribute@Imf@@XZ@std@@PEAX@std@@@std@@@std@@SAXAEAV?$allocator@U?$_Tree_node@U?$pair@QEBDP6APEAVAttribute@Imf@@XZ@std@@PEAX@std@@@1@PEAU?$pair@QEBDP6APEAVAttribute@Imf@@XZ@1@$$QEAU31@@Z 00000001801ece50 f i OpenExr:ImfAttribute.obj
 0001:001ebea0       ??$destroy@PEAU?$_Tree_node@U?$pair@QEBDP6APEAVAttribute@Imf@@XZ@std@@PEAX@std@@@?$_Wrap_alloc@V?$allocator@U?$_Tree_node@U?$pair@QEBDP6APEAVAttribute@Imf@@XZ@std@@PEAX@std@@@std@@@std@@QEAAXPEAPEAU?$_Tree_node@U?$pair@QEBDP6APEAVAttribute@Imf@@XZ@std@@PEAX@1@@Z 00000001801ecea0 f i OpenExr:ImfAttribute.obj
 0001:001ebee0       ??$destroy@PEAU?$_Tree_node@U?$pair@QEBDP6APEAVAttribute@Imf@@XZ@std@@PEAX@std@@@?$allocator@U?$_Tree_node@U?$pair@QEBDP6APEAVAttribute@Imf@@XZ@std@@PEAX@std@@@std@@QEAAXPEAPEAU?$_Tree_node@U?$pair@QEBDP6APEAVAttribute@Imf@@XZ@std@@PEAX@1@@Z 00000001801ecee0 f i OpenExr:ImfAttribute.obj
 0001:001ebef0       ??$destroy@PEAU?$_Tree_node@U?$pair@QEBDP6APEAVAttribute@Imf@@XZ@std@@PEAX@std@@@?$allocator_traits@V?$allocator@U?$_Tree_node@U?$pair@QEBDP6APEAVAttribute@Imf@@XZ@std@@PEAX@std@@@std@@@std@@SAXAEAV?$allocator@U?$_Tree_node@U?$pair@QEBDP6APEAVAttribute@Imf@@XZ@std@@PEAX@std@@@1@PEAPEAU?$_Tree_node@U?$pair@QEBDP6APEAVAttribute@Imf@@XZ@std@@PEAX@1@@Z 00000001801ecef0 f i OpenExr:ImfAttribute.obj
 0001:001ebf30       ??$destroy@U?$pair@QEBDP6APEAVAttribute@Imf@@XZ@std@@@?$_Wrap_alloc@V?$allocator@U?$_Tree_node@U?$pair@QEBDP6APEAVAttribute@Imf@@XZ@std@@PEAX@std@@@std@@@std@@QEAAXPEAU?$pair@QEBDP6APEAVAttribute@Imf@@XZ@1@@Z 00000001801ecf30 f i OpenExr:ImfAttribute.obj
 0001:001ebf70       ??$destroy@U?$pair@QEBDP6APEAVAttribute@Imf@@XZ@std@@@?$allocator@U?$_Tree_node@U?$pair@QEBDP6APEAVAttribute@Imf@@XZ@std@@PEAX@std@@@std@@QEAAXPEAU?$pair@QEBDP6APEAVAttribute@Imf@@XZ@1@@Z 00000001801ecf70 f i OpenExr:ImfAttribute.obj
 0001:001ebf80       ??$destroy@U?$pair@QEBDP6APEAVAttribute@Imf@@XZ@std@@@?$allocator_traits@V?$allocator@U?$_Tree_node@U?$pair@QEBDP6APEAVAttribute@Imf@@XZ@std@@PEAX@std@@@std@@@std@@SAXAEAV?$allocator@U?$_Tree_node@U?$pair@QEBDP6APEAVAttribute@Imf@@XZ@std@@PEAX@std@@@1@PEAU?$pair@QEBDP6APEAVAttribute@Imf@@XZ@1@@Z 00000001801ecf80 f i OpenExr:ImfAttribute.obj
 0001:001ebfc0       ??$forward@AEAP6APEAVAttribute@Imf@@XZ@std@@YAAEAP6APEAVAttribute@Imf@@XZAEAP6APEAV12@XZ@Z 00000001801ecfc0 f i OpenExr:ImfAttribute.obj
 0001:001ebfd0       ??$forward@AEAPEAU?$_Tree_node@U?$pair@QEBDP6APEAVAttribute@Imf@@XZ@std@@PEAX@std@@@std@@YAAEAPEAU?$_Tree_node@U?$pair@QEBDP6APEAVAttribute@Imf@@XZ@std@@PEAX@0@AEAPEAU10@@Z 00000001801ecfd0 f i OpenExr:ImfAttribute.obj
 0001:001ebfe0       ??$forward@AEAQEBD@std@@YAAEAQEBDAEAPEBD@Z 00000001801ecfe0 f i OpenExr:ImfAttribute.obj
 0001:001ebff0       ??$forward@AEAV?$_Tree_iterator@V?$_Tree_val@U?$_Tree_simple_types@U?$pair@QEBDP6APEAVAttribute@Imf@@XZ@std@@@std@@@std@@@std@@@std@@YAAEAV?$_Tree_iterator@V?$_Tree_val@U?$_Tree_simple_types@U?$pair@QEBDP6APEAVAttribute@Imf@@XZ@std@@@std@@@std@@@0@AEAV10@@Z 00000001801ecff0 f i OpenExr:ImfAttribute.obj
 0001:001ec000       ??$forward@AEBQEBD@std@@YAAEBQEBDAEBQEBD@Z 00000001801ed000 f i OpenExr:ImfAttribute.obj
 0001:001ec010       ??$forward@P6APEAVAttribute@Imf@@XZ@std@@YA$$QEAP6APEAVAttribute@Imf@@XZAEAP6APEAV12@XZ@Z 00000001801ed010 f i OpenExr:ImfAttribute.obj
 0001:001ec020       ??$forward@QEBD@std@@YA$$QEBQEBDAEBQEBD@Z 00000001801ed020 f i OpenExr:ImfAttribute.obj
 0001:001ec030       ??$forward@U?$pair@QEBDP6APEAVAttribute@Imf@@XZ@std@@@std@@YA$$QEAU?$pair@QEBDP6APEAVAttribute@Imf@@XZ@0@AEAU10@@Z 00000001801ed030 f i OpenExr:ImfAttribute.obj
 0001:001ec040       ??$forward@V?$_Tree_iterator@V?$_Tree_val@U?$_Tree_simple_types@U?$pair@QEBDP6APEAVAttribute@Imf@@XZ@std@@@std@@@std@@@std@@@std@@YA$$QEAV?$_Tree_iterator@V?$_Tree_val@U?$_Tree_simple_types@U?$pair@QEBDP6APEAVAttribute@Imf@@XZ@std@@@std@@@std@@@0@AEAV10@@Z 00000001801ed040 f i OpenExr:ImfAttribute.obj
 0001:001ec050       ??0?$_Iterator012@Ubidirectional_iterator_tag@std@@U?$pair@QEBDP6APEAVAttribute@Imf@@XZ@2@_JPEBU32@AEBU32@U_Iterator_base12@2@@std@@QEAA@AEBU01@@Z 00000001801ed050 f i OpenExr:ImfAttribute.obj
 0001:001ec090       ??0?$_Iterator012@Ubidirectional_iterator_tag@std@@U?$pair@QEBDP6APEAVAttribute@Imf@@XZ@2@_JPEBU32@AEBU32@U_Iterator_base12@2@@std@@QEAA@XZ 00000001801ed090 f i OpenExr:ImfAttribute.obj
 0001:001ec0d0       ??0?$_Tree@V?$_Tmap_traits@PEBDP6APEAVAttribute@Imf@@XZUNameCompare@?A0xd430efe7@2@V?$allocator@U?$pair@QEBDP6APEAVAttribute@Imf@@XZ@std@@@std@@$0A@@std@@@std@@QEAA@AEBUNameCompare@?A0xd430efe7@Imf@@AEBV?$allocator@U?$pair@QEBDP6APEAVAttribute@Imf@@XZ@std@@@1@@Z 00000001801ed0d0 f i OpenExr:ImfAttribute.obj
 0001:001ec120       ??0?$_Tree_alloc@$0A@U?$_Tree_base_types@U?$pair@QEBDP6APEAVAttribute@Imf@@XZ@std@@V?$allocator@U?$pair@QEBDP6APEAVAttribute@Imf@@XZ@std@@@2@@std@@@std@@QEAA@AEBV?$allocator@U?$pair@QEBDP6APEAVAttribute@Imf@@XZ@std@@@1@@Z 00000001801ed120 f i OpenExr:ImfAttribute.obj
 0001:001ec190       ??0?$_Tree_buy@U?$pair@QEBDP6APEAVAttribute@Imf@@XZ@std@@V?$allocator@U?$pair@QEBDP6APEAVAttribute@Imf@@XZ@std@@@2@@std@@QEAA@AEBV?$allocator@U?$pair@QEBDP6APEAVAttribute@Imf@@XZ@std@@@1@@Z 00000001801ed190 f i OpenExr:ImfAttribute.obj
 0001:001ec1d0       ??0?$_Tree_comp@$0A@V?$_Tmap_traits@PEBDP6APEAVAttribute@Imf@@XZUNameCompare@?A0xd430efe7@2@V?$allocator@U?$pair@QEBDP6APEAVAttribute@Imf@@XZ@std@@@std@@$0A@@std@@@std@@QEAA@AEBUNameCompare@?A0xd430efe7@Imf@@AEBV?$allocator@U?$pair@QEBDP6APEAVAttribute@Imf@@XZ@std@@@1@@Z 00000001801ed1d0 f i OpenExr:ImfAttribute.obj
 0001:001ec220       ??0?$_Tree_const_iterator@V?$_Tree_val@U?$_Tree_simple_types@U?$pair@QEBDP6APEAVAttribute@Imf@@XZ@std@@@std@@@std@@@std@@QEAA@AEBV01@@Z 00000001801ed220 f i OpenExr:ImfAttribute.obj
 0001:001ec260       ??0?$_Tree_const_iterator@V?$_Tree_val@U?$_Tree_simple_types@U?$pair@QEBDP6APEAVAttribute@Imf@@XZ@std@@@std@@@std@@@std@@QEAA@PEAU?$_Tree_node@U?$pair@QEBDP6APEAVAttribute@Imf@@XZ@std@@PEAX@1@PEBV?$_Tree_val@U?$_Tree_simple_types@U?$pair@QEBDP6APEAVAttribute@Imf@@XZ@std@@@std@@@1@@Z 00000001801ed260 f i OpenExr:ImfAttribute.obj
 0001:001ec2b0       ??0?$_Tree_iterator@V?$_Tree_val@U?$_Tree_simple_types@U?$pair@QEBDP6APEAVAttribute@Imf@@XZ@std@@@std@@@std@@@std@@QEAA@AEBV01@@Z 00000001801ed2b0 f i OpenExr:ImfAttribute.obj
 0001:001ec2f0       ??0?$_Tree_iterator@V?$_Tree_val@U?$_Tree_simple_types@U?$pair@QEBDP6APEAVAttribute@Imf@@XZ@std@@@std@@@std@@@std@@QEAA@PEAU?$_Tree_node@U?$pair@QEBDP6APEAVAttribute@Imf@@XZ@std@@PEAX@1@PEBV?$_Tree_val@U?$_Tree_simple_types@U?$pair@QEBDP6APEAVAttribute@Imf@@XZ@std@@@std@@@1@@Z 00000001801ed2f0 f i OpenExr:ImfAttribute.obj
 0001:001ec340       ??0?$_Tree_unchecked_const_iterator@V?$_Tree_val@U?$_Tree_simple_types@U?$pair@QEBDP6APEAVAttribute@Imf@@XZ@std@@@std@@@std@@U_Iterator_base12@2@@std@@QEAA@AEBV01@@Z 00000001801ed340 f i OpenExr:ImfAttribute.obj
 0001:001ec390       ??0?$_Tree_unchecked_const_iterator@V?$_Tree_val@U?$_Tree_simple_types@U?$pair@QEBDP6APEAVAttribute@Imf@@XZ@std@@@std@@@std@@U_Iterator_base12@2@@std@@QEAA@PEAU?$_Tree_node@U?$pair@QEBDP6APEAVAttribute@Imf@@XZ@std@@PEAX@1@PEBV?$_Tree_val@U?$_Tree_simple_types@U?$pair@QEBDP6APEAVAttribute@Imf@@XZ@std@@@std@@@1@@Z 00000001801ed390 f i OpenExr:ImfAttribute.obj
 0001:001ec400       ??0?$_Tree_val@U?$_Tree_simple_types@U?$pair@QEBDP6APEAVAttribute@Imf@@XZ@std@@@std@@@std@@QEAA@XZ 00000001801ed400 f i OpenExr:ImfAttribute.obj
 0001:001ec450       ??0?$_Wrap_alloc@V?$allocator@U?$_Tree_node@U?$pair@QEBDP6APEAVAttribute@Imf@@XZ@std@@PEAX@std@@@std@@@std@@QEAA@XZ 00000001801ed450 f i OpenExr:ImfAttribute.obj
 0001:001ec490       ??0?$allocator@U?$_Tree_node@U?$pair@QEBDP6APEAVAttribute@Imf@@XZ@std@@PEAX@std@@@std@@QEAA@XZ 00000001801ed490 f i OpenExr:ImfAttribute.obj
 0001:001ec4a0       ??0?$allocator@U?$pair@QEBDP6APEAVAttribute@Imf@@XZ@std@@@std@@QEAA@XZ 00000001801ed4a0 f i OpenExr:ImfAttribute.obj
 0001:001ec4b0       ??0?$map@PEBDP6APEAVAttribute@Imf@@XZUNameCompare@?A0xd430efe7@2@V?$allocator@U?$pair@QEBDP6APEAVAttribute@Imf@@XZ@std@@@std@@@std@@QEAA@XZ 00000001801ed4b0 f i OpenExr:ImfAttribute.obj
 0001:001ec500       ??0LockedTypeMap@?A0xd430efe7@Imf@@QEAA@XZ 00000001801ed500 f i OpenExr:ImfAttribute.obj
 0001:001ec550       ??1?$_Iterator012@Ubidirectional_iterator_tag@std@@U?$pair@QEBDP6APEAVAttribute@Imf@@XZ@2@_JPEBU32@AEBU32@U_Iterator_base12@2@@std@@QEAA@XZ 00000001801ed550 f i OpenExr:ImfAttribute.obj
 0001:001ec580       ??1?$_Tree@V?$_Tmap_traits@PEBDP6APEAVAttribute@Imf@@XZUNameCompare@?A0xd430efe7@2@V?$allocator@U?$pair@QEBDP6APEAVAttribute@Imf@@XZ@std@@@std@@$0A@@std@@@std@@QEAA@XZ 00000001801ed580 f i OpenExr:ImfAttribute.obj
 0001:001ec5c0       ??1?$_Tree_alloc@$0A@U?$_Tree_base_types@U?$pair@QEBDP6APEAVAttribute@Imf@@XZ@std@@V?$allocator@U?$pair@QEBDP6APEAVAttribute@Imf@@XZ@std@@@2@@std@@@std@@QEAA@XZ 00000001801ed5c0 f i OpenExr:ImfAttribute.obj
 0001:001ec610       ??1?$_Tree_buy@U?$pair@QEBDP6APEAVAttribute@Imf@@XZ@std@@V?$allocator@U?$pair@QEBDP6APEAVAttribute@Imf@@XZ@std@@@2@@std@@QEAA@XZ 00000001801ed610 f i OpenExr:ImfAttribute.obj
 0001:001ec640       ??1?$_Tree_comp@$0A@V?$_Tmap_traits@PEBDP6APEAVAttribute@Imf@@XZUNameCompare@?A0xd430efe7@2@V?$allocator@U?$pair@QEBDP6APEAVAttribute@Imf@@XZ@std@@@std@@$0A@@std@@@std@@QEAA@XZ 00000001801ed640 f i OpenExr:ImfAttribute.obj
 0001:001ec670       ??1?$_Tree_const_iterator@V?$_Tree_val@U?$_Tree_simple_types@U?$pair@QEBDP6APEAVAttribute@Imf@@XZ@std@@@std@@@std@@@std@@QEAA@XZ 00000001801ed670 f i OpenExr:ImfAttribute.obj
 0001:001ec6a0       ??1?$_Tree_iterator@V?$_Tree_val@U?$_Tree_simple_types@U?$pair@QEBDP6APEAVAttribute@Imf@@XZ@std@@@std@@@std@@@std@@QEAA@XZ 00000001801ed6a0 f i OpenExr:ImfAttribute.obj
 0001:001ec6d0       ??1?$_Tree_unchecked_const_iterator@V?$_Tree_val@U?$_Tree_simple_types@U?$pair@QEBDP6APEAVAttribute@Imf@@XZ@std@@@std@@@std@@U_Iterator_base12@2@@std@@QEAA@XZ 00000001801ed6d0 f i OpenExr:ImfAttribute.obj
 0001:001ec700       ??1?$_Tree_val@U?$_Tree_simple_types@U?$pair@QEBDP6APEAVAttribute@Imf@@XZ@std@@@std@@@std@@QEAA@XZ 00000001801ed700 f i OpenExr:ImfAttribute.obj
 0001:001ec730       ??1?$map@PEBDP6APEAVAttribute@Imf@@XZUNameCompare@?A0xd430efe7@2@V?$allocator@U?$pair@QEBDP6APEAVAttribute@Imf@@XZ@std@@@std@@@std@@QEAA@XZ 00000001801ed730 f i OpenExr:ImfAttribute.obj
 0001:001ec760       ??1?$pair@V?$_Tree_iterator@V?$_Tree_val@U?$_Tree_simple_types@U?$pair@QEBDP6APEAVAttribute@Imf@@XZ@std@@@std@@@std@@@std@@V12@@std@@QEAA@XZ 00000001801ed760 f i OpenExr:ImfAttribute.obj
 0001:001ec7b0       ??1?$pair@V?$_Tree_iterator@V?$_Tree_val@U?$_Tree_simple_types@U?$pair@QEBDP6APEAVAttribute@Imf@@XZ@std@@@std@@@std@@@std@@_N@std@@QEAA@XZ 00000001801ed7b0 f i OpenExr:ImfAttribute.obj
 0001:001ec7f0       ??8?$_Tree_const_iterator@V?$_Tree_val@U?$_Tree_simple_types@U?$pair@QEBDP6APEAVAttribute@Imf@@XZ@std@@@std@@@std@@@std@@QEBA_NAEBV01@@Z 00000001801ed7f0 f i OpenExr:ImfAttribute.obj
 0001:001ec910       ??9?$_Tree_const_iterator@V?$_Tree_val@U?$_Tree_simple_types@U?$pair@QEBDP6APEAVAttribute@Imf@@XZ@std@@@std@@@std@@@std@@QEBA_NAEBV01@@Z 00000001801ed910 f i OpenExr:ImfAttribute.obj
 0001:001ec970       ??C?$_Tree_const_iterator@V?$_Tree_val@U?$_Tree_simple_types@U?$pair@QEBDP6APEAVAttribute@Imf@@XZ@std@@@std@@@std@@@std@@QEBAPEBU?$pair@QEBDP6APEAVAttribute@Imf@@XZ@1@XZ 00000001801ed970 f i OpenExr:ImfAttribute.obj
 0001:001ec9b0       ??D?$_Tree_const_iterator@V?$_Tree_val@U?$_Tree_simple_types@U?$pair@QEBDP6APEAVAttribute@Imf@@XZ@std@@@std@@@std@@@std@@QEBAAEBU?$pair@QEBDP6APEAVAttribute@Imf@@XZ@1@XZ 00000001801ed9b0 f i OpenExr:ImfAttribute.obj
 0001:001ecab0       ??E?$_Tree_const_iterator@V?$_Tree_val@U?$_Tree_simple_types@U?$pair@QEBDP6APEAVAttribute@Imf@@XZ@std@@@std@@@std@@@std@@QEAA?AV01@H@Z 00000001801edab0 f i OpenExr:ImfAttribute.obj
 0001:001ecb50       ??E?$_Tree_const_iterator@V?$_Tree_val@U?$_Tree_simple_types@U?$pair@QEBDP6APEAVAttribute@Imf@@XZ@std@@@std@@@std@@@std@@QEAAAEAV01@XZ 00000001801edb50 f i OpenExr:ImfAttribute.obj
 0001:001ecc50       ??E?$_Tree_iterator@V?$_Tree_val@U?$_Tree_simple_types@U?$pair@QEBDP6APEAVAttribute@Imf@@XZ@std@@@std@@@std@@@std@@QEAAAEAV01@XZ 00000001801edc50 f i OpenExr:ImfAttribute.obj
 0001:001ecc90       ??E?$_Tree_unchecked_const_iterator@V?$_Tree_val@U?$_Tree_simple_types@U?$pair@QEBDP6APEAVAttribute@Imf@@XZ@std@@@std@@@std@@U_Iterator_base12@2@@std@@QEAAAEAV01@XZ 00000001801edc90 f i OpenExr:ImfAttribute.obj
 0001:001ecd70       ??F?$_Tree_const_iterator@V?$_Tree_val@U?$_Tree_simple_types@U?$pair@QEBDP6APEAVAttribute@Imf@@XZ@std@@@std@@@std@@@std@@QEAAAEAV01@XZ 00000001801edd70 f i OpenExr:ImfAttribute.obj
 0001:001ecf10       ??F?$_Tree_iterator@V?$_Tree_val@U?$_Tree_simple_types@U?$pair@QEBDP6APEAVAttribute@Imf@@XZ@std@@@std@@@std@@@std@@QEAAAEAV01@XZ 00000001801edf10 f i OpenExr:ImfAttribute.obj
 0001:001ecf50       ??F?$_Tree_unchecked_const_iterator@V?$_Tree_val@U?$_Tree_simple_types@U?$pair@QEBDP6APEAVAttribute@Imf@@XZ@std@@@std@@@std@@U_Iterator_base12@2@@std@@QEAAAEAV01@XZ 00000001801edf50 f i OpenExr:ImfAttribute.obj
 0001:001ed060       ??RNameCompare@?A0xd430efe7@Imf@@QEBA_NPEBD0@Z 00000001801ee060 f i OpenExr:ImfAttribute.obj
 0001:001ed0c0       ??_EAttribute@Imf@@UEAAPEAXI@Z 00000001801ee0c0 f i OpenExr:ImfAttribute.obj
 0001:001ed0c0       ??_GAttribute@Imf@@UEAAPEAXI@Z 00000001801ee0c0 f i OpenExr:ImfAttribute.obj
 0001:001ed110       ?_Alloc_proxy@?$_Tree_alloc@$0A@U?$_Tree_base_types@U?$pair@QEBDP6APEAVAttribute@Imf@@XZ@std@@V?$allocator@U?$pair@QEBDP6APEAVAttribute@Imf@@XZ@std@@@2@@std@@@std@@QEAAXXZ 00000001801ee110 f i OpenExr:ImfAttribute.obj
 0001:001ed1b0       ?_Buyheadnode@?$_Tree_alloc@$0A@U?$_Tree_base_types@U?$pair@QEBDP6APEAVAttribute@Imf@@XZ@std@@V?$allocator@U?$pair@QEBDP6APEAVAttribute@Imf@@XZ@std@@@2@@std@@@std@@QEAAPEAU?$_Tree_node@U?$pair@QEBDP6APEAVAttribute@Imf@@XZ@std@@PEAX@2@XZ 00000001801ee1b0 f i OpenExr:ImfAttribute.obj
 0001:001ed310       ?_Buynode0@?$_Tree_buy@U?$pair@QEBDP6APEAVAttribute@Imf@@XZ@std@@V?$allocator@U?$pair@QEBDP6APEAVAttribute@Imf@@XZ@std@@@2@@std@@QEAAPEAU?$_Tree_node@U?$pair@QEBDP6APEAVAttribute@Imf@@XZ@std@@PEAX@2@XZ 00000001801ee310 f i OpenExr:ImfAttribute.obj
 0001:001ed480       ?_Color@?$_Tree_val@U?$_Tree_simple_types@U?$pair@QEBDP6APEAVAttribute@Imf@@XZ@std@@@std@@@std@@SAAEADPEAU?$_Tree_node@U?$pair@QEBDP6APEAVAttribute@Imf@@XZ@std@@PEAX@2@@Z 00000001801ee480 f i OpenExr:ImfAttribute.obj
 0001:001ed4a0       ?_Destroy_if_not_nil@?$_Tree@V?$_Tmap_traits@PEBDP6APEAVAttribute@Imf@@XZUNameCompare@?A0xd430efe7@2@V?$allocator@U?$pair@QEBDP6APEAVAttribute@Imf@@XZ@std@@@std@@$0A@@std@@@std@@IEAAXU_Nil@2@@Z 00000001801ee4a0 f i OpenExr:ImfAttribute.obj
 0001:001ed4b0       ?_Eqrange@?$_Tree@V?$_Tmap_traits@PEBDP6APEAVAttribute@Imf@@XZUNameCompare@?A0xd430efe7@2@V?$allocator@U?$pair@QEBDP6APEAVAttribute@Imf@@XZ@std@@@std@@$0A@@std@@@std@@IEAA?AU?$pair@V?$_Tree_iterator@V?$_Tree_val@U?$_Tree_simple_types@U?$pair@QEBDP6APEAVAttribute@Imf@@XZ@std@@@std@@@std@@@std@@V12@@2@AEBQEBD@Z 00000001801ee4b0 f i OpenExr:ImfAttribute.obj
 0001:001ed7f0       ?_Erase@?$_Tree@V?$_Tmap_traits@PEBDP6APEAVAttribute@Imf@@XZUNameCompare@?A0xd430efe7@2@V?$allocator@U?$pair@QEBDP6APEAVAttribute@Imf@@XZ@std@@@std@@$0A@@std@@@std@@IEAAXPEAU?$_Tree_node@U?$pair@QEBDP6APEAVAttribute@Imf@@XZ@std@@PEAX@2@@Z 00000001801ee7f0 f i OpenExr:ImfAttribute.obj
 0001:001ed8d0       ?_Free_proxy@?$_Tree_alloc@$0A@U?$_Tree_base_types@U?$pair@QEBDP6APEAVAttribute@Imf@@XZ@std@@V?$allocator@U?$pair@QEBDP6APEAVAttribute@Imf@@XZ@std@@@2@@std@@@std@@QEAAXXZ 00000001801ee8d0 f i OpenExr:ImfAttribute.obj
 0001:001ed960       ?_Freeheadnode@?$_Tree_alloc@$0A@U?$_Tree_base_types@U?$pair@QEBDP6APEAVAttribute@Imf@@XZ@std@@V?$allocator@U?$pair@QEBDP6APEAVAttribute@Imf@@XZ@std@@@2@@std@@@std@@QEAAXPEAU?$_Tree_node@U?$pair@QEBDP6APEAVAttribute@Imf@@XZ@std@@PEAX@2@@Z 00000001801ee960 f i OpenExr:ImfAttribute.obj
 0001:001eda50       ?_Freenode0@?$_Tree_buy@U?$pair@QEBDP6APEAVAttribute@Imf@@XZ@std@@V?$allocator@U?$pair@QEBDP6APEAVAttribute@Imf@@XZ@std@@@2@@std@@QEAAXPEAU?$_Tree_node@U?$pair@QEBDP6APEAVAttribute@Imf@@XZ@std@@PEAX@2@@Z 00000001801eea50 f i OpenExr:ImfAttribute.obj
 0001:001edb40       ?_Getal@?$_Tree_alloc@$0A@U?$_Tree_base_types@U?$pair@QEBDP6APEAVAttribute@Imf@@XZ@std@@V?$allocator@U?$pair@QEBDP6APEAVAttribute@Imf@@XZ@std@@@2@@std@@@std@@QEBA?AU?$_Wrap_alloc@V?$allocator@U?$_Tree_node@U?$pair@QEBDP6APEAVAttribute@Imf@@XZ@std@@PEAX@std@@@std@@@2@XZ 00000001801eeb40 f i OpenExr:ImfAttribute.obj
 0001:001edb80       ?_Getcomp@?$_Tree_comp@$0A@V?$_Tmap_traits@PEBDP6APEAVAttribute@Imf@@XZUNameCompare@?A0xd430efe7@2@V?$allocator@U?$pair@QEBDP6APEAVAttribute@Imf@@XZ@std@@@std@@$0A@@std@@@std@@QEBA?AUNameCompare@?A0xd430efe7@Imf@@XZ 00000001801eeb80 f i OpenExr:ImfAttribute.obj
 0001:001edbb0       ?_Isnil@?$_Tree_val@U?$_Tree_simple_types@U?$pair@QEBDP6APEAVAttribute@Imf@@XZ@std@@@std@@@std@@SAAEADPEAU?$_Tree_node@U?$pair@QEBDP6APEAVAttribute@Imf@@XZ@std@@PEAX@2@@Z 00000001801eebb0 f i OpenExr:ImfAttribute.obj
 0001:001edbd0       ?_Key@?$_Tree@V?$_Tmap_traits@PEBDP6APEAVAttribute@Imf@@XZUNameCompare@?A0xd430efe7@2@V?$allocator@U?$pair@QEBDP6APEAVAttribute@Imf@@XZ@std@@@std@@$0A@@std@@@std@@IEBAAEBQEBDPEAU?$_Tree_node@U?$pair@QEBDP6APEAVAttribute@Imf@@XZ@std@@PEAX@2@@Z 00000001801eebd0 f i OpenExr:ImfAttribute.obj
 0001:001edc10       ?_Kfn@?$_Tree@V?$_Tmap_traits@PEBDP6APEAVAttribute@Imf@@XZUNameCompare@?A0xd430efe7@2@V?$allocator@U?$pair@QEBDP6APEAVAttribute@Imf@@XZ@std@@@std@@$0A@@std@@@std@@IEBAAEBQEBDAEBU?$pair@QEBDP6APEAVAttribute@Imf@@XZ@2@@Z 00000001801eec10 f i OpenExr:ImfAttribute.obj
 0001:001edc50       ?_Lbound@?$_Tree@V?$_Tmap_traits@PEBDP6APEAVAttribute@Imf@@XZUNameCompare@?A0xd430efe7@2@V?$allocator@U?$pair@QEBDP6APEAVAttribute@Imf@@XZ@std@@@std@@$0A@@std@@@std@@IEAAPEAU?$_Tree_node@U?$pair@QEBDP6APEAVAttribute@Imf@@XZ@std@@PEAX@2@AEBQEBD@Z 00000001801eec50 f i OpenExr:ImfAttribute.obj
 0001:001edd40       ?_Left@?$_Tree_val@U?$_Tree_simple_types@U?$pair@QEBDP6APEAVAttribute@Imf@@XZ@std@@@std@@@std@@SAAEAPEAU?$_Tree_node@U?$pair@QEBDP6APEAVAttribute@Imf@@XZ@std@@PEAX@2@PEAU32@@Z 00000001801eed40 f i OpenExr:ImfAttribute.obj
 0001:001edd50       ?_Lmost@?$_Tree@V?$_Tmap_traits@PEBDP6APEAVAttribute@Imf@@XZUNameCompare@?A0xd430efe7@2@V?$allocator@U?$pair@QEBDP6APEAVAttribute@Imf@@XZ@std@@@std@@$0A@@std@@@std@@IEBAAEAPEAU?$_Tree_node@U?$pair@QEBDP6APEAVAttribute@Imf@@XZ@std@@PEAX@2@XZ 00000001801eed50 f i OpenExr:ImfAttribute.obj
 0001:001edd90       ?_Lrotate@?$_Tree@V?$_Tmap_traits@PEBDP6APEAVAttribute@Imf@@XZUNameCompare@?A0xd430efe7@2@V?$allocator@U?$pair@QEBDP6APEAVAttribute@Imf@@XZ@std@@@std@@$0A@@std@@@std@@IEAAXPEAU?$_Tree_node@U?$pair@QEBDP6APEAVAttribute@Imf@@XZ@std@@PEAX@2@@Z 00000001801eed90 f i OpenExr:ImfAttribute.obj
 0001:001edef0       ?_Max@?$_Tree_val@U?$_Tree_simple_types@U?$pair@QEBDP6APEAVAttribute@Imf@@XZ@std@@@std@@@std@@SAPEAU?$_Tree_node@U?$pair@QEBDP6APEAVAttribute@Imf@@XZ@std@@PEAX@2@PEAU32@@Z 00000001801eeef0 f i OpenExr:ImfAttribute.obj
 0001:001edf50       ?_Min@?$_Tree_val@U?$_Tree_simple_types@U?$pair@QEBDP6APEAVAttribute@Imf@@XZ@std@@@std@@@std@@SAPEAU?$_Tree_node@U?$pair@QEBDP6APEAVAttribute@Imf@@XZ@std@@PEAX@2@PEAU32@@Z 00000001801eef50 f i OpenExr:ImfAttribute.obj
 0001:001edfb0       ?_Mynode@?$_Tree_unchecked_const_iterator@V?$_Tree_val@U?$_Tree_simple_types@U?$pair@QEBDP6APEAVAttribute@Imf@@XZ@std@@@std@@@std@@U_Iterator_base12@2@@std@@QEBAPEAU?$_Tree_node@U?$pair@QEBDP6APEAVAttribute@Imf@@XZ@std@@PEAX@2@XZ 00000001801eefb0 f i OpenExr:ImfAttribute.obj
 0001:001edfd0       ?_Myval@?$_Tree_val@U?$_Tree_simple_types@U?$pair@QEBDP6APEAVAttribute@Imf@@XZ@std@@@std@@@std@@SAAEAU?$pair@QEBDP6APEAVAttribute@Imf@@XZ@2@PEAU?$_Tree_node@U?$pair@QEBDP6APEAVAttribute@Imf@@XZ@std@@PEAX@2@@Z 00000001801eefd0 f i OpenExr:ImfAttribute.obj
 0001:001edff0       ?_Orphan_ptr@?$_Tree@V?$_Tmap_traits@PEBDP6APEAVAttribute@Imf@@XZUNameCompare@?A0xd430efe7@2@V?$allocator@U?$pair@QEBDP6APEAVAttribute@Imf@@XZ@std@@@std@@$0A@@std@@@std@@IEBAXAEAV12@PEAU?$_Tree_node@U?$pair@QEBDP6APEAVAttribute@Imf@@XZ@std@@PEAX@2@@Z 00000001801eeff0 f i OpenExr:ImfAttribute.obj
 0001:001ee0f0       ?_Parent@?$_Tree_val@U?$_Tree_simple_types@U?$pair@QEBDP6APEAVAttribute@Imf@@XZ@std@@@std@@@std@@SAAEAPEAU?$_Tree_node@U?$pair@QEBDP6APEAVAttribute@Imf@@XZ@std@@PEAX@2@PEAU32@@Z 00000001801ef0f0 f i OpenExr:ImfAttribute.obj
 0001:001ee110       ?_Right@?$_Tree_val@U?$_Tree_simple_types@U?$pair@QEBDP6APEAVAttribute@Imf@@XZ@std@@@std@@@std@@SAAEAPEAU?$_Tree_node@U?$pair@QEBDP6APEAVAttribute@Imf@@XZ@std@@PEAX@2@PEAU32@@Z 00000001801ef110 f i OpenExr:ImfAttribute.obj
 0001:001ee130       ?_Rmost@?$_Tree@V?$_Tmap_traits@PEBDP6APEAVAttribute@Imf@@XZUNameCompare@?A0xd430efe7@2@V?$allocator@U?$pair@QEBDP6APEAVAttribute@Imf@@XZ@std@@@std@@$0A@@std@@@std@@IEBAAEAPEAU?$_Tree_node@U?$pair@QEBDP6APEAVAttribute@Imf@@XZ@std@@PEAX@2@XZ 00000001801ef130 f i OpenExr:ImfAttribute.obj
 0001:001ee170       ?_Root@?$_Tree@V?$_Tmap_traits@PEBDP6APEAVAttribute@Imf@@XZUNameCompare@?A0xd430efe7@2@V?$allocator@U?$pair@QEBDP6APEAVAttribute@Imf@@XZ@std@@@std@@$0A@@std@@@std@@IEBAAEAPEAU?$_Tree_node@U?$pair@QEBDP6APEAVAttribute@Imf@@XZ@std@@PEAX@2@XZ 00000001801ef170 f i OpenExr:ImfAttribute.obj
 0001:001ee1b0       ?_Rrotate@?$_Tree@V?$_Tmap_traits@PEBDP6APEAVAttribute@Imf@@XZUNameCompare@?A0xd430efe7@2@V?$allocator@U?$pair@QEBDP6APEAVAttribute@Imf@@XZ@std@@@std@@$0A@@std@@@std@@IEAAXPEAU?$_Tree_node@U?$pair@QEBDP6APEAVAttribute@Imf@@XZ@std@@PEAX@2@@Z 00000001801ef1b0 f i OpenExr:ImfAttribute.obj
 0001:001ee310       ?_Tidy@?$_Tree@V?$_Tmap_traits@PEBDP6APEAVAttribute@Imf@@XZUNameCompare@?A0xd430efe7@2@V?$allocator@U?$pair@QEBDP6APEAVAttribute@Imf@@XZ@std@@@std@@$0A@@std@@@std@@IEAAXXZ 00000001801ef310 f i OpenExr:ImfAttribute.obj
 0001:001ee440       ?allocate@?$_Wrap_alloc@V?$allocator@U?$_Tree_node@U?$pair@QEBDP6APEAVAttribute@Imf@@XZ@std@@PEAX@std@@@std@@@std@@QEAAPEAU?$_Tree_node@U?$pair@QEBDP6APEAVAttribute@Imf@@XZ@std@@PEAX@2@_K@Z 00000001801ef440 f i OpenExr:ImfAttribute.obj
 0001:001ee480       ?allocate@?$allocator@U?$_Tree_node@U?$pair@QEBDP6APEAVAttribute@Imf@@XZ@std@@PEAX@std@@@std@@QEAAPEAU?$_Tree_node@U?$pair@QEBDP6APEAVAttribute@Imf@@XZ@std@@PEAX@2@_K@Z 00000001801ef480 f i OpenExr:ImfAttribute.obj
 0001:001ee4c0       ?begin@?$_Tree@V?$_Tmap_traits@PEBDP6APEAVAttribute@Imf@@XZUNameCompare@?A0xd430efe7@2@V?$allocator@U?$pair@QEBDP6APEAVAttribute@Imf@@XZ@std@@@std@@$0A@@std@@@std@@QEAA?AV?$_Tree_iterator@V?$_Tree_val@U?$_Tree_simple_types@U?$pair@QEBDP6APEAVAttribute@Imf@@XZ@std@@@std@@@std@@@2@XZ 00000001801ef4c0 f i OpenExr:ImfAttribute.obj
 0001:001ee510       ?clear@?$_Tree@V?$_Tmap_traits@PEBDP6APEAVAttribute@Imf@@XZUNameCompare@?A0xd430efe7@2@V?$allocator@U?$pair@QEBDP6APEAVAttribute@Imf@@XZ@std@@@std@@$0A@@std@@@std@@QEAAXXZ 00000001801ef510 f i OpenExr:ImfAttribute.obj
 0001:001ee5b0       ?deallocate@?$_Wrap_alloc@V?$allocator@U?$_Tree_node@U?$pair@QEBDP6APEAVAttribute@Imf@@XZ@std@@PEAX@std@@@std@@@std@@QEAAXPEAU?$_Tree_node@U?$pair@QEBDP6APEAVAttribute@Imf@@XZ@std@@PEAX@2@_K@Z 00000001801ef5b0 f i OpenExr:ImfAttribute.obj
 0001:001ee600       ?deallocate@?$allocator@U?$_Tree_node@U?$pair@QEBDP6APEAVAttribute@Imf@@XZ@std@@PEAX@std@@@std@@QEAAXPEAU?$_Tree_node@U?$pair@QEBDP6APEAVAttribute@Imf@@XZ@std@@PEAX@2@_K@Z 00000001801ef600 f i OpenExr:ImfAttribute.obj
 0001:001ee640       ?end@?$_Tree@V?$_Tmap_traits@PEBDP6APEAVAttribute@Imf@@XZUNameCompare@?A0xd430efe7@2@V?$allocator@U?$pair@QEBDP6APEAVAttribute@Imf@@XZ@std@@@std@@$0A@@std@@@std@@QEAA?AV?$_Tree_iterator@V?$_Tree_val@U?$_Tree_simple_types@U?$pair@QEBDP6APEAVAttribute@Imf@@XZ@std@@@std@@@std@@@2@XZ 00000001801ef640 f i OpenExr:ImfAttribute.obj
 0001:001ee690       ?equal_range@?$_Tree@V?$_Tmap_traits@PEBDP6APEAVAttribute@Imf@@XZUNameCompare@?A0xd430efe7@2@V?$allocator@U?$pair@QEBDP6APEAVAttribute@Imf@@XZ@std@@@std@@$0A@@std@@@std@@QEAA?AU?$pair@V?$_Tree_iterator@V?$_Tree_val@U?$_Tree_simple_types@U?$pair@QEBDP6APEAVAttribute@Imf@@XZ@std@@@std@@@std@@@std@@V12@@2@AEBQEBD@Z 00000001801ef690 f i OpenExr:ImfAttribute.obj
 0001:001ee6f0       ?erase@?$_Tree@V?$_Tmap_traits@PEBDP6APEAVAttribute@Imf@@XZUNameCompare@?A0xd430efe7@2@V?$allocator@U?$pair@QEBDP6APEAVAttribute@Imf@@XZ@std@@@std@@$0A@@std@@@std@@QEAA?AV?$_Tree_iterator@V?$_Tree_val@U?$_Tree_simple_types@U?$pair@QEBDP6APEAVAttribute@Imf@@XZ@std@@@std@@@std@@@2@V?$_Tree_const_iterator@V?$_Tree_val@U?$_Tree_simple_types@U?$pair@QEBDP6APEAVAttribute@Imf@@XZ@std@@@std@@@std@@@2@0@Z 00000001801ef6f0 f i OpenExr:ImfAttribute.obj
 0001:001ee9a0       ?erase@?$_Tree@V?$_Tmap_traits@PEBDP6APEAVAttribute@Imf@@XZUNameCompare@?A0xd430efe7@2@V?$allocator@U?$pair@QEBDP6APEAVAttribute@Imf@@XZ@std@@@std@@$0A@@std@@@std@@QEAA?AV?$_Tree_iterator@V?$_Tree_val@U?$_Tree_simple_types@U?$pair@QEBDP6APEAVAttribute@Imf@@XZ@std@@@std@@@std@@@2@V?$_Tree_const_iterator@V?$_Tree_val@U?$_Tree_simple_types@U?$pair@QEBDP6APEAVAttribute@Imf@@XZ@std@@@std@@@std@@@2@@Z 00000001801ef9a0 f i OpenExr:ImfAttribute.obj
 0001:001ef290       ?erase@?$_Tree@V?$_Tmap_traits@PEBDP6APEAVAttribute@Imf@@XZUNameCompare@?A0xd430efe7@2@V?$allocator@U?$pair@QEBDP6APEAVAttribute@Imf@@XZ@std@@@std@@$0A@@std@@@std@@QEAA_KAEBQEBD@Z 00000001801f0290 f i OpenExr:ImfAttribute.obj
 0001:001ef440       ?find@?$_Tree@V?$_Tmap_traits@PEBDP6APEAVAttribute@Imf@@XZUNameCompare@?A0xd430efe7@2@V?$allocator@U?$pair@QEBDP6APEAVAttribute@Imf@@XZ@std@@@std@@$0A@@std@@@std@@QEAA?AV?$_Tree_iterator@V?$_Tree_val@U?$_Tree_simple_types@U?$pair@QEBDP6APEAVAttribute@Imf@@XZ@std@@@std@@@std@@@2@AEBQEBD@Z 00000001801f0440 f i OpenExr:ImfAttribute.obj
 0001:001ef6d0       ?insert@?$_Tree@V?$_Tmap_traits@PEBDP6APEAVAttribute@Imf@@XZUNameCompare@?A0xd430efe7@2@V?$allocator@U?$pair@QEBDP6APEAVAttribute@Imf@@XZ@std@@@std@@$0A@@std@@@std@@QEAA?AU?$pair@V?$_Tree_iterator@V?$_Tree_val@U?$_Tree_simple_types@U?$pair@QEBDP6APEAVAttribute@Imf@@XZ@std@@@std@@@std@@@std@@_N@2@$$QEAU?$pair@QEBDP6APEAVAttribute@Imf@@XZ@2@@Z 00000001801f06d0 f i OpenExr:ImfAttribute.obj
 0001:001ef740       ?lower_bound@?$_Tree@V?$_Tmap_traits@PEBDP6APEAVAttribute@Imf@@XZUNameCompare@?A0xd430efe7@2@V?$allocator@U?$pair@QEBDP6APEAVAttribute@Imf@@XZ@std@@@std@@$0A@@std@@@std@@QEAA?AV?$_Tree_iterator@V?$_Tree_val@U?$_Tree_simple_types@U?$pair@QEBDP6APEAVAttribute@Imf@@XZ@std@@@std@@@std@@@2@AEBQEBD@Z 00000001801f0740 f i OpenExr:ImfAttribute.obj
 0001:001ef7b0       ?max_size@?$_Tree@V?$_Tmap_traits@PEBDP6APEAVAttribute@Imf@@XZUNameCompare@?A0xd430efe7@2@V?$allocator@U?$pair@QEBDP6APEAVAttribute@Imf@@XZ@std@@@std@@$0A@@std@@@std@@QEBA_KXZ 00000001801f07b0 f i OpenExr:ImfAttribute.obj
 0001:001ef7f0       ?max_size@?$_Wrap_alloc@V?$allocator@U?$_Tree_node@U?$pair@QEBDP6APEAVAttribute@Imf@@XZ@std@@PEAX@std@@@std@@@std@@QEBA_KXZ 00000001801f07f0 f i OpenExr:ImfAttribute.obj
 0001:001ef820       ?max_size@?$allocator@U?$_Tree_node@U?$pair@QEBDP6APEAVAttribute@Imf@@XZ@std@@PEAX@std@@@std@@QEBA_KXZ 00000001801f0820 f i OpenExr:ImfAttribute.obj
 0001:001ef840       ?max_size@?$allocator_traits@V?$allocator@U?$_Tree_node@U?$pair@QEBDP6APEAVAttribute@Imf@@XZ@std@@PEAX@std@@@std@@@std@@SA_KAEBV?$allocator@U?$_Tree_node@U?$pair@QEBDP6APEAVAttribute@Imf@@XZ@std@@PEAX@std@@@2@@Z 00000001801f0840 f i OpenExr:ImfAttribute.obj
 0001:001ef870       ?pointer_to@?$pointer_traits@PEBU?$pair@QEBDP6APEAVAttribute@Imf@@XZ@std@@@std@@SAPEBU?$pair@QEBDP6APEAVAttribute@Imf@@XZ@2@AEBU32@@Z 00000001801f0870 f i OpenExr:ImfAttribute.obj
 0001:001ef8a0       ?staticTypeName@?$TypedAttribute@V?$Box@V?$Vec2@H@Imath@@@Imath@@@Imf@@SAPEBDXZ 00000001801f08a0 f   OpenExr:ImfBoxAttribute.obj
 0001:001ef8c0       ?writeValueTo@?$TypedAttribute@V?$Box@V?$Vec2@H@Imath@@@Imath@@@Imf@@UEBAXAEAVOStream@2@H@Z 00000001801f08c0 f   OpenExr:ImfBoxAttribute.obj
 0001:001ef940       ?readValueFrom@?$TypedAttribute@V?$Box@V?$Vec2@H@Imath@@@Imath@@@Imf@@UEAAXAEAVIStream@2@HH@Z 00000001801f0940 f   OpenExr:ImfBoxAttribute.obj
 0001:001ef9e0       ?staticTypeName@?$TypedAttribute@V?$Box@V?$Vec2@M@Imath@@@Imath@@@Imf@@SAPEBDXZ 00000001801f09e0 f   OpenExr:ImfBoxAttribute.obj
 0001:001efa00       ?writeValueTo@?$TypedAttribute@V?$Box@V?$Vec2@M@Imath@@@Imath@@@Imf@@UEBAXAEAVOStream@2@H@Z 00000001801f0a00 f   OpenExr:ImfBoxAttribute.obj
 0001:001efa90       ?readValueFrom@?$TypedAttribute@V?$Box@V?$Vec2@M@Imath@@@Imath@@@Imf@@UEAAXAEAVIStream@2@HH@Z 00000001801f0a90 f   OpenExr:ImfBoxAttribute.obj
 0001:001efb20       ??0Channel@Imf@@QEAA@W4PixelType@1@HH_N@Z 00000001801f0b20 f   OpenExr:ImfChannelList.obj
 0001:001efb80       ??8Channel@Imf@@QEBA_NAEBU01@@Z 00000001801f0b80 f   OpenExr:ImfChannelList.obj
 0001:001efc10       ?insert@ChannelList@Imf@@QEAAXQEBDAEBUChannel@2@@Z 00000001801f0c10 f   OpenExr:ImfChannelList.obj
 0001:001efd80       ?insert@ChannelList@Imf@@QEAAXAEBV?$basic_string@DU?$char_traits@D@std@@V?$allocator@D@2@@std@@AEBUChannel@2@@Z 00000001801f0d80 f   OpenExr:ImfChannelList.obj
 0001:001efdd0       ??AChannelList@Imf@@QEAAAEAUChannel@1@QEBD@Z 00000001801f0dd0 f   OpenExr:ImfChannelList.obj
 0001:001effd0       ??AChannelList@Imf@@QEBAAEBUChannel@1@QEBD@Z 00000001801f0fd0 f   OpenExr:ImfChannelList.obj
 0001:001f01d0       ??AChannelList@Imf@@QEAAAEAUChannel@1@AEBV?$basic_string@DU?$char_traits@D@std@@V?$allocator@D@2@@std@@@Z 00000001801f11d0 f   OpenExr:ImfChannelList.obj
 0001:001f0220       ??AChannelList@Imf@@QEBAAEBUChannel@1@AEBV?$basic_string@DU?$char_traits@D@std@@V?$allocator@D@2@@std@@@Z 00000001801f1220 f   OpenExr:ImfChannelList.obj
 0001:001f0270       ?findChannel@ChannelList@Imf@@QEAAPEAUChannel@2@QEBD@Z 00000001801f1270 f   OpenExr:ImfChannelList.obj
 0001:001f03c0       ?findChannel@ChannelList@Imf@@QEBAPEBUChannel@2@QEBD@Z 00000001801f13c0 f   OpenExr:ImfChannelList.obj
 0001:001f0510       ?findChannel@ChannelList@Imf@@QEAAPEAUChannel@2@AEBV?$basic_string@DU?$char_traits@D@std@@V?$allocator@D@2@@std@@@Z 00000001801f1510 f   OpenExr:ImfChannelList.obj
 0001:001f0560       ?findChannel@ChannelList@Imf@@QEBAPEBUChannel@2@AEBV?$basic_string@DU?$char_traits@D@std@@V?$allocator@D@2@@std@@@Z 00000001801f1560 f   OpenExr:ImfChannelList.obj
 0001:001f05b0       ?begin@ChannelList@Imf@@QEAA?AVIterator@12@XZ 00000001801f15b0 f   OpenExr:ImfChannelList.obj
 0001:001f0640       ?begin@ChannelList@Imf@@QEBA?AVConstIterator@12@XZ 00000001801f1640 f   OpenExr:ImfChannelList.obj
 0001:001f06d0       ?end@ChannelList@Imf@@QEAA?AVIterator@12@XZ 00000001801f16d0 f   OpenExr:ImfChannelList.obj
 0001:001f0760       ?end@ChannelList@Imf@@QEBA?AVConstIterator@12@XZ 00000001801f1760 f   OpenExr:ImfChannelList.obj
 0001:001f07f0       ?find@ChannelList@Imf@@QEAA?AVIterator@12@QEBD@Z 00000001801f17f0 f   OpenExr:ImfChannelList.obj
 0001:001f08f0       ?find@ChannelList@Imf@@QEBA?AVConstIterator@12@QEBD@Z 00000001801f18f0 f   OpenExr:ImfChannelList.obj
 0001:001f09f0       ?find@ChannelList@Imf@@QEAA?AVIterator@12@AEBV?$basic_string@DU?$char_traits@D@std@@V?$allocator@D@2@@std@@@Z 00000001801f19f0 f   OpenExr:ImfChannelList.obj
 0001:001f0a60       ?find@ChannelList@Imf@@QEBA?AVConstIterator@12@AEBV?$basic_string@DU?$char_traits@D@std@@V?$allocator@D@2@@std@@@Z 00000001801f1a60 f   OpenExr:ImfChannelList.obj
 0001:001f0ad0       ?layers@ChannelList@Imf@@QEBAXAEAV?$set@V?$basic_string@DU?$char_traits@D@std@@V?$allocator@D@2@@std@@U?$less@V?$basic_string@DU?$char_traits@D@std@@V?$allocator@D@2@@std@@@2@V?$allocator@V?$basic_string@DU?$char_traits@D@std@@V?$allocator@D@2@@std@@@2@@std@@@Z 00000001801f1ad0 f   OpenExr:ImfChannelList.obj
 0001:001f0ca0       ?channelsInLayer@ChannelList@Imf@@QEAAXAEBV?$basic_string@DU?$char_traits@D@std@@V?$allocator@D@2@@std@@AEAVIterator@12@1@Z 00000001801f1ca0 f   OpenExr:ImfChannelList.obj
 0001:001f0d60       ?channelsInLayer@ChannelList@Imf@@QEBAXAEBV?$basic_string@DU?$char_traits@D@std@@V?$allocator@D@2@@std@@AEAVConstIterator@12@1@Z 00000001801f1d60 f   OpenExr:ImfChannelList.obj
 0001:001f0e20       ?channelsWithPrefix@ChannelList@Imf@@QEAAXQEBDAEAVIterator@12@1@Z 00000001801f1e20 f   OpenExr:ImfChannelList.obj
 0001:001f1140       ?channelsWithPrefix@ChannelList@Imf@@QEBAXQEBDAEAVConstIterator@12@1@Z 00000001801f2140 f   OpenExr:ImfChannelList.obj
 0001:001f13c0       ?channelsWithPrefix@ChannelList@Imf@@QEAAXAEBV?$basic_string@DU?$char_traits@D@std@@V?$allocator@D@2@@std@@AEAVIterator@12@1@Z 00000001801f23c0 f   OpenExr:ImfChannelList.obj
 0001:001f1420       ?channelsWithPrefix@ChannelList@Imf@@QEBAXAEBV?$basic_string@DU?$char_traits@D@std@@V?$allocator@D@2@@std@@AEAVConstIterator@12@1@Z 00000001801f2420 f   OpenExr:ImfChannelList.obj
 0001:001f1480       ??8ChannelList@Imf@@QEBA_NAEBV01@@Z 00000001801f2480 f   OpenExr:ImfChannelList.obj
 0001:001f17e0       ??$?0$$QEAVName@Imf@@$$$V@?$pair@$$CBVName@Imf@@UChannel@2@@std@@QEAA@Upiecewise_construct_t@1@V?$tuple@$$QEAVName@Imf@@@1@V?$tuple@$$$V@1@@Z 00000001801f27e0 f i OpenExr:ImfChannelList.obj
 0001:001f1860       ??$?0AEAV?$_Tree_const_iterator@V?$_Tree_val@U?$_Tree_simple_types@V?$basic_string@DU?$char_traits@D@std@@V?$allocator@D@2@@std@@@std@@@std@@@std@@_NX@?$pair@V?$_Tree_const_iterator@V?$_Tree_val@U?$_Tree_simple_types@V?$basic_string@DU?$char_traits@D@std@@V?$allocator@D@2@@std@@@std@@@std@@@std@@_N@std@@QEAA@AEAV?$_Tree_const_iterator@V?$_Tree_val@U?$_Tree_simple_types@V?$basic_string@DU?$char_traits@D@std@@V?$allocator@D@2@@std@@@std@@@std@@@1@$$QEA_N@Z 00000001801f2860 f i OpenExr:ImfChannelList.obj
 0001:001f18d0       ??$?0AEAV?$_Tree_iterator@V?$_Tree_val@U?$_Tree_simple_types@U?$pair@$$CBVName@Imf@@UChannel@2@@std@@@std@@@std@@@std@@_NX@?$pair@V?$_Tree_iterator@V?$_Tree_val@U?$_Tree_simple_types@U?$pair@$$CBVName@Imf@@UChannel@2@@std@@@std@@@std@@@std@@_N@std@@QEAA@AEAV?$_Tree_iterator@V?$_Tree_val@U?$_Tree_simple_types@U?$pair@$$CBVName@Imf@@UChannel@2@@std@@@std@@@std@@@1@$$QEA_N@Z 00000001801f28d0 f i OpenExr:ImfChannelList.obj
 0001:001f1940       ??$?0V?$_Tree_const_iterator@V?$_Tree_val@U?$_Tree_simple_types@V?$basic_string@DU?$char_traits@D@std@@V?$allocator@D@2@@std@@@std@@@std@@@std@@_NX@?$pair@V?$_Tree_const_iterator@V?$_Tree_val@U?$_Tree_simple_types@V?$basic_string@DU?$char_traits@D@std@@V?$allocator@D@2@@std@@@std@@@std@@@std@@_N@std@@QEAA@$$QEAV?$_Tree_const_iterator@V?$_Tree_val@U?$_Tree_simple_types@V?$basic_string@DU?$char_traits@D@std@@V?$allocator@D@2@@std@@@std@@@std@@@1@$$QEA_N@Z 00000001801f2940 f i OpenExr:ImfChannelList.obj
 0001:001f19b0       ??$?0V?$_Tree_iterator@V?$_Tree_val@U?$_Tree_simple_types@U?$pair@$$CBVName@Imf@@UChannel@2@@std@@@std@@@std@@@std@@_NX@?$pair@V?$_Tree_iterator@V?$_Tree_val@U?$_Tree_simple_types@U?$pair@$$CBVName@Imf@@UChannel@2@@std@@@std@@@std@@@std@@_N@std@@QEAA@$$QEAV?$_Tree_iterator@V?$_Tree_val@U?$_Tree_simple_types@U?$pair@$$CBVName@Imf@@UChannel@2@@std@@@std@@@std@@@1@$$QEA_N@Z 00000001801f29b0 f i OpenExr:ImfChannelList.obj
 0001:001f1a20       ??$?0V?$tuple@$$QEAVName@Imf@@@std@@V?$tuple@$$$V@1@$0A@$S@?$pair@$$CBVName@Imf@@UChannel@2@@std@@QEAA@AEAV?$tuple@$$QEAVName@Imf@@@1@AEAV?$tuple@$$$V@1@U?$_Arg_idx@$0A@@1@U?$_Arg_idx@$S@1@@Z 00000001801f2a20 f i OpenExr:ImfChannelList.obj
 0001:001f1ab0       ??$?HDU?$char_traits@D@std@@V?$allocator@D@1@@std@@YA?AV?$basic_string@DU?$char_traits@D@std@@V?$allocator@D@2@@0@AEBV10@D@Z 00000001801f2ab0 f i OpenExr:ImfChannelList.obj
 0001:001f1bb0       ??$?MDU?$char_traits@D@std@@V?$allocator@D@1@@std@@YA_NAEBV?$basic_string@DU?$char_traits@D@std@@V?$allocator@D@2@@0@0@Z 00000001801f2bb0 f i OpenExr:ImfChannelList.obj
 0001:001f1c10       ??$_Allocate@U?$_Tree_node@V?$basic_string@DU?$char_traits@D@std@@V?$allocator@D@2@@std@@PEAX@std@@@std@@YAPEAU?$_Tree_node@V?$basic_string@DU?$char_traits@D@std@@V?$allocator@D@2@@std@@PEAX@0@_KPEAU10@@Z 00000001801f2c10 f i OpenExr:ImfChannelList.obj
 0001:001f1c90       ??$_Buynode@AEBUpiecewise_construct_t@std@@V?$tuple@$$QEAVName@Imf@@@2@V?$tuple@$$$V@2@@?$_Tree_buy@U?$pair@$$CBVName@Imf@@UChannel@2@@std@@V?$allocator@U?$pair@$$CBVName@Imf@@UChannel@2@@std@@@2@@std@@QEAAPEAU?$_Tree_node@U?$pair@$$CBVName@Imf@@UChannel@2@@std@@PEAX@1@AEBUpiecewise_construct_t@1@$$QEAV?$tuple@$$QEAVName@Imf@@@1@$$QEAV?$tuple@$$$V@1@@Z 00000001801f2c90 f i OpenExr:ImfChannelList.obj
 0001:001f1d90       ??$_Buynode@AEBV?$basic_string@DU?$char_traits@D@std@@V?$allocator@D@2@@std@@@?$_Tree_buy@V?$basic_string@DU?$char_traits@D@std@@V?$allocator@D@2@@std@@V?$allocator@V?$basic_string@DU?$char_traits@D@std@@V?$allocator@D@2@@std@@@2@@std@@QEAAPEAU?$_Tree_node@V?$basic_string@DU?$char_traits@D@std@@V?$allocator@D@2@@std@@PEAX@1@AEBV?$basic_string@DU?$char_traits@D@std@@V?$allocator@D@2@@1@@Z 00000001801f2d90 f i OpenExr:ImfChannelList.obj
 0001:001f1e50       ??$_Buynode_if_nil@AEAU?$pair@$$CBVName@Imf@@UChannel@2@@std@@@?$_Tree@V?$_Tmap_traits@VName@Imf@@UChannel@2@U?$less@VName@Imf@@@std@@V?$allocator@U?$pair@$$CBVName@Imf@@UChannel@2@@std@@@5@$0A@@std@@@std@@IEAAPEAU?$_Tree_node@U?$pair@$$CBVName@Imf@@UChannel@2@@std@@PEAX@1@PEAU21@AEAU?$pair@$$CBVName@Imf@@UChannel@2@@1@@Z 00000001801f2e50 f i OpenExr:ImfChannelList.obj
 0001:001f1e70       ??$_Buynode_if_nil@AEBV?$basic_string@DU?$char_traits@D@std@@V?$allocator@D@2@@std@@@?$_Tree@V?$_Tset_traits@V?$basic_string@DU?$char_traits@D@std@@V?$allocator@D@2@@std@@U?$less@V?$basic_string@DU?$char_traits@D@std@@V?$allocator@D@2@@std@@@2@V?$allocator@V?$basic_string@DU?$char_traits@D@std@@V?$allocator@D@2@@std@@@2@$0A@@std@@@std@@IEAAPEAU?$_Tree_node@V?$basic_string@DU?$char_traits@D@std@@V?$allocator@D@2@@std@@PEAX@1@U_Nil@1@AEBV?$basic_string@DU?$char_traits@D@std@@V?$allocator@D@2@@1@@Z 00000001801f2e70 f i OpenExr:ImfChannelList.obj
 0001:001f1ec0       ??$_Debug_lt_pred@U?$less@V?$basic_string@DU?$char_traits@D@std@@V?$allocator@D@2@@std@@@std@@AEBV?$basic_string@DU?$char_traits@D@std@@V?$allocator@D@2@@2@AEBV32@@std@@YA_NU?$less@V?$basic_string@DU?$char_traits@D@std@@V?$allocator@D@2@@std@@@0@AEBV?$basic_string@DU?$char_traits@D@std@@V?$allocator@D@2@@0@1PEB_WI@Z 00000001801f2ec0 f i OpenExr:ImfChannelList.obj
 0001:001f1f80       ??$_Insert_at@AEAU?$pair@$$CBVName@Imf@@UChannel@2@@std@@PEAU?$_Tree_node@U?$pair@$$CBVName@Imf@@UChannel@2@@std@@PEAX@2@@?$_Tree@V?$_Tmap_traits@VName@Imf@@UChannel@2@U?$less@VName@Imf@@@std@@V?$allocator@U?$pair@$$CBVName@Imf@@UChannel@2@@std@@@5@$0A@@std@@@std@@IEAA?AV?$_Tree_iterator@V?$_Tree_val@U?$_Tree_simple_types@U?$pair@$$CBVName@Imf@@UChannel@2@@std@@@std@@@std@@@1@_NPEAU?$_Tree_node@U?$pair@$$CBVName@Imf@@UChannel@2@@std@@PEAX@1@AEAU?$pair@$$CBVName@Imf@@UChannel@2@@1@1@Z 00000001801f2f80 f i OpenExr:ImfChannelList.obj
 0001:001f23e0       ??$_Insert_at@AEBV?$basic_string@DU?$char_traits@D@std@@V?$allocator@D@2@@std@@U_Nil@2@@?$_Tree@V?$_Tset_traits@V?$basic_string@DU?$char_traits@D@std@@V?$allocator@D@2@@std@@U?$less@V?$basic_string@DU?$char_traits@D@std@@V?$allocator@D@2@@std@@@2@V?$allocator@V?$basic_string@DU?$char_traits@D@std@@V?$allocator@D@2@@std@@@2@$0A@@std@@@std@@IEAA?AV?$_Tree_const_iterator@V?$_Tree_val@U?$_Tree_simple_types@V?$basic_string@DU?$char_traits@D@std@@V?$allocator@D@2@@std@@@std@@@std@@@1@_NPEAU?$_Tree_node@V?$basic_string@DU?$char_traits@D@std@@V?$allocator@D@2@@std@@PEAX@1@AEBV?$basic_string@DU?$char_traits@D@std@@V?$allocator@D@2@@1@U_Nil@1@@Z 00000001801f33e0 f i OpenExr:ImfChannelList.obj
 0001:001f2840       ??$_Insert_hint@AEAU?$pair@$$CBVName@Imf@@UChannel@2@@std@@PEAU?$_Tree_node@U?$pair@$$CBVName@Imf@@UChannel@2@@std@@PEAX@2@@?$_Tree@V?$_Tmap_traits@VName@Imf@@UChannel@2@U?$less@VName@Imf@@@std@@V?$allocator@U?$pair@$$CBVName@Imf@@UChannel@2@@std@@@5@$0A@@std@@@std@@IEAA?AV?$_Tree_iterator@V?$_Tree_val@U?$_Tree_simple_types@U?$pair@$$CBVName@Imf@@UChannel@2@@std@@@std@@@std@@@1@V?$_Tree_const_iterator@V?$_Tree_val@U?$_Tree_simple_types@U?$pair@$$CBVName@Imf@@UChannel@2@@std@@@std@@@std@@@1@AEAU?$pair@$$CBVName@Imf@@UChannel@2@@1@PEAU?$_Tree_node@U?$pair@$$CBVName@Imf@@UChannel@2@@std@@PEAX@1@@Z 00000001801f3840 f i OpenExr:ImfChannelList.obj
 0001:001f3f60       ??$_Insert_nohint@AEAU?$pair@$$CBVName@Imf@@UChannel@2@@std@@PEAU?$_Tree_node@U?$pair@$$CBVName@Imf@@UChannel@2@@std@@PEAX@2@@?$_Tree@V?$_Tmap_traits@VName@Imf@@UChannel@2@U?$less@VName@Imf@@@std@@V?$allocator@U?$pair@$$CBVName@Imf@@UChannel@2@@std@@@5@$0A@@std@@@std@@IEAA?AU?$pair@V?$_Tree_iterator@V?$_Tree_val@U?$_Tree_simple_types@U?$pair@$$CBVName@Imf@@UChannel@2@@std@@@std@@@std@@@std@@_N@1@_NAEAU?$pair@$$CBVName@Imf@@UChannel@2@@1@PEAU?$_Tree_node@U?$pair@$$CBVName@Imf@@UChannel@2@@std@@PEAX@1@@Z 00000001801f4f60 f i OpenExr:ImfChannelList.obj
 0001:001f4600       ??$_Insert_nohint@AEBV?$basic_string@DU?$char_traits@D@std@@V?$allocator@D@2@@std@@U_Nil@2@@?$_Tree@V?$_Tset_traits@V?$basic_string@DU?$char_traits@D@std@@V?$allocator@D@2@@std@@U?$less@V?$basic_string@DU?$char_traits@D@std@@V?$allocator@D@2@@std@@@2@V?$allocator@V?$basic_string@DU?$char_traits@D@std@@V?$allocator@D@2@@std@@@2@$0A@@std@@@std@@IEAA?AU?$pair@V?$_Tree_const_iterator@V?$_Tree_val@U?$_Tree_simple_types@V?$basic_string@DU?$char_traits@D@std@@V?$allocator@D@2@@std@@@std@@@std@@@std@@_N@1@_NAEBV?$basic_string@DU?$char_traits@D@std@@V?$allocator@D@2@@1@U_Nil@1@@Z 00000001801f5600 f i OpenExr:ImfChannelList.obj
 0001:001f4ca0       ??$_Kfn@$$CBVName@Imf@@UChannel@2@@?$_Tmap_traits@VName@Imf@@UChannel@2@U?$less@VName@Imf@@@std@@V?$allocator@U?$pair@$$CBVName@Imf@@UChannel@2@@std@@@5@$0A@@std@@SAAEBVName@Imf@@AEBU?$pair@$$CBVName@Imf@@UChannel@2@@1@@Z 00000001801f5ca0 f i OpenExr:ImfChannelList.obj
 0001:001f4cb0       ??$addressof@PEAU?$_Tree_node@V?$basic_string@DU?$char_traits@D@std@@V?$allocator@D@2@@std@@PEAX@std@@@std@@YAPEAPEAU?$_Tree_node@V?$basic_string@DU?$char_traits@D@std@@V?$allocator@D@2@@std@@PEAX@0@AEAPEAU10@@Z 00000001801f5cb0 f i OpenExr:ImfChannelList.obj
 0001:001f4cc0       ??$addressof@V?$basic_string@DU?$char_traits@D@std@@V?$allocator@D@2@@std@@@std@@YAPEAV?$basic_string@DU?$char_traits@D@std@@V?$allocator@D@2@@0@AEAV10@@Z 00000001801f5cc0 f i OpenExr:ImfChannelList.obj
 0001:001f4cd0       ??$construct@PEAU?$_Tree_node@V?$basic_string@DU?$char_traits@D@std@@V?$allocator@D@2@@std@@PEAX@std@@AEAPEAU12@@?$_Wrap_alloc@V?$allocator@U?$_Tree_node@V?$basic_string@DU?$char_traits@D@std@@V?$allocator@D@2@@std@@PEAX@std@@@std@@@std@@QEAAXPEAPEAU?$_Tree_node@V?$basic_string@DU?$char_traits@D@std@@V?$allocator@D@2@@std@@PEAX@1@AEAPEAU21@@Z 00000001801f5cd0 f i OpenExr:ImfChannelList.obj
 0001:001f4d20       ??$construct@PEAU?$_Tree_node@V?$basic_string@DU?$char_traits@D@std@@V?$allocator@D@2@@std@@PEAX@std@@AEAPEAU12@@?$allocator@U?$_Tree_node@V?$basic_string@DU?$char_traits@D@std@@V?$allocator@D@2@@std@@PEAX@std@@@std@@QEAAXPEAPEAU?$_Tree_node@V?$basic_string@DU?$char_traits@D@std@@V?$allocator@D@2@@std@@PEAX@1@AEAPEAU21@@Z 00000001801f5d20 f i OpenExr:ImfChannelList.obj
 0001:001f4db0       ??$construct@PEAU?$_Tree_node@V?$basic_string@DU?$char_traits@D@std@@V?$allocator@D@2@@std@@PEAX@std@@AEAPEAU12@@?$allocator_traits@V?$allocator@U?$_Tree_node@V?$basic_string@DU?$char_traits@D@std@@V?$allocator@D@2@@std@@PEAX@std@@@std@@@std@@SAXAEAV?$allocator@U?$_Tree_node@V?$basic_string@DU?$char_traits@D@std@@V?$allocator@D@2@@std@@PEAX@std@@@1@PEAPEAU?$_Tree_node@V?$basic_string@DU?$char_traits@D@std@@V?$allocator@D@2@@std@@PEAX@1@AEAPEAU31@@Z 00000001801f5db0 f i OpenExr:ImfChannelList.obj
 0001:001f4e00       ??$construct@U?$pair@$$CBVName@Imf@@UChannel@2@@std@@AEBUpiecewise_construct_t@2@V?$tuple@$$QEAVName@Imf@@@2@V?$tuple@$$$V@2@@?$_Wrap_alloc@V?$allocator@U?$_Tree_node@U?$pair@$$CBVName@Imf@@UChannel@2@@std@@PEAX@std@@@std@@@std@@QEAAXPEAU?$pair@$$CBVName@Imf@@UChannel@2@@1@AEBUpiecewise_construct_t@1@$$QEAV?$tuple@$$QEAVName@Imf@@@1@$$QEAV?$tuple@$$$V@1@@Z 00000001801f5e00 f i OpenExr:ImfChannelList.obj
 0001:001f4e80       ??$construct@U?$pair@$$CBVName@Imf@@UChannel@2@@std@@AEBUpiecewise_construct_t@2@V?$tuple@$$QEAVName@Imf@@@2@V?$tuple@$$$V@2@@?$allocator@U?$_Tree_node@U?$pair@$$CBVName@Imf@@UChannel@2@@std@@PEAX@std@@@std@@QEAAXPEAU?$pair@$$CBVName@Imf@@UChannel@2@@1@AEBUpiecewise_construct_t@1@$$QEAV?$tuple@$$QEAVName@Imf@@@1@$$QEAV?$tuple@$$$V@1@@Z 00000001801f5e80 f i OpenExr:ImfChannelList.obj
 0001:001f4f80       ??$construct@U?$pair@$$CBVName@Imf@@UChannel@2@@std@@AEBUpiecewise_construct_t@2@V?$tuple@$$QEAVName@Imf@@@2@V?$tuple@$$$V@2@@?$allocator_traits@V?$allocator@U?$_Tree_node@U?$pair@$$CBVName@Imf@@UChannel@2@@std@@PEAX@std@@@std@@@std@@SAXAEAV?$allocator@U?$_Tree_node@U?$pair@$$CBVName@Imf@@UChannel@2@@std@@PEAX@std@@@1@PEAU?$pair@$$CBVName@Imf@@UChannel@2@@1@AEBUpiecewise_construct_t@1@$$QEAV?$tuple@$$QEAVName@Imf@@@1@$$QEAV?$tuple@$$$V@1@@Z 00000001801f5f80 f i OpenExr:ImfChannelList.obj
 0001:001f5000       ??$construct@V?$basic_string@DU?$char_traits@D@std@@V?$allocator@D@2@@std@@AEBV12@@?$_Wrap_alloc@V?$allocator@U?$_Tree_node@V?$basic_string@DU?$char_traits@D@std@@V?$allocator@D@2@@std@@PEAX@std@@@std@@@std@@QEAAXPEAV?$basic_string@DU?$char_traits@D@std@@V?$allocator@D@2@@1@AEBV21@@Z 00000001801f6000 f i OpenExr:ImfChannelList.obj
 0001:001f5050       ??$construct@V?$basic_string@DU?$char_traits@D@std@@V?$allocator@D@2@@std@@AEBV12@@?$allocator@U?$_Tree_node@V?$basic_string@DU?$char_traits@D@std@@V?$allocator@D@2@@std@@PEAX@std@@@std@@QEAAXPEAV?$basic_string@DU?$char_traits@D@std@@V?$allocator@D@2@@1@AEBV21@@Z 00000001801f6050 f i OpenExr:ImfChannelList.obj
