 ResIL

 Timestamp is 55aab131 (Sat Jul 18 23:04:01 2015)

 Preferred load address is 10000000

 Start         Length     Name                   Class
 0001:00000000 000005e9H .text$di                CODE
 0001:000005f0 00139186H .text$mn                CODE
 0001:00139780 0000756dH .text$x                 CODE
 0001:00140cf0 00001117H .text$yd                CODE
 0002:00000000 00000390H .idata$5                DATA
 0002:00000390 00000004H .CRT$XCA                DATA
 0002:00000394 00000004H .CRT$XCL                DATA
 0002:00000398 000000c8H .CRT$XCU                DATA
 0002:00000460 00000004H .CRT$XCZ                DATA
 0002:00000464 00000004H .CRT$XIA                DATA
 0002:00000468 00000004H .CRT$XIAA               DATA
 0002:0000046c 00000008H .CRT$XIC                DATA
 0002:00000474 00000004H .CRT$XIZ                DATA
 0002:00000478 00000004H .CRT$XLA                DATA
 0002:0000047c 00000004H .CRT$XLZ                DATA
 0002:00000480 0010aa60H .rdata                  DATA
 0002:0010aee0 00000018H .rdata$T                DATA
 0002:0010aef8 00000078H .rdata$debug            DATA
 0002:0010af70 0000429cH .rdata$r                DATA
 0002:0010f210 00000660H .rdata$sxdata           DATA
 0002:0010f870 00000004H .rtc$IAA                DATA
 0002:0010f874 00000004H .rtc$IZZ                DATA
 0002:0010f878 00000004H .rtc$TAA                DATA
 0002:0010f87c 00000004H .rtc$TZZ                DATA
 0002:0010f880 00009774H .xdata$x                DATA
 0002:00119000 00001997H .edata                  DATA
 0002:0011a998 00000050H .idata$2                DATA
 0002:0011a9e8 00000014H .idata$3                DATA
 0002:0011a9fc 00000390H .idata$4                DATA
 0002:0011ad8c 000017ecH .idata$6                DATA
 0003:00000000 001489d0H .data                   DATA
 0003:001489d0 00001f36H .data$r                 DATA
 0003:0014a908 00003428H .bss                    DATA
 0004:00000000 00000001H .tls                    DATA
 0004:00000004 00000004H .tls$                   DATA
 0004:00000008 00000001H .tls$ZZZ                DATA
 0005:00000000 00000058H .rsrc$01                DATA
 0005:00000060 00000180H .rsrc$02                DATA

  Address         Publics by Value              Rva+Base       Lib:Object

 0000:00000000       ___guard_fids_count        00000000     <absolute>
 0000:00000000       ___guard_flags             00000000     <absolute>
 0000:00000000       ___guard_fids_table        00000000     <absolute>
 0000:00000000       __except_list              00000000     <absolute>
 0000:0000002c       __tls_array                0000002c     <absolute>
 0000:00000198       ___safe_se_handler_count   00000198     <absolute>
 0000:00009876       __ldused                   00009876     <absolute>
 0000:00009876       __fltused                  00009876     <absolute>
 0000:00000000       ___ImageBase               10000000     <linker-defined>
 0001:000005f0       ?ialloc@@YGPAXI@Z          100015f0 f   il_alloc.obj
 0001:00000620       ?ifree@@YGXPBX@Z           10001620 f   il_alloc.obj
 0001:00000640       ?icalloc@@YGPAXII@Z        10001640 f   il_alloc.obj
 0001:000006c0       ?ilResetMemory@@YGXXZ      100016c0 f   il_alloc.obj
 0001:000006e0       ?ilSetMemory@@YGXP6GPAXI@ZP6GXQBX@Z@Z 100016e0 f   il_alloc.obj
 0001:00000710       ?ilGetCurImage@@YGPAUILimage@@XZ 10001710 f   il_api1.obj
 0001:00000720       ?ilSetCurImage@@YGXPAUILimage@@@Z 10001720 f   il_api1.obj
 0001:00000730       ?ilReplaceCurImage@@YGXPAUILimage@@@Z 10001730 f   il_api1.obj
 0001:000007b0       ?iBindImageTemp@@YGXXZ     100017b0 f   il_api1.obj
 0001:00000820       ?ilCloseImage@@YGXPAX@Z    10001820 f   il_api1.obj
 0001:00000930       ?ilGetCurName@@YGIXZ       10001930 f   il_api1.obj
 0001:00000960       ?iSetImage0@@YAXXZ         10001960 f   il_api1.obj
 0001:000009c0       ?ilRemoveAlpha@@YAEXZ      100019c0 f   il_api1.obj
 0001:000009d0       ?ilSwapColours@@YAEXZ      100019d0 f   il_api1.obj
 0001:000009e0       ?iEnlargeStack@@YAEXZ      100019e0 f   il_api1.obj
 0001:00000a70       ?iGetBaseImage@@YAPAUILimage@@XZ 10001a70 f   il_api1.obj
 0001:00000aa0       ?ilGenImages@@YGXIPAI@Z    10001aa0 f   il_api1.obj
 0001:00000b80       ?ilGenImage@@YGIXZ         10001b80 f   il_api1.obj
 0001:00000ba0       ?ilBindImage@@YGXI@Z       10001ba0 f   il_api1.obj
 0001:00000ca0       ?ilDeleteImages@@YGXIPBI@Z 10001ca0 f   il_api1.obj
 0001:00000d40       ?ilDeleteImage@@YGXI@Z     10001d40 f   il_api1.obj
 0001:00000d70       ?ilIsImage@@YGEI@Z         10001d70 f   il_api1.obj
 0001:00000da0       ?ilResetWrite@@YGXXZ       10001da0 f   il_api1.obj
 0001:00000dd0       ?ilSetRead@@YGXP6GPAXPB_W@ZP6GXPAUSIO@@@ZP6GE2@ZP6GH2@ZP6G_J2PAXII@ZP6G_J2_JI@ZP6G_J2@Z@Z 10001dd0 f   il_api1.obj
 0001:00000e00       ?ilResetRead@@YGXXZ        10001e00 f   il_api1.obj
 0001:00000e10       ?ilSetWrite@@YGXP6GPAXPB_W@ZP6GXPAUSIO@@@ZP6GHE2@ZP6G_J2_JI@ZP6G_J2@ZP6G_JPBXII2@Z@Z 10001e10 f   il_api1.obj
 0001:00000e40       ?ilGetLumpPos@@YG_KXZ      10001e40 f   il_api1.obj
 0001:00000e50       ?ilDetermineTypeFuncs@@YGIXZ 10001e50 f   il_api1.obj
 0001:00000e70       ?ilDetermineType@@YGIPB_W@Z 10001e70 f   il_api1.obj
 0001:00000e80       ?ilLoadF@@YGEIPAX@Z        10001e80 f   il_api1.obj
 0001:00000ea0       ?ilLoadL@@YGEIPBXI@Z       10001ea0 f   il_api1.obj
 0001:00000ec0       ?ilLoad@@YGEIPB_W@Z        10001ec0 f   il_api1.obj
 0001:00000ee0       ?ilLoadFuncs@@YGEI@Z       10001ee0 f   il_api1.obj
 0001:00000f00       ?ilLoadImage@@YGEPB_W@Z    10001f00 f   il_api1.obj
 0001:00000f20       ?ilSaveFuncs@@YGEI@Z       10001f20 f   il_api1.obj
 0001:00000f40       ?ilDetermineSize@@YG_JI@Z  10001f40 f   il_api1.obj
 0001:00000f60       ?ilSave@@YGEIPB_W@Z        10001f60 f   il_api1.obj
 0001:00000f80       ?ilSaveImage@@YGEPB_W@Z    10001f80 f   il_api1.obj
 0001:00000fa0       ?ilSaveF@@YGIIPAX@Z        10001fa0 f   il_api1.obj
 0001:00000fc0       ?ilSaveL@@YG_JIPAXI@Z      10001fc0 f   il_api1.obj
 0001:00000fe0       ?ilTexImage@@YGEIIIEIIPAX@Z 10001fe0 f   il_api1.obj
 0001:00001010       ?il2ApplyProfile@@YGEPA_W0@Z 10002010 f   il_api1.obj
 0001:00001030       ?ilConvertImage@@YGEII@Z   10002030 f   il_api1.obj
 0001:00001050       ?ilFixImage@@YAEXZ         10002050 f   il_api1.obj
 0001:00001060       ?ilFixCur@@YAEXZ           10002060 f   il_api1.obj
 0001:00001070       ?ilSetData@@YGEPAX@Z       10002070 f   il_api1.obj
 0001:00001090       ?ilGetData@@YGPAEXZ        10002090 f   il_api1.obj
 0001:000010a0       ?ilGetPalette@@YGPAEXZ     100020a0 f   il_api1.obj
 0001:000010b0       ?ilClearImage@@YGEXZ       100020b0 f   il_api1.obj
 0001:000010c0       ?ilSurfaceToDxtcData@@YGEI@Z 100020c0 f   il_api1.obj
 0001:000010e0       ?ilDefaultImage@@YGEXZ     100020e0 f   il_api1.obj
 0001:000010f0       ?ilGetAlpha@@YGPAEI@Z      100020f0 f   il_api1.obj
 0001:00001110       ?ilBlit@@YGEIHHHIIIIII@Z   10002110 f   il_api1.obj
 0001:00001180       ?ilOverlayImage@@YGEIHHH@Z 10002180 f   il_api1.obj
 0001:00001240       ?ilCopyImage@@YGEI@Z       10002240 f   il_api1.obj
 0001:000012b0       ?ilCloneCurImage@@YGIXZ    100022b0 f   il_api1.obj
 0001:00001330       ?ilActiveImage@@YGEI@Z     10002330 f   il_api1.obj
 0001:00001360       ?ilRecalloc@@YGPAXPAXII@Z  10002360 f   il_api1.obj
 0001:000013c0       ?ilShutDown@@YGXXZ         100023c0 f   il_api1.obj
 0001:00001540       ?ilActiveMipmap@@YGEI@Z    10002540 f   il_api1.obj
 0001:00001570       ?ilActiveFace@@YGEI@Z      10002570 f   il_api1.obj
 0001:000015a0       ?ilActiveLayer@@YGEI@Z     100025a0 f   il_api1.obj
 0001:000015d0       ?ilCreateSubImage@@YGIII@Z 100025d0 f   il_api1.obj
 0001:000015f0       ?iGetActiveNum@@YAII@Z     100025f0 f   il_api1.obj
 0001:00001690       ?ilSetImageInteger@@YGXIH@Z 10002690 f   il_api1.obj
 0001:000016b0       ?ilGetImageInteger@@YGXIPAH@Z 100026b0 f   il_api1.obj
 0001:000016d0       ?ilInit@@YGXXZ             100026d0 f   il_api1.obj
 0001:000016e0       ?ilRegisterPal@@YGXPAXII@Z 100026e0 f   il_api1.obj
 0001:00001700       ?ilGetIntegerv@@YGXIPAH@Z  10002700 f   il_api1.obj
 0001:00001710       ?ilGetInteger@@YGHI@Z      10002710 f   il_api1.obj
 0001:00001730       ?ilGetDXTCData@@YGIPAXII@Z 10002730 f   il_api1.obj
 0001:00001750       ?ilClearColour@@YGXMMMM@Z  10002750 f   il_api1.obj
 0001:00001790       ?ilEnable@@YGEI@Z          10002790 f   il_api1.obj
 0001:000017b0       ?ilDisable@@YGEI@Z         100027b0 f   il_api1.obj
 0001:000017d0       ?ilGetBooleanv@@YGXIPAE@Z  100027d0 f   il_api1.obj
 0001:000017e0       ?ilGetBoolean@@YGEI@Z      100027e0 f   il_api1.obj
 0001:000017f0       ?ilSetError@@YGXI@Z        100027f0 f   il_api1.obj
 0001:00001800       ?ilGetError@@YGIXZ         10002800 f   il_api1.obj
 0001:00001810       ?ilSetInteger@@YGXIH@Z     10002810 f   il_api1.obj
 0001:00001820       ?ilSetPixels@@YGXHHHIIIIIPAX@Z 10002820 f   il_api1.obj
 0001:00001850       ?ilConvertPal@@YGEI@Z      10002850 f   il_api1.obj
 0001:00001870       ?ilIsEnabled@@YGEI@Z       10002870 f   il_api1.obj
 0001:00001880       ?ilGetString@@YGPB_WI@Z    10002880 f   il_api1.obj
 0001:00001890       ?ilSetPal@@YGXPAVILpal@@@Z 10002890 f   il_api1.obj
 0001:000018b0       ?ilLoadPal@@YGEPB_W@Z      100028b0 f   il_api1.obj
 0001:000018d0       ?clear@ILpal@@QAEXXZ       100028d0 f i il_api1.obj
 0001:00001900       ?use@ILpal@@QAEEHPAEI@Z    10002900 f i il_api1.obj
 0001:00001a10       ?bfile@@YAPAUBITFILE@@PAUSIO@@@Z 10002a10 f   il_bits.obj
 0001:00001a60       ?bclose@@YAHPAUBITFILE@@@Z 10002a60 f   il_bits.obj
 0001:00001a80       ?btell@@YA_JPAUBITFILE@@@Z 10002a80 f   il_bits.obj
 0001:00001a90       ?bseek@@YAHPAUBITFILE@@II@Z 10002a90 f   il_bits.obj
 0001:00001ba0       ?bread@@YAHPAXIIPAUBITFILE@@@Z 10002ba0 f   il_bits.obj
 0001:00001c20       ?breadVal@@YAIIPAUBITFILE@@@Z 10002c20 f   il_bits.obj
 0001:00001c90       ?iIsValidBlp@@YAEPAUSIO@@@Z 10002c90 f   il_blp.obj
 0001:00001cc0       ?iLoadBlpInternal@@YAEPAUILimage@@@Z 10002cc0 f   il_blp.obj
 0001:000023e0       ?iGetBlp2Head@@YAHPAUSIO@@PAUBLP2HEAD@@@Z 100033e0 f   il_blp.obj
 0001:00002400       ?iGetBlp1Head@@YAHPAUSIO@@PAUBLP1HEAD@@@Z 10003400 f   il_blp.obj
 0001:00002420       ?iCheckBlp2@@YAEPAUBLP2HEAD@@@Z 10003420 f   il_blp.obj
 0001:00002490       ?iIsValidBlp2@@YAEPAUSIO@@@Z 10003490 f   il_blp.obj
 0001:00002510       ?iCheckBlp1@@YAEPAUBLP1HEAD@@@Z 10003510 f   il_blp.obj
 0001:00002560       ?iIsValidBlp1@@YAEPAUSIO@@@Z 10003560 f   il_blp.obj
 0001:00002620       ?iLoadBlp1@@YAEPAUILimage@@@Z 10003620 f   il_blp.obj
 0001:00002b40       ??4ILpal@@QAEXABV0@@Z      10003b40 f i il_blp.obj
 0001:00002ba0       ?GetLittleUInt@@YAIPAUSIO@@@Z 10003ba0 f i il_blp.obj
 0001:00002bc0       ?hasPalette@ILpal@@QBEEXZ  10003bc0 f i il_blp.obj
 0001:00002be0       ?readFromFile@ILpal@@QAEEPAUSIO@@@Z 10003be0 f i il_blp.obj
 0001:00002c10       ?iIsValidBmp@@YAEPAUSIO@@@Z 10003c10 f   il_bmp.obj
 0001:00002ce0       ?iLoadBitmapInternal@@YAEPAUILimage@@@Z 10003ce0 f   il_bmp.obj
 0001:00002e40       ?iSaveBitmapInternal@@YAEPAUILimage@@@Z 10003e40 f   il_bmp.obj
 0001:000031c0       ?flipHeaderEndians@@YAXQAUBMPHEAD@@@Z 100041c0 f   il_bmp.obj
 0001:000031d0       ?iGetBmpHead@@YAEPAUSIO@@QAUBMPHEAD@@@Z 100041d0 f   il_bmp.obj
 0001:00003220       ?iGetOS2Head@@YAEPAUSIO@@QAUOS2_HEAD@@@Z 10004220 f   il_bmp.obj
 0001:00003270       ?iCheckBmp@@YAEQBUBMPHEAD@@@Z 10004270 f   il_bmp.obj
 0001:000032f0       ?iCheckOS2@@YAEQBUOS2_HEAD@@@Z 100042f0 f   il_bmp.obj
 0001:00003350       ?iGetOS2Bmp@@YAEPAUILimage@@PAUOS2_HEAD@@@Z 10004350 f   il_bmp.obj
 0001:00003780       ?prepareBMP@@YAEPAUILimage@@PAUBMPHEAD@@EI@Z 10004780 f   il_bmp.obj
 0001:000037c0       ?ilReadUncompBmp1@@YAEPAUILimage@@PAUBMPHEAD@@@Z 100047c0 f   il_bmp.obj
 0001:00003950       ?ilReadUncompBmp4@@YAEPAUILimage@@PAUBMPHEAD@@@Z 10004950 f   il_bmp.obj
 0001:00003af0       ?ilReadUncompBmp8@@YAEPAUILimage@@PAUBMPHEAD@@@Z 10004af0 f   il_bmp.obj
 0001:00003c50       ?ilReadUncompBmp16@@YAEPAUILimage@@PAUBMPHEAD@@@Z 10004c50 f   il_bmp.obj
 0001:00003e90       ?ilReadUncompBmp24@@YAEPAUILimage@@PAUBMPHEAD@@@Z 10004e90 f   il_bmp.obj
 0001:00003f70       ?ilReadUncompBmp32@@YAEPAUILimage@@PAUBMPHEAD@@@Z 10004f70 f   il_bmp.obj
 0001:00004040       ?ilReadUncompBmp@@YAEPAUILimage@@PAUBMPHEAD@@@Z 10005040 f   il_bmp.obj
 0001:00004120       ?ilReadRLE8Bmp@@YAEPAUILimage@@PAUBMPHEAD@@@Z 10005120 f   il_bmp.obj
 0001:00004360       ?ilReadRLE4Bmp@@YAEPAUILimage@@PAUBMPHEAD@@@Z 10005360 f   il_bmp.obj
 0001:00004600       ??0ILpal@@QAE@XZ           10005600 f i il_bmp.obj
 0001:00004630       ??1ILpal@@UAE@XZ           10005630 f i il_bmp.obj
 0001:00004660       ??_GILpal@@UAEPAXI@Z       10005660 f i il_bmp.obj
 0001:00004660       ??_EILpal@@UAEPAXI@Z       10005660 f i il_bmp.obj
 0001:000046a0       ?GetShiftFromMask@@YAXIQAI0@Z 100056a0 f i il_bmp.obj
 0001:000046f0       ?setRGBA@ILpal@@QAEEIEEEE@Z 100056f0 f i il_bmp.obj
 0001:00004760       ?writeToFile@ILpal@@QAEEPAUSIO@@@Z 10005760 f i il_bmp.obj
 0001:000047a0       ?ilConvertBuffer@@YGPAXIIIIIPAVILpal@@PAX@Z 100057a0 f   il_convbuff.obj
 0001:000089a0       ?iSwitchTypes@@YGPAXIIIPAX@Z 100099a0 f   il_convbuff.obj
 0001:00009fe0       ?ilFloatToHalf@@YGGI@Z     1000afe0 f i il_convbuff.obj
 0001:0000a0a0       ?ilHalfToFloat@@YGIG@Z     1000b0a0 f i il_convbuff.obj
 0001:0000a120       ?il2ConvertImage@@YGEPAUILimage@@II@Z 1000b120 f   il_convert.obj
 0001:0000a250       ?il2FixImage@@YAEPAUILimage@@@Z 1000b250 f   il_convert.obj
 0001:0000a440       ?il2RemoveAlpha@@YAEPAUILimage@@@Z 1000b440 f   il_convert.obj
 0001:0000a690       ?il2SwapColours@@YAEPAUILimage@@@Z 1000b690 f   il_convert.obj
 0001:0000a9b0       ?iConvertImage@@YGPAUILimage@@PAU1@II@Z 1000b9b0 f   il_convert.obj
 0001:0000ac70       ?ilAddAlphaKey@@YAEPAUILimage@@@Z 1000bc70 f   il_convert.obj
 0001:0000b220       ?iConvertPalette@@YAPAUILimage@@PAU1@I@Z 1000c220 f   il_convert.obj
 0001:0000b260       ?ilAddAlpha@@YAEPAUILimage@@@Z 1000c260 f   il_convert.obj
 0001:0000b500       ?ilKeyColour@@YGXMMMM@Z    1000c500 f   il_convert.obj
 0001:0000b510       ?il2FixCur@@YAEPAUILimage@@@Z 1000c510 f   il_convert.obj
 0001:0000b5f0       ?getRGB@ILpal@@QAEEIAAE00@Z 1000c5f0 f i il_convert.obj
 0001:0000b650       ?setRGB@ILpal@@QAEEIEEE@Z  1000c650 f i il_convert.obj
 0001:0000b6b0       ?iLoadCutInternal@@YAEPAUILimage@@@Z 1000c6b0 f   il_cut.obj
 0001:0000b860       ?isValidCutHeader@@YAEPBUCUT_HEAD@@@Z 1000c860 f   il_cut.obj
 0001:0000b890       ?iIsValidCut@@YAEPAUSIO@@@Z 1000c890 f   il_cut.obj
 0001:0000b8e0       ?readScanLine@@YA_NPAUILimage@@PAEGH@Z 1000c8e0 f   il_cut.obj
 0001:0000b9c0       ?iGetDcxHead@@YAEPAUSIO@@PAUDCXHEAD@@@Z 1000c9c0 f   il_dcx.obj
 0001:0000bab0       ?iIsValidDcx@@YAEPAUSIO@@@Z 1000cab0 f   il_dcx.obj
 0001:0000bb00       ?iCheckDcx@@YAEPAUDCXHEAD@@@Z 1000cb00 f   il_dcx.obj
 0001:0000bb40       ?iUncompressDcxSmall@@YAPAUILimage@@PAU1@PAUDCXHEAD@@@Z 1000cb40 f   il_dcx.obj
 0001:0000bf80       ?iUncompressDcx@@YAPAUILimage@@PAU1@PAUDCXHEAD@@@Z 1000cf80 f   il_dcx.obj
 0001:0000c200       ?iLoadDcxInternal@@YAEPAUILimage@@@Z 1000d200 f   il_dcx.obj
 0001:0000c390       ?GetLittleUShort@@YAGPAUSIO@@@Z 1000d390 f i il_dcx.obj
 0001:0000c3b0       ?il2GetDXTCData@@YGIPAUILimage@@PAXII@Z 1000d3b0 f   il_dds-save.obj
 0001:0000c4e0       ?iSaveDdsInternal@@YAEPAUILimage@@@Z 1000d4e0 f   il_dds-save.obj
 0001:0000c5f0       ?WriteHeader@@YAEPAUILimage@@II@Z 1000d5f0 f   il_dds-save.obj
 0001:0000c930       ?CorrectEndDXT1@@YAXPAG0E@Z 1000d930 f   il_dds-save.obj
 0001:0000c970       ?GetCubemapInfo@@YAIPAUILimage@@PAH@Z 1000d970 f   il_dds-save.obj
 0001:0000cb00       ?CompressTo88@@YAPAEPAUILimage@@@Z 1000db00 f   il_dds-save.obj
 0001:0000cc90       ?CompressToRXGB@@YAXPAUILimage@@PAPAGPAPAE@Z 1000dc90 f   il_dds-save.obj
 0001:0000cfd0       ?Distance@@YAIPAUColor888@@0@Z 1000dfd0 f   il_dds-save.obj
 0001:0000d010       ?ShortToColor888@@YAXGPAUColor888@@@Z 1000e010 f   il_dds-save.obj
 0001:0000d040       ?Color565ToShort@@YAGPAUColor565@@@Z 1000e040 f   il_dds-save.obj
 0001:0000d050       ?Color888ToShort@@YAGPAUColor888@@@Z 1000e050 f   il_dds-save.obj
 0001:0000d080       ?GenBitMask@@YAIGGIPAGPAEPAUColor888@@@Z 1000e080 f   il_dds-save.obj
 0001:0000d390       ?GenAlphaBitMask@@YAXEEPAE00@Z 1000e390 f   il_dds-save.obj
 0001:0000d670       ?GetBlock@@YAEPAG0PAUILimage@@II@Z 1000e670 f   il_dds-save.obj
 0001:0000d730       ?GetAlphaBlock@@YAEPAE0PAUILimage@@II@Z 1000e730 f   il_dds-save.obj
 0001:0000d7e0       ?Get3DcBlock@@YAEPAE0PAUILimage@@IIH@Z 1000e7e0 f   il_dds-save.obj
 0001:0000d870       ?ShortToColor565@@YAXGPAUColor565@@@Z 1000e870 f   il_dds-save.obj
 0001:0000d8b0       ?As16Bit@@YAGHHH@Z         1000e8b0 f   il_dds-save.obj
 0001:0000d910       ?CompressTo565@@YAPAGPAUILimage@@@Z 1000e910 f   il_dds-save.obj
 0001:0000dc00       ?ChooseEndpoints@@YAXPAG00@Z 1000ec00 f   il_dds-save.obj
 0001:0000dd10       ?ChooseAlphaEndpoints@@YAXPAE00@Z 1000ed10 f   il_dds-save.obj
 0001:0000dd50       ?Compress@@YAIPAUILimage@@I@Z 1000ed50 f   il_dds-save.obj
 0001:0000e5e0       ?PreMult@@YAXPAGPAE@Z      1000f5e0 f   il_dds-save.obj
 0001:0000e670       ?ilCompressDXT@@YGPAEPAUILimage@@PAEIIIIPAI@Z 1000f670 f   il_dds-save.obj
 0001:0000e790       ?iIsValidDds@@YAEPAUSIO@@@Z 1000f790 f   il_dds.obj
 0001:0000e820       ?iLoadDdsInternal@@YAEPAUILimage@@@Z 1000f820 f   il_dds.obj
 0001:0000ea50       ?iSurfaceToDxtcData@@YGEPAUILimage@@I@Z 1000fa50 f   il_dds.obj
 0001:0000ead0       ?DecompressDXT1@@YAEPAUILimage@@PAE@Z 1000fad0 f   il_dds.obj
 0001:0000ee40       ?DecompressDXT3@@YAEPAUILimage@@AAPAE@Z 1000fe40 f   il_dds.obj
 0001:0000f350       ?DecompressDXT5@@YAEPAUILimage@@AAPAE@Z 10010350 f   il_dds.obj
 0001:0000fab0       ?iConvFloat16ToFloat32@@YAEPAIPAGI@Z 10010ab0 f   il_dds.obj
 0001:0000fb50       ?DxtcReadColor@@YAXGPAUColor8888@@@Z 10010b50 f   il_dds.obj
 0001:0000fba0       ?iGetDdsHead@@YAEPAUSIO@@PAUDDSHEAD@@@Z 10010ba0 f   il_dds.obj
 0001:0000fda0       ?iCheckDds@@YAEPAUDDSHEAD@@@Z 10010da0 f   il_dds.obj
 0001:0000fdf0       ?Check16BitComponents@@YAXPAUDDSHEAD@@AAE@Z 10010df0 f   il_dds.obj
 0001:0000fe60       ?iCompFormatToBpp@@YAEPAUDDSHEAD@@I@Z 10010e60 f   il_dds.obj
 0001:0000fec0       ?iCompFormatToBpc@@YAEIE@Z 10010ec0 f   il_dds.obj
 0001:0000ff00       ?iCompFormatToChannelCount@@YAEI@Z 10010f00 f   il_dds.obj
 0001:0000ff50       ?ReadData@@YAEPAUSIO@@PAUDDSHEAD@@AAPAE@Z 10010f50 f   il_dds.obj
 0001:00010040       ?AllocImage@@YAEPAUILimage@@PAUDDSHEAD@@IAAPAEE@Z 10011040 f   il_dds.obj
 0001:00010220       ?CountBitsFromMask@@YAII@Z 10011220 f   il_dds.obj
 0001:00010260       ?GetBitsFromMask@@YAXIPAI0@Z 10011260 f   il_dds.obj
 0001:000102b0       ?DecompressARGB16@@YAEPAUILimage@@PAUDDSHEAD@@IAAPAE@Z 100112b0 f   il_dds.obj
 0001:00010540       ?DecompressARGB@@YAEPAUILimage@@PAUDDSHEAD@@IAAPAEE@Z 10011540 f   il_dds.obj
 0001:00010780       ?DxtcReadColors@@YAXPBEPAUColor8888@@@Z 10011780 f   il_dds.obj
 0001:00010820       ?CorrectPreMult@@YAXPAUILimage@@@Z 10011820 f   il_dds.obj
 0001:00010890       ?DecompressDXT2@@YAEPAUILimage@@AAPAE@Z 10011890 f   il_dds.obj
 0001:000108c0       ?DecompressDXT4@@YAEPAUILimage@@AAPAE@Z 100118c0 f   il_dds.obj
 0001:000108f0       ?Decompress3Dc@@YAEPAUILimage@@PAUDDSHEAD@@AAPAE@Z 100118f0 f   il_dds.obj
 0001:00010d40       ?dds_halfToFloat@@YAIG@Z   10011d40 f   il_dds.obj
 0001:00010dc0       ?iConvG16R16ToFloat32@@YAEPAIPAGI@Z 10011dc0 f   il_dds.obj
 0001:00010e80       ?iConvR16ToFloat32@@YAEPAIPAGI@Z 10011e80 f   il_dds.obj
 0001:00010f30       ?DecompressFloat@@YAEPAUILimage@@IAAPAE@Z 10011f30 f   il_dds.obj
 0001:000110a0       ?DecompressAti1n@@YAEPAUILimage@@PAUDDSHEAD@@AAPAE@Z 100120a0 f   il_dds.obj
 0001:00011390       ?DecompressRXGB@@YAEPAUILimage@@PAUDDSHEAD@@AAPAE@Z 10012390 f   il_dds.obj
 0001:00011b50       ?DdsDecompress@@YAEPAUILimage@@PAUDDSHEAD@@IAAPAE@Z 10012b50 f   il_dds.obj
 0001:00011c90       ?ReadMipmaps@@YAEPAUILimage@@PAUDDSHEAD@@IAAPAEEPAUSIO@@@Z 10012c90 f   il_dds.obj
 0001:00011fe0       ?iLoadDdsCubemapInternal@@YAEPAUILimage@@PAUDDSHEAD@@IE@Z 10012fe0 f   il_dds.obj
 0001:000121d0       ?DecodePixelFormat@@YAIPAUDDSHEAD@@PAI@Z 100131d0 f   il_dds.obj
 0001:00012460       ?AdjustVolumeTexture@@YAXPAUDDSHEAD@@I@Z 10013460 f   il_dds.obj
 0001:00012590       ?ilGetDxtcData@@YGPAEPAUILimage@@@Z 10013590 f   il_dds.obj
 0001:000125c0       ?ilFreeSurfaceDxtcData@@YAXPAUILimage@@@Z 100135c0 f   il_dds.obj
 0001:00012600       ?ilFreeImageDxtcData@@YAXPAUILimage@@@Z 10013600 f   il_dds.obj
 0001:000126b0       ?iDxtcDataToSurface@@YGEPAUILimage@@PAUDDSHEAD@@@Z 100136b0 f   il_dds.obj
 0001:000127a0       ?iDxtcDataToImage@@YGEPAUILimage@@PAUDDSHEAD@@@Z 100137a0 f   il_dds.obj
 0001:00012920       ?ilImageToDxtcData@@YGEPAUILimage@@I@Z 10013920 f   il_dds.obj
 0001:00012a30       ?ilTexImageDxtc@@YGEPAUILimage@@HHHIPBE@Z 10013a30 f   il_dds.obj
 0001:00012b60       ?iFlipColorBlock@@YAXPAE@Z 10013b60 f   il_dds.obj
 0001:00012b90       ?iFlipSimpleAlphaBlock@@YAXPAG@Z 10013b90 f   il_dds.obj
 0001:00012bc0       ?iComplexAlphaHelper@@YAXPAE@Z 10013bc0 f   il_dds.obj
 0001:00012c30       ?iFlipComplexAlphaBlock@@YAXPAE@Z 10013c30 f   il_dds.obj
 0001:00012d00       ?iFlipDxt1@@YAXPAEI@Z      10013d00 f   il_dds.obj
 0001:00012d40       ?iFlipDxt3@@YAXPAEI@Z      10013d40 f   il_dds.obj
 0001:00012da0       ?iFlipDxt5@@YAXPAEI@Z      10013da0 f   il_dds.obj
 0001:00012df0       ?iFlip3dc@@YAXPAEI@Z       10013df0 f   il_dds.obj
 0001:00012ef0       ?ilFlipSurfaceDxtcData@@YGXPAUILimage@@@Z 10013ef0 f   il_dds.obj
 0001:00013090       ?iInvertDxt3Alpha@@YAXPAE@Z 10014090 f   il_dds.obj
 0001:000130b0       ?iInvertDxt5Alpha@@YAXPAE@Z 100140b0 f   il_dds.obj
 0001:00013170       ?ilInvertSurfaceDxtcDataAlpha@@YGEPAUILimage@@@Z 10014170 f   il_dds.obj
 0001:00013200       ?il2GenImage@@YGPAUILimage@@XZ 10014200 f   il_devil.obj
 0001:00013250       ?il2NewImage@@YGPAUILimage@@IIIEE@Z 10014250 f   il_devil.obj
 0001:000132d0       ?il2DeleteImage@@YGXPAUILimage@@@Z 100142d0 f   il_devil.obj
 0001:00013330       ?il2Blit@@YGEPAUILimage@@0HHHIIIIII@Z 10014330 f   il_devil.obj
 0001:00013840       ?il2ClearColour@@YGXMMMM@Z 10014840 f   il_devil.obj
 0001:00013970       ?il2ClearImage@@YGEPAUILimage@@@Z 10014970 f   il_devil.obj
 0001:00013c40       ?il2CloneImage@@YGPAUILimage@@PAU1@@Z 10014c40 f   il_devil.obj
 0001:00013c90       ?il2CopyImage@@YGEPAUILimage@@0@Z 10014c90 f   il_devil.obj
 0001:00013ce0       ?il2Disable@@YGEI@Z        10014ce0 f   il_devil.obj
 0001:00013d00       ?il2Enable@@YGEI@Z         10014d00 f   il_devil.obj
 0001:00013d20       ?il2GetData@@YGPAEPAUILimage@@@Z 10014d20 f   il_devil.obj
 0001:00013d50       ?il2GetFace@@YGPAUILimage@@PAU1@I@Z 10014d50 f   il_devil.obj
 0001:00013da0       ?il2GetFrame@@YGPAUILimage@@PAU1@I@Z 10014da0 f   il_devil.obj
 0001:00013df0       ?il2GetLayer@@YGPAUILimage@@PAU1@I@Z 10014df0 f   il_devil.obj
 0001:00013e40       ?il2GetMipmap@@YGPAUILimage@@PAU1@I@Z 10014e40 f   il_devil.obj
 0001:00013f50       ?il2GetPalette@@YGPAEPAUILimage@@@Z 10014f50 f   il_devil.obj
 0001:00013f80       ?il2OverlayImage@@YGEPAUILimage@@0HHH@Z 10014f80 f   il_devil.obj
 0001:00013fb0       ?il2SetData@@YGEPAUILimage@@PAX@Z 10014fb0 f   il_devil.obj
 0001:00014010       ?il2TexImage@@YGEPAUILimage@@IIIEIIPAX@Z 10015010 f   il_devil.obj
 0001:00014170       ?il2CopyImageAttr@@YGEPAUILimage@@0@Z 10015170 f   il_devil.obj
 0001:00014340       ?il2GetClear@@YGXPAXII@Z   10015340 f   il_devil.obj
 0001:00014a90       ?ilNewImageFull@@YGPAUILimage@@IIIEIIPAX@Z 10015a90 f   il_devil.obj
 0001:00014af0       ?il2InitImage@@YGEPAUILimage@@IIIEIIPAX@Z 10015af0 f   il_devil.obj
 0001:00014b70       ?il2ResizeImage@@YGEPAUILimage@@IIIEE@Z 10015b70 f   il_devil.obj
 0001:00014bf0       ?il2TexSubImage_@@YGEPAUILimage@@PAX@Z 10015bf0 f   il_devil.obj
 0001:00014c40       ?iCopySubImage@@YAEPAUILimage@@0@Z 10015c40 f   il_devil.obj
 0001:00014e60       ?iCopySubImages@@YAEPAUILimage@@0@Z 10015e60 f   il_devil.obj
 0001:00014f30       ?il2CopyImage_@@YGPAUILimage@@PAU1@@Z 10015f30 f   il_devil.obj
 0001:00014fa0       ?iIsValidDicom@@YAEPAUSIO@@@Z 10015fa0 f   il_dicom.obj
 0001:00015060       ?iLoadDicomInternal@@YAEPAUILimage@@@Z 10016060 f   il_dicom.obj
 0001:00015300       ?GetGroupNum@@YAIPAUSIO@@PAUDICOMHEAD@@@Z 10016300 f   il_dicom.obj
 0001:00015340       ?GetShort@@YAIPAUSIO@@PAUDICOMHEAD@@G@Z 10016340 f   il_dicom.obj
 0001:00015390       ?GetInt@@YAIPAUSIO@@PAUDICOMHEAD@@G@Z 10016390 f   il_dicom.obj
 0001:00015400       ?GetFloat@@YAMPAUSIO@@PAUDICOMHEAD@@G@Z 10016400 f   il_dicom.obj
 0001:00015460       ?GetNumericValue@@YAEPAUSIO@@PAUDICOMHEAD@@GPAI@Z 10016460 f   il_dicom.obj
 0001:000154f0       ?GetUID@@YAEPAUSIO@@PAE@Z  100164f0 f   il_dicom.obj
 0001:00015550       ?SkipElement@@YAEPAUSIO@@PAUDICOMHEAD@@GG@Z 10016550 f   il_dicom.obj
 0001:000155f0       ?iGetDicomHead@@YAEPAUSIO@@PAUDICOMHEAD@@@Z 100165f0 f   il_dicom.obj
 0001:00015950       ?iCheckDicom@@YAEPAUDICOMHEAD@@@Z 10016950 f   il_dicom.obj
 0001:000159b0       ?iSwapUInt@@YAXPAI@Z       100169b0 f i il_dicom.obj
 0001:000159b0       ?iSwapFloat@@YAXPAM@Z      100169b0 f i il_dicom.obj
 0001:000159f0       ?iLoadDoomInternal@@YAEPAUILimage@@@Z 100169f0 f   il_doom.obj
 0001:00015d20       ?iLoadDoomFlatInternal@@YAEPAUILimage@@@Z 10016d20 f   il_doom.obj
 0001:00015ec0       ?getRGBA@ILpal@@QAEEIAAE000@Z 10016ec0 f i il_doom.obj
 0001:00015f30       ?iLoadDpxInternal@@YAEPAUILimage@@@Z 10016f30 f   il_dpx.obj
 0001:00016400       ?DpxGetFileInfo@@YAEPAUSIO@@PAUDPX_FILE_INFO@@@Z 10017400 f   il_dpx.obj
 0001:00016650       ?GetImageElement@@YAEPAUSIO@@PAUDPX_IMAGE_ELEMENT@@@Z 10017650 f   il_dpx.obj
 0001:00016840       ?DpxGetImageInfo@@YAEPAUSIO@@PAUDPX_IMAGE_INFO@@@Z 10017840 f   il_dpx.obj
 0001:00016920       ?DpxGetImageOrient@@YAEPAUSIO@@PAUDPX_IMAGE_ORIENT@@@Z 10017920 f   il_dpx.obj
 0001:00016b80       ?GetBigUInt@@YAIPAUSIO@@@Z 10017b80 f i il_dpx.obj
 0001:00016b80       ?GetBigInt@@YAHPAUSIO@@@Z  10017b80 f i il_fits.obj
 0001:00016bd0       ?EndianSwapData@@YAXPAX@Z  10017bd0 f   il_endian.obj
 0001:000171a0       ?iSwapDouble@@YAXPAN@Z     100181a0 f i il_endian.obj
 0001:000171e0       ?il2GetError@@YGIXZ        100181e0 f   il_error.obj
 0001:00017200       ?il2SetError@@YGXI@Z       10018200 f   il_error.obj
 0001:00017220       ?iIsValidExr@@YAEPAUSIO@@@Z 10018220 f   il_exr.obj
 0001:00017280       ?iLoadExrInternal@@YAEPAUILimage@@@Z 10018280 f   il_exr.obj
 0001:000174d0       ?iSaveExrInternal@@YAEPAUILimage@@@Z 100184d0 f   il_exr.obj
 0001:00017890       ??0ilIStream@@QAE@PAUILimage@@@Z 10018890 f   il_exr.obj
 0001:000178d0       ?read@ilIStream@@UAE_NQADH@Z 100188d0 f   il_exr.obj
 0001:00017910       ?tellg@ilIStream@@UAE_KXZ  10018910 f   il_exr.obj
 0001:00017920       ?seekg@ilIStream@@UAEX_K@Z 10018920 f   il_exr.obj
 0001:00017940       ?clear@ilIStream@@UAEXXZ   10018940 f   il_exr.obj
 0001:00017950       ??0ilOStream@@QAE@PAUILimage@@@Z 10018950 f   il_exr.obj
 0001:00017980       ?write@ilOStream@@UAEXQBDH@Z 10018980 f   il_exr.obj
 0001:000179a0       ?tellp@ilOStream@@UAE_KXZ  100189a0 f   il_exr.obj
 0001:000179b0       ?seekp@ilOStream@@UAEX_K@Z 100189b0 f   il_exr.obj
 0001:000179d0       ?iGetExrHead@@YAHPAUSIO@@PAUEXRHEAD@@@Z 100189d0 f   il_exr.obj
 0001:000179f0       ?iCheckExr@@YAEPAUEXRHEAD@@@Z 100189f0 f   il_exr.obj
 0001:00017a20       ??$destroy@PAD@?$_Wrap_alloc@V?$allocator@D@std@@@std@@QAEXPAPAD@Z 10018a20 f i il_exr.obj
 0001:00017a30       ??0?$_Wrap_alloc@V?$allocator@D@std@@@std@@QAE@XZ 10018a30 f i il_exr.obj
 0001:00017a40       ??0?$basic_string@DU?$char_traits@D@std@@V?$allocator@D@2@@std@@QAE@PBD@Z 10018a40 f i il_exr.obj
 0001:00017aa0       ??0half@@QAE@M@Z           10018aa0 f i il_exr.obj
 0001:00017b20       ??1?$Array@I@Imf@@QAE@XZ   10018b20 f i OpenExr:ImfDeepScanLineInputFile.obj
 0001:00017b20       ??1?$Array@_N@Imf@@QAE@XZ  10018b20 f i OpenExr:ImfDeepScanLineInputFile.obj
 0001:00017b20       ??1?$Array@D@Imf@@QAE@XZ   10018b20 f i OpenExr:ImfOpaqueAttribute.obj
 0001:00017b20       ??1?$Array@URgba@Imf@@@Imf@@QAE@XZ 10018b20 f i il_exr.obj
 0001:00017b30       ??1ilIStream@@UAE@XZ       10018b30 f i il_exr.obj
 0001:00017b40       ??1ilOStream@@UAE@XZ       10018b40 f i il_exr.obj
 0001:00017b50       ??3@YAXPAX0@Z              10018b50 f i il_exr.obj
 0001:00017b60       ??_E_System_error_category@std@@UAEPAXI@Z 10018b60 f i il_exr.obj
 0001:00017b60       ??_G_Generic_error_category@std@@UAEPAXI@Z 10018b60 f i il_exr.obj
 0001:00017b60       ??_G_System_error_category@std@@UAEPAXI@Z 10018b60 f i il_exr.obj
 0001:00017b60       ??_E_Iostream_error_category@std@@UAEPAXI@Z 10018b60 f i il_exr.obj
 0001:00017b60       ??_E_Generic_error_category@std@@UAEPAXI@Z 10018b60 f i il_exr.obj
 0001:00017b60       ??_Eerror_category@std@@UAEPAXI@Z 10018b60 f i il_exr.obj
 0001:00017b60       ??_G_Iostream_error_category@std@@UAEPAXI@Z 10018b60 f i il_exr.obj
 0001:00017b60       ??_Gerror_category@std@@UAEPAXI@Z 10018b60 f i il_exr.obj
 0001:00017b90       ??_GilIStream@@UAEPAXI@Z   10018b90 f i il_exr.obj
 0001:00017b90       ??_EilIStream@@UAEPAXI@Z   10018b90 f i il_exr.obj
 0001:00017bc0       ??_EilOStream@@UAEPAXI@Z   10018bc0 f i il_exr.obj
 0001:00017bc0       ??_GilOStream@@UAEPAXI@Z   10018bc0 f i il_exr.obj
 0001:00017bf0       ?_Copy@?$basic_string@DU?$char_traits@D@std@@V?$allocator@D@2@@std@@QAEXII@Z 10018bf0 f i il_exr.obj
 0001:00017d40       ?_Eos@?$basic_string@DU?$char_traits@D@std@@V?$allocator@D@2@@std@@QAEXI@Z 10018d40 f i il_exr.obj
 0001:00017d70       ?_Grow@?$basic_string@DU?$char_traits@D@std@@V?$allocator@D@2@@std@@QAE_NI_N@Z 10018d70 f i il_exr.obj
 0001:00017e20       ?_Tidy@?$basic_string@DU?$char_traits@D@std@@V?$allocator@D@2@@std@@QAEX_NI@Z 10018e20 f i il_exr.obj
 0001:00017e70       ?allocate@?$allocator@D@std@@QAEPADI@Z 10018e70 f i il_exr.obj
 0001:00017e70       ?allocate@?$_Wrap_alloc@V?$allocator@D@std@@@std@@QAEPADI@Z 10018e70 f i il_exr.obj
 0001:00017ea0       ?assign@?$basic_string@DU?$char_traits@D@std@@V?$allocator@D@2@@std@@QAEAAV12@ABV12@II@Z 10018ea0 f i il_exr.obj
 0001:00017fc0       ?assign@?$basic_string@DU?$char_traits@D@std@@V?$allocator@D@2@@std@@QAEAAV12@PBDI@Z 10018fc0 f i il_exr.obj
 0001:000180c0       ?default_error_condition@_System_error_category@std@@UBE?AVerror_condition@2@H@Z 100190c0 f i il_exr.obj
 0001:00018100       ?default_error_condition@error_category@std@@UBE?AVerror_condition@2@H@Z 10019100 f i il_exr.obj
 0001:00018120       ?equivalent@error_category@std@@UBE_NABVerror_code@2@H@Z 10019120 f i il_exr.obj
 0001:00018140       ?equivalent@error_category@std@@UBE_NHABVerror_condition@2@@Z 10019140 f i il_exr.obj
 0001:00018180       ?erase@?$basic_string@DU?$char_traits@D@std@@V?$allocator@D@2@@std@@QAEAAV12@II@Z 10019180 f i il_exr.obj
 0001:00018220       ?message@_Generic_error_category@std@@UBE?AV?$basic_string@DU?$char_traits@D@std@@V?$allocator@D@2@@2@H@Z 10019220 f i il_exr.obj
 0001:000182a0       ?message@_Iostream_error_category@std@@UBE?AV?$basic_string@DU?$char_traits@D@std@@V?$allocator@D@2@@2@H@Z 100192a0 f i il_exr.obj
 0001:000182f0       ?message@_System_error_category@std@@UBE?AV?$basic_string@DU?$char_traits@D@std@@V?$allocator@D@2@@2@H@Z 100192f0 f i il_exr.obj
 0001:00018370       ?name@_Generic_error_category@std@@UBEPBDXZ 10019370 f i il_exr.obj
 0001:00018380       ?name@_Iostream_error_category@std@@UBEPBDXZ 10019380 f i il_exr.obj
 0001:00018390       ?name@_System_error_category@std@@UBEPBDXZ 10019390 f i il_exr.obj
 0001:000183a0       ?iFastConvert@@YAEPAUILimage@@I@Z 100193a0 f   il_fastconv.obj
 0001:000187e0       ?il2ResetRead@@YGXPAUILimage@@@Z 100197e0 f   il_files.obj
 0001:00018840       ?il2SetWrite@@YGXPAUILimage@@P6GPAXPB_W@ZP6GXPAUSIO@@@ZP6GHE3@ZP6G_J3_JI@ZP6G_J3@ZP6G_JPBXII3@Z@Z 10019840 f   il_files.obj
 0001:00018890       ?il2ResetWrite@@YGXPAUILimage@@@Z 10019890 f   il_files.obj
 0001:000188e0       ?il2SetRead@@YGXPAUILimage@@P6GPAXPB_W@ZP6GXPAUSIO@@@ZP6GE3@ZP6GH3@ZP6G_J3PAXII@ZP6G_J3_JI@ZP6G_J3@Z@Z 100198e0 f   il_files.obj
 0001:00018930       ?il2GetLumpPos@@YG_KPAUILimage@@@Z 10019930 f   il_files.obj
 0001:00018960       ?iSetInputFile@@YAXPAUSIO@@PAX@Z 10019960 f   il_files.obj
 0001:000189c0       ?iSetInputLump@@YAXPAUSIO@@PBXI@Z 100199c0 f   il_files.obj
 0001:00018a30       ?iSetOutputFile@@YAXPAUSIO@@PAX@Z 10019a30 f   il_files.obj
 0001:00018a80       ?iSetOutputLump@@YAXPAUSIO@@PAXI@Z 10019a80 f   il_files.obj
 0001:00018ae0       ?iSetOutputFake@@YAXPAUSIO@@@Z 10019ae0 f   il_files.obj
 0001:00018b30       ?iGetFile@@YGPAXPAUILimage@@@Z 10019b30 f   il_files.obj
 0001:00018b50       ?iGetLump@@YGPBEPAUILimage@@@Z 10019b50 f   il_files.obj
 0001:00018b70       ?ilprintf@@YAIPAUSIO@@PBDZZ 10019b70 f   il_files.obj
 0001:00018bd0       ?ipad@@YAXPAUSIO@@I@Z      10019bd0 f   il_files.obj
 0001:00018bf0       ?iDefaultOpenR@@YGPAXPB_W@Z 10019bf0 f   il_files.obj
 0001:00018c10       ?iDefaultCloseR@@YGXPAUSIO@@@Z 10019c10 f   il_files.obj
 0001:00018c30       ?iDefaultEof@@YGEPAUSIO@@@Z 10019c30 f   il_files.obj
 0001:00018c90       ?iDefaultSeek@@YG_JPAUSIO@@_JI@Z 10019c90 f   il_files.obj
 0001:00018cb0       ?iDefaultTell@@YG_JPAUSIO@@@Z 10019cb0 f   il_files.obj
 0001:00018cd0       ?iDefaultOpenW@@YGPAXPB_W@Z 10019cd0 f   il_files.obj
 0001:00018cf0       ?iDefaultCloseW@@YGXPAUSIO@@@Z 10019cf0 f   il_files.obj
 0001:00018d10       ?iDefaultGetc@@YGHPAUSIO@@@Z 10019d10 f   il_files.obj
 0001:00018d50       ?iDefaultRead@@YG_JPAUSIO@@PAXII@Z 10019d50 f   il_files.obj
 0001:00018d70       ?iDefaultPutc@@YGHEPAUSIO@@@Z 10019d70 f   il_files.obj
 0001:00018d90       ?iDefaultWrite@@YG_JPBXIIPAUSIO@@@Z 10019d90 f   il_files.obj
 0001:00018db0       ?iSetRead@@YGXPAUSIO@@P6GPAXPB_W@ZP6GX0@ZP6GE0@ZP6GH0@ZP6G_J0PAXII@ZP6G_J0_JI@ZP6G_J0@Z@Z 10019db0 f   il_files.obj
 0001:00018e00       ?iEofLump@@YGEPAUSIO@@@Z   10019e00 f   il_files.obj
 0001:00018e30       ?iGetcLump@@YGHPAUSIO@@@Z  10019e30 f   il_files.obj
 0001:00018e90       ?iReadLump@@YG_JPAUSIO@@PAXII@Z 10019e90 f   il_files.obj
 0001:00018f80       ?iSeekLump@@YG_JPAUSIO@@_JI@Z 10019f80 f   il_files.obj
 0001:00019060       ?iTellLump@@YG_JPAUSIO@@@Z 1001a060 f   il_files.obj
 0001:00019070       ?iPutcLump@@YGHEPAUSIO@@@Z 1001a070 f   il_files.obj
 0001:000190b0       ?iWriteLump@@YG_JPBXIIPAUSIO@@@Z 1001a0b0 f   il_files.obj
 0001:00019130       ?iSetWrite@@YGXPAUSIO@@P6GPAXPB_W@ZP6GX0@ZP6GHE0@ZP6G_J0_JI@ZP6G_J0@ZP6G_JPBXII0@Z@Z 1001a130 f   il_files.obj
 0001:00019180       ?iEofFile@@YGEPAUSIO@@@Z   1001a180 f   il_files.obj
 0001:000191a0       ?iSeekFile@@YG_JPAUSIO@@_JI@Z 1001a1a0 f   il_files.obj
 0001:000191d0       ?iPutcFile@@YGHEPAUSIO@@@Z 1001a1d0 f   il_files.obj
 0001:000191f0       ?iWriteFile@@YG_JPBXIIPAUSIO@@@Z 1001a1f0 f   il_files.obj
 0001:00019230       ?iTellFile@@YGIPAUSIO@@@Z  1001a230 f   il_files.obj
 0001:00019250       ?iLoadFitsInternal@@YAEPAUILimage@@@Z 1001a250 f   il_fits.obj
 0001:000194a0       ?GetCardInt@@YAEPADPAH@Z   1001a4a0 f   il_fits.obj
 0001:00019570       ?GetCardImage@@YAIPAUSIO@@PAUFITSHEAD@@@Z 1001a570 f   il_fits.obj
 0001:000197a0       ?iGetFitsHead@@YAEPAUSIO@@PAUFITSHEAD@@@Z 1001a7a0 f   il_fits.obj
 0001:00019930       ?iCheckFits@@YAEPAUFITSHEAD@@@Z 1001a930 f   il_fits.obj
 0001:000199f0       ?iIsValidFits@@YAEPAUSIO@@@Z 1001a9f0 f   il_fits.obj
 0001:00019a40       ?GetBigDouble@@YANPAUSIO@@@Z 1001aa40 f i il_fits.obj
 0001:00019aa0       ?GetBigFloat@@YAMPAUSIO@@@Z 1001aaa0 f i il_fits.obj
 0001:00019af0       ?GetBigShort@@YAFPAUSIO@@@Z 1001aaf0 f i il_fits.obj
 0001:00019af0       ?GetBigUShort@@YAGPAUSIO@@@Z 1001aaf0 f i il_dpx.obj
 0001:00019b20       ?iLoadFtxInternal@@YAEPAUILimage@@@Z 1001ab20 f   il_ftx.obj
 0001:00019bc0       ?iIsValidGif@@YAEPAUSIO@@@Z 1001abc0 f   il_gif.obj
 0001:00019c70       ?iLoadGifInternal@@YAEPAUILimage@@@Z 1001ac70 f   il_gif.obj
 0001:00019e60       ?setMinSizes@@YAEIIPAUILimage@@@Z 1001ae60 f   il_gif.obj
 0001:00019ee0       ?iGetPalette@@YAEPAUSIO@@EPAVILpal@@PAUILimage@@@Z 1001aee0 f   il_gif.obj
 0001:00019f70       ?get_next_code@@YAHPAVGifDecompressor@@@Z 1001af70 f   il_gif.obj
 0001:0001a0c0       ??0GifLoader@@QAE@XZ       1001b0c0 f   il_gif.obj
 0001:0001a150       ?GifGetData@GifLoader@@QAEEI@Z 1001b150 f   il_gif.obj
 0001:0001a640       ?readExtensionBlock@GifLoader@@QAEEXZ 1001b640 f   il_gif.obj
 0001:0001a6a0       ?readImage@GifLoader@@QAEEXZ 1001b6a0 f   il_gif.obj
 0001:0001a8e0       ?GetImages@GifLoader@@QAEEXZ 1001b8e0 f   il_gif.obj
 0001:0001aa00       ?RemoveInterlace@@YAEPAUILimage@@@Z 1001ba00 f   il_gif.obj
 0001:0001ab50       ?ConvertTransparent@@YAEPAUILimage@@E@Z 1001bb50 f   il_gif.obj
 0001:0001ac90       ??1GifLoader@@QAE@XZ       1001bc90 f i il_gif.obj
 0001:0001ace0       ?iIsValidHdr@@YAEPAUSIO@@@Z 1001bce0 f   il_hdr.obj
 0001:0001ad60       ?iLoadHdrInternal@@YAEPAUILimage@@@Z 1001bd60 f   il_hdr.obj
 0001:0001b020       ?iSaveHdrInternal@@YAEPAUILimage@@@Z 1001c020 f   il_hdr.obj
 0001:0001b2b0       ?strnstr_il@@YAPBDPBD0I@Z  1001c2b0 f   il_hdr.obj
 0001:0001b300       ?ReadScanline@@YAXPAUILimage@@PAEI@Z 1001c300 f   il_hdr.obj
 0001:0001b5c0       ?RGBE_WriteHeader@@YAEIIPAUrgbe_header_info@@@Z 1001c5c0 f   il_hdr.obj
 0001:0001b690       ?RGBE_WritePixels@@YAHPAUILimage@@PAMH@Z 1001c690 f   il_hdr.obj
 0001:0001b7d0       ?RGBE_WriteBytes_RLE@@YAEPAUILimage@@PAEI@Z 1001c7d0 f   il_hdr.obj
 0001:0001b970       ?ilSaveCHeader@@YAEPAUILimage@@PAD@Z 1001c970 f   il_header.obj
 0001:0001bbd0       ?iIsValidIcns@@YAEPAUSIO@@@Z 1001cbd0 f   il_icns.obj
 0001:0001bc60       ?iLoadIcnsInternal@@YAEPAUILimage@@@Z 1001cc60 f   il_icns.obj
 0001:0001bf00       ?iIcnsReadData@@YAEPAUILimage@@PAEEHPAUICNSDATA@@PAPAU1@@Z 1001cf00 f   il_icns.obj
 0001:0001c1f0       ?iLoadIconInternal@@YAEPAUILimage@@@Z 1001d1f0 f   il_icon.obj
 0001:0001cd10       ?iIsValidIcon@@YAEPAUSIO@@@Z 1001dd10 f   il_icon.obj
 0001:0001cdd0       ?ico_readpng_get_image@@YAEPAUIconData@@PAUICOIMAGE@@N@Z 1001ddd0 f   il_icon.obj
 0001:0001d0f0       ?ico_readpng_cleanup@@YAXPAUIconData@@@Z 1001e0f0 f   il_icon.obj
 0001:0001d1a0       ?ico_readpng_init@@YAHPAUILimage@@PAUIconData@@@Z 1001e1a0 f   il_icon.obj
 0001:0001d270       ?iLoadIconPNG@@YAEPAUILimage@@PAUICOIMAGE@@@Z 1001e270 f   il_icon.obj
 0001:0001d2f0       ?iLoadIffInternal@@YAEPAUILimage@@@Z 1001e2f0 f   il_iff.obj
 0001:0001d9e0       ?iff_decompress_rle@@YAPADIPADIPAI@Z 1001e9e0 f   il_iff.obj
 0001:0001dab0       ?iff_decompress_tile_rle@@YAPADGGGPADI@Z 1001eab0 f   il_iff.obj
 0001:0001dbf0       ?iffReadUncompressedTile@@YAPADPAUILimage@@GGC@Z 1001ebf0 f   il_iff.obj
 0001:0001dc90       ?iff_read_data@@YAPADPAUILimage@@H@Z 1001ec90 f   il_iff.obj
 0001:0001dce0       ?iff_end_read_chunk@@YAXPAUILimage@@AAUIFFLoadState@@@Z 1001ece0 f   il_iff.obj
 0001:0001dd40       ?iff_begin_read_chunk@@YA?AU_iff_chunk@@PAUILimage@@UIFFLoadState@@@Z 1001ed40 f   il_iff.obj
 0001:0001dea0       ?iIsValidIlbm@@YAEPAUSIO@@@Z 1001eea0 f   il_ilbm.obj
 0001:0001df20       ?iLoadIlbmInternal@@YAEPAUILimage@@@Z 1001ef20 f   il_ilbm.obj
 0001:0001eb20       ?iStrCmp@@YAHPB_W0@Z       1001fb20 f   il_internal.obj
 0001:0001eb30       ?iSqrt@@YAHH@Z             1001fb30 f   il_internal.obj
 0001:0001ec60       ?iCheckExtension@@YAEPB_W0@Z 1001fc60 f   il_internal.obj
 0001:0001ecf0       ?iFgets@@YAPACPAUILimage@@PADI@Z 1001fcf0 f   il_internal.obj
 0001:0001ed50       ?iFileExists@@YAEPB_W@Z    1001fd50 f   il_internal.obj
 0001:0001ed80       ?iGetExtension@@YAPA_WPB_W@Z 1001fd80 f   il_internal.obj
 0001:0001edd0       ?ilStrDup@@YAPA_WPB_W@Z    1001fdd0 f   il_internal.obj
 0001:0001ee30       ?ilStrLen@@YAIPB_W@Z       1001fe30 f   il_internal.obj
 0001:0001ee60       ?ilCharStrLen@@YAIPBD@Z    1001fe60 f   il_internal.obj
 0001:0001ee80       ?il2DetermineTypeF@@YGIPAX@Z 1001fe80 f   il_io.obj
 0001:0001eeb0       ?il2DetermineTypeL@@YGIPBXI@Z 1001feb0 f   il_io.obj
 0001:0001eee0       ?il2DetermineType@@YGIPB_W@Z 1001fee0 f   il_io.obj
 0001:0001ef60       ?il2DetermineTypeFuncs@@YGIPAUILimage@@@Z 1001ff60 f   il_io.obj
 0001:0001ef80       ?il2LoadF@@YGEPAUILimage@@IPAX@Z 1001ff80 f   il_io.obj
 0001:0001efe0       ?il2LoadL@@YGEPAUILimage@@IPBXI@Z 1001ffe0 f   il_io.obj
 0001:0001f030       ?il2LoadImage@@YGEPAUILimage@@PB_W@Z 10020030 f   il_io.obj
 0001:0001f060       ?il2LoadFuncs@@YGEPAUILimage@@I@Z 10020060 f   il_io.obj
 0001:0001f3e0       ?il2Load@@YGEPAUILimage@@IPB_W@Z 100203e0 f   il_io.obj
 0001:0001f520       ?il2Save@@YGEPAUILimage@@IPB_W@Z 10020520 f   il_io.obj
 0001:0001f5b0       ?il2SaveFuncs@@YGEPAUILimage@@I@Z 100205b0 f   il_io.obj
 0001:0001f780       ?il2SaveImage@@YGEPAUILimage@@PB_W@Z 10020780 f   il_io.obj
 0001:0001f820       ?il2SaveF@@YGIPAUILimage@@IPAX@Z 10020820 f   il_io.obj
 0001:0001f850       ?il2SaveL@@YG_JPAUILimage@@IPAXI@Z 10020850 f   il_io.obj
 0001:0001f8c0       ?ilTypeFromExt@@YGIPB_W@Z  100208c0 f   il_io.obj
 0001:00020100       ?iDetermineTypeFuncs@@YGIPAUSIO@@@Z 10021100 f   il_io.obj
 0001:00020a60       ?WideFromMultiByte@@YAPA_WPBD@Z 10021a60 f   il_io.obj
 0001:00020ac0       ?iIsValid@@YGEIPAUSIO@@@Z  10021ac0 f   il_io.obj
 0001:00020d00       ?ilIsValidF@@YGEIPAX@Z     10021d00 f   il_io.obj
 0001:00020d30       ?ilIsValidL@@YGEIPAXI@Z    10021d30 f   il_io.obj
 0001:00020d60       ?ilIsValid@@YGEIPB_W@Z     10021d60 f   il_io.obj
 0001:00020db0       ?iIsValidIwi@@YAEPAUSIO@@@Z 10021db0 f   il_iwi.obj
 0001:00020e20       ?iLoadIwiInternal@@YAEPAUILimage@@@Z 10021e20 f   il_iwi.obj
 0001:00020f40       ?iCheckIwi@@YAEPAUIWIHEAD@@@Z 10021f40 f   il_iwi.obj
 0001:00020fc0       ?IwiInitMipmaps@@YAEPAUILimage@@PAI@Z 10021fc0 f   il_iwi.obj
 0001:00021060       ?IwiReadImage@@YAEPAUILimage@@PAUIWIHEAD@@I@Z 10022060 f   il_iwi.obj
 0001:000212e0       ?IwiGetFormat@@YAIEPAE@Z   100222e0 f   il_iwi.obj
 0001:00021370       ?iGetIwiHead@@YAHPAUSIO@@PAUIWIHEAD@@@Z 10022370 f   il_iwi.obj
 0001:00021390       ?iIsValidJpeg@@YAEPAUSIO@@@Z 10022390 f   il_jpeg.obj
 0001:000213e0       ?iLoadJpegInternal@@YAEPAUILimage@@@Z 100223e0 f   il_jpeg.obj
 0001:000214f0       ?iSaveJpegInternal@@YAEPAUILimage@@@Z 100224f0 f   il_jpeg.obj
 0001:00021720       ?iCheckJpg@@YAEQAE@Z       10022720 f   il_jpeg.obj
 0001:00021740       ?ilLoadFromJpegStruct@@YAEPAUILimage@@PAX@Z 10022740 f   il_jpeg.obj
 0001:00021800       ?iGetJpgHead@@YAHPAUSIO@@PAE@Z 10022800 f   il_jpeg.obj
 0001:00021820       ?ExitErrorio@@YAXPAUjpeg_common_struct@@@Z 10022820 f   il_jpeg.obj
 0001:00021840       ?OutputMsg@@YAXPAUjpeg_common_struct@@@Z 10022840 f   il_jpeg.obj
 0001:00021990       ?devil_jpeg_read_init@@YAXPAUILimage@@PAUjpeg_decompress_struct@@@Z 10022990 f   il_jpeg.obj
 0001:00021ae0       ?devil_jpeg_write_init@@YAXPAUILimage@@PAUjpeg_compress_struct@@@Z 10022ae0 f   il_jpeg.obj
 0001:00021b20       ?ilSaveFromJpegStruct@@YAEPAUILimage@@PAX@Z 10022b20 f   il_jpeg.obj
 0001:00021c40       ?iIsValidLif@@YAEPAUSIO@@@Z 10022c40 f   il_lif.obj
 0001:00021ca0       ?iLoadLifInternal@@YAEPAUILimage@@@Z 10022ca0 f   il_lif.obj
 0001:00021dd0       ?iGetLifHead@@YAEPAUSIO@@PAULIF_HEAD@@@Z 10022dd0 f   il_lif.obj
 0001:00021ea0       ?iCheckLif@@YAEPAULIF_HEAD@@@Z 10022ea0 f   il_lif.obj
 0001:00021f00       _DllMain@12                10022f00 f   il_main.obj
 0001:00021f10       ?il2CopyPixels@@YGIPAUILimage@@IIIIIIIIPAX@Z 10022f10 f   il_manip.obj
 0001:00022090       ?il2DefaultImage@@YGEPAUILimage@@@Z 10023090 f   il_manip.obj
 0001:000221d0       ?il2GetAlpha@@YGPAEPAUILimage@@I@Z 100231d0 f   il_manip.obj
 0001:000223f0       ?il2SetPixels@@YGXPAUILimage@@HHHIIIIIPAX@Z 100233f0 f   il_manip.obj
 0001:00022500       ?iGetFlipped@@YGPAEPAUILimage@@@Z 10023500 f   il_manip.obj
 0001:00022540       ?iMirror@@YGEPAUILimage@@@Z 10023540 f   il_manip.obj
 0001:00022810       ?iFlipBuffer@@YGXPAEIII@Z  10023810 f   il_manip.obj
 0001:00022870       ?iFlipNewBuffer@@YAPAEPAEIII@Z 10023870 f   il_manip.obj
 0001:00022900       ?ilFlipImage@@YAEPAUILimage@@@Z 10023900 f   il_manip.obj
 0001:00022950       ?ilCopyPixels1D@@YAEPAUILimage@@IIPAX@Z 10023950 f   il_manip.obj
 0001:00022a30       ?ilCopyPixels2D@@YAEPAUILimage@@IIIIPAX@Z 10023a30 f   il_manip.obj
 0001:00022b60       ?ilCopyPixels3D@@YAEPAUILimage@@IIIIIIPAX@Z 10023b60 f   il_manip.obj
 0001:00022d00       ?ilSetPixels1D@@YAEPAUILimage@@HIPAX@Z 10023d00 f   il_manip.obj
 0001:00022de0       ?ilSetPixels2D@@YAEPAUILimage@@HHIIPAX@Z 10023de0 f   il_manip.obj
 0001:00022f80       ?ilSetPixels3D@@YAEPAUILimage@@HHHIIIPAX@Z 10023f80 f   il_manip.obj
 0001:000231b0       ?ilSetAlpha@@YGEPAUILimage@@N@Z 100241b0 f   il_manip.obj
 0001:000233e0       ?ilModAlpha@@YGXPAUILimage@@N@Z 100243e0 f   il_manip.obj
 0001:000235a0       ?ilClampNTSC@@YGEPAUILimage@@@Z 100245a0 f   il_manip.obj
 0001:00023660       ?iIsValidMdl@@YAEPAUSIO@@@Z 10024660 f   il_mdl.obj
 0001:000236b0       ?iLoadMdlInternal@@YAEPAUILimage@@@Z 100246b0 f   il_mdl.obj
 0001:00023990       ?iIsValidMp3@@YAEPAUSIO@@@Z 10024990 f   il_mp3.obj
 0001:00023a50       ?iLoadMp3Internal@@YAEPAUILimage@@@Z 10024a50 f   il_mp3.obj
 0001:00023b50       ?iCheckMp3@@YAEPAUMP3HEAD@@@Z 10024b50 f   il_mp3.obj
 0001:00023b90       ?GetSynchInt@@YAIPAUSIO@@@Z 10024b90 f   il_mp3.obj
 0001:00023c00       ?iGetMp3Head@@YAEPAUSIO@@PAUMP3HEAD@@@Z 10024c00 f   il_mp3.obj
 0001:00023c60       ?iFindMp3Pic@@YAIPAUSIO@@PAUMP3HEAD@@@Z 10024c60 f   il_mp3.obj
 0001:00023e80       ?initnet@@YAXPAEHH@Z       10024e80 f   il_neuquant.obj
 0001:00023f10       ?unbiasnet@@YAXXZ          10024f10 f   il_neuquant.obj
 0001:00023f50       ?inxbuild@@YAXXZ           10024f50 f   il_neuquant.obj
 0001:00024080       ?inxsearch@@YAEHHH@Z       10025080 f   il_neuquant.obj
 0001:00024180       ?learn@@YAXXZ              10025180 f   il_neuquant.obj
 0001:000243e0       ?contest@@YAHHHH@Z         100253e0 f   il_neuquant.obj
 0001:000244b0       ?altersingle@@YAXHHHHH@Z   100254b0 f   il_neuquant.obj
 0001:00024520       ?alterneigh@@YAXHHHHH@Z    10025520 f   il_neuquant.obj
 0001:00024680       ?iNeuQuant@@YAPAUILimage@@PAU1@I@Z 10025680 f   il_neuquant.obj
 0001:000248a0       ?ilNVidiaCompressDXT@@YGPAEPAEIIIIPAI@Z 100258a0 f   il_nvidia.obj
 0001:000248b0       ?il2ConvertPal@@YGEPAUILimage@@I@Z 100258b0 f   il_palette.obj
 0001:00024960       ?il2LoadPal@@YGEPAUILimage@@PB_W@Z 10025960 f   il_palette.obj
 0001:00024ab0       ?iConvertPal@@YG?AVILpal@@PAV1@I@Z 10025ab0 f   il_palette.obj
 0001:00024bd0       ?il2SetPal@@YGXPAUILimage@@PAVILpal@@@Z 10025bd0 f   il_palette.obj
 0001:00024c00       ?iCopyPalette@@YAEPAVILpal@@0@Z 10025c00 f   il_palette.obj
 0001:00024c20       ?ilLoadJascPal@@YAEPAUILimage@@PB_W@Z 10025c20 f   il_palette.obj
 0001:00024ed0       ?ilSaveJascPal@@YAEPAUILimage@@PB_W@Z 10025ed0 f   il_palette.obj
 0001:000250e0       ?iFgetw@@YAPADPAEHPAU_iobuf@@@Z 100260e0 f   il_palette.obj
 0001:000251f0       ?ilLoadHaloPal@@YAEPAUILimage@@PB_W@Z 100261f0 f   il_palette.obj
 0001:00025390       ?ilLoadColPal@@YAEPAUILimage@@PB_W@Z 10026390 f   il_palette.obj
 0001:00025580       ?ilLoadActPal@@YAEPAUILimage@@PB_W@Z 10026580 f   il_palette.obj
 0001:00025660       ?ilLoadPltPal@@YAEPAUILimage@@PB_W@Z 10026660 f   il_palette.obj
 0001:00025740       ?ilSavePal@@YGEPAUILimage@@PB_W@Z 10026740 f   il_palette.obj
 0001:000257f0       ?iCopyPal@@YGPAVILpal@@PAUILimage@@@Z 100267f0 f   il_palette.obj
 0001:00025860       ??0ILpal@@QAE@ABV0@@Z      10026860 f i il_palette.obj
 0001:000258e0       ?iLoadPcdInternal@@YAEPAUILimage@@@Z 100268e0 f   il_pcd.obj
 0001:00025c10       ?YCbCr2RGB@@YAXEEEPAE00@Z  10026c10 f   il_pcd.obj
 0001:00025d10       ?iIsValidPcx@@YAEPAUSIO@@@Z 10026d10 f   il_pcx.obj
 0001:00025db0       ?iLoadPcxInternal@@YAEPAUILimage@@@Z 10026db0 f   il_pcx.obj
 0001:00025e70       ?iSavePcxInternal@@YAEPAUILimage@@@Z 10026e70 f   il_pcx.obj
 0001:000261e0       ?iCheckPcx@@YAEPAUPCXHEAD@@@Z 100271e0 f   il_pcx.obj
 0001:00026220       ?iUncompressPcx@@YAEPAUILimage@@PAUPCXHEAD@@@Z 10027220 f   il_pcx.obj
 0001:000264f0       ?iUncompressSmall@@YAEPAUILimage@@PAUPCXHEAD@@@Z 100274f0 f   il_pcx.obj
 0001:000268d0       ?iGetPcxHead@@YAIPAUSIO@@PAUPCXHEAD@@@Z 100278d0 f   il_pcx.obj
 0001:000268f0       ?encput@@YAIPAUSIO@@EE@Z   100278f0 f   il_pcx.obj
 0001:00026960       ?encLine@@YAIPAUSIO@@PAEHE@Z 10027960 f   il_pcx.obj
 0001:00026ab0       ?iIsValidPic@@YAEPAUSIO@@@Z 10027ab0 f   il_pic.obj
 0001:00026b40       ?iLoadPicInternal@@YAEPAUILimage@@@Z 10027b40 f   il_pic.obj
 0001:00026d40       ?iGetPicHead@@YAHPAUSIO@@PAUPIC_HEAD@@@Z 10027d40 f   il_pic.obj
 0001:00026e10       ?iCheckPic@@YAEPAUPIC_HEAD@@@Z 10027e10 f   il_pic.obj
 0001:00026e50       ?channelReadMixed@@YAEPAUSIO@@PAEHHPAHH@Z 10027e50 f   il_pic.obj
 0001:00026fe0       ?channelReadRaw@@YAEPAUSIO@@PAEHHPAHH@Z 10027fe0 f   il_pic.obj
 0001:00027060       ?channelReadPure@@YAEPAUSIO@@PAEHHPAHH@Z 10028060 f   il_pic.obj
 0001:00027120       ?readScanline@@YAIPAUSIO@@PAEHPAUCHANNEL@@H@Z 10028120 f   il_pic.obj
 0001:00027220       ?readScanlines@@YAEPAUSIO@@PAIHHPAUCHANNEL@@I@Z 10028220 f   il_pic.obj
 0001:00027370       ?iIsValidPix@@YAEPAUSIO@@@Z 10028370 f   il_pix.obj
 0001:00027400       ?iLoadPixInternal@@YAEPAUILimage@@@Z 10028400 f   il_pix.obj
 0001:00027570       ?iCheckPix@@YAEPAUPIXHEAD@@@Z 10028570 f   il_pix.obj
 0001:000275a0       ?iGetPixHead@@YAHPAUSIO@@PAUPIXHEAD@@@Z 100285a0 f   il_pix.obj
 0001:00027600       ?iIsValidPng@@YAEPAUSIO@@@Z 10028600 f   il_png.obj
 0001:00027660       ?iLoadPngInternal@@YAEPAUILimage@@@Z 10028660 f   il_png.obj
 0001:00027750       ?iSavePngInternal@@YAEPAUILimage@@@Z 10028750 f   il_png.obj
 0001:00027bd0       ?readpng_get_image@@YAEPAUILimage@@PAUPNGData@@N@Z 10028bd0 f   il_png.obj
 0001:00027f90       ?readpng_cleanup@@YAXPAUPNGData@@@Z 10028f90 f   il_png.obj
 0001:00028040       ?readpng_init@@YAHPAUILimage@@PAUPNGData@@@Z 10029040 f   il_png.obj
 0001:00028100       ?png_write@@YAXPAUpng_struct_def@@PAEI@Z 10029100 f   il_png.obj
 0001:00028130       ?flush_data@@YAXPAUpng_struct_def@@@Z 10029130 f   il_png.obj
 0001:00028140       ?iIsValidPnm@@YAEPAUSIO@@@Z 10029140 f   il_pnm.obj
 0001:000281a0       ?iLoadPnmInternal@@YAEPAUILimage@@@Z 100291a0 f   il_pnm.obj
 0001:00028490       ?iSavePnmInternal@@YAEPAUILimage@@@Z 10029490 f   il_pnm.obj
 0001:000287f0       ?iCheckPnm@@YAEQAD@Z       100297f0 f   il_pnm.obj
 0001:00028810       ?ilReadAsciiPpm@@YAPAUILimage@@PAU1@PAUPPMINFO@@PAC@Z 10029810 f   il_pnm.obj
 0001:00028a70       ?ilReadBinaryPpm@@YAPAUILimage@@PAU1@PAUPPMINFO@@@Z 10029a70 f   il_pnm.obj
 0001:00028ae0       ?ilReadBitPbm@@YAPAUILimage@@PAU1@PAUPPMINFO@@@Z 10029ae0 f   il_pnm.obj
 0001:00028b80       ?iGetWord@@YAEPAUSIO@@EPAC@Z 10029b80 f   il_pnm.obj
 0001:00028c80       ?PbmMaximize@@YAXPAUILimage@@@Z 10029c80 f   il_pnm.obj
 0001:00028cb0       ?il2ApplyProfile@@YGEPAUILimage@@PA_W1@Z 10029cb0 f   il_profiles.obj
 0001:00028f00       ?iIsValidPsd@@YAEPAUSIO@@@Z 10029f00 f   il_psd.obj
 0001:00028f50       ?iLoadPsdInternal@@YAEPAUILimage@@@Z 10029f50 f   il_psd.obj
 0001:00028ff0       ?iSavePsdInternal@@YAEPAUILimage@@@Z 10029ff0 f   il_psd.obj
 0001:000295d0       ?iGetPsdHead@@YAEPAUSIO@@PAUPSDHEAD@@@Z 1002a5d0 f   il_psd.obj
 0001:00029670       ?iCheckPsd@@YAEPAUPSDHEAD@@@Z 1002a670 f   il_psd.obj
 0001:000296e0       ?GetCompChanLen@@YAPAIPAUILimage@@PAUPSDHEAD@@AAG@Z 1002a6e0 f   il_psd.obj
 0001:00029900       ?PsdGetData@@YAEPAUILimage@@PAUPSDHEAD@@PAXEAAG@Z 1002a900 f   il_psd.obj
 0001:00029f00       ?ParseResources@@YAEPAUILimage@@IPAE@Z 1002af00 f   il_psd.obj
 0001:0002a000       ?ReadGrey@@YAEPAUILimage@@PAUPSDHEAD@@@Z 1002b000 f   il_psd.obj
 0001:0002a1d0       ?ReadIndexed@@YAEPAUILimage@@PAUPSDHEAD@@@Z 1002b1d0 f   il_psd.obj
 0001:0002a400       ?ReadRGB@@YAEPAUILimage@@PAUPSDHEAD@@@Z 1002b400 f   il_psd.obj
 0001:0002a5f0       ?GetSingleChannel@@YAEPAUILimage@@PAUPSDHEAD@@PAEE@Z 1002b5f0 f   il_psd.obj
 0001:0002a710       ?ReadCMYK@@YAEPAUILimage@@PAUPSDHEAD@@@Z 1002b710 f   il_psd.obj
 0001:0002aa20       ?ReadPsd@@YAEPAUILimage@@PAUPSDHEAD@@@Z 1002ba20 f   il_psd.obj
 0001:0002aa80       ?SaveBigInt@@YAEPAUSIO@@H@Z 1002ba80 f i il_psd.obj
 0001:0002aac0       ?SaveBigShort@@YAEPAUSIO@@F@Z 1002bac0 f i il_psd.obj
 0001:0002aaf0       ?iIsValidPsp@@YAEPAUSIO@@@Z 1002baf0 f   il_psp.obj
 0001:0002ab50       ?iLoadPspInternal@@YAEPAUILimage@@@Z 1002bb50 f   il_psp.obj
 0001:0002ac90       ?iGetPspHead@@YAIPAUSIO@@PAUPSPHEAD@@@Z 1002bc90 f   il_psp.obj
 0001:0002acb0       ?iCheckPsp@@YAEPAUPSPHEAD@@@Z 1002bcb0 f   il_psp.obj
 0001:0002ad10       ?ReadGenAttributes@@YAEPAUPspLoadState@@PAUILimage@@@Z 1002bd10 f   il_psp.obj
 0001:0002ae30       ?UncompRLE@@YAEPAE0I@Z     1002be30 f   il_psp.obj
 0001:0002ae90       ?GetChannel@@YAPAEPAUPspLoadState@@PAUILimage@@@Z 1002be90 f   il_psp.obj
 0001:0002b0a0       ?ReadLayerBlock@@YAEPAUPspLoadState@@IPAUILimage@@@Z 1002c0a0 f   il_psp.obj
 0001:0002b300       ?ReadAlphaBlock@@YAEPAUPspLoadState@@IPAUILimage@@@Z 1002c300 f   il_psp.obj
 0001:0002b4f0       ?ReadPalette@@YAEPAUPspLoadState@@IPAUILimage@@@Z 1002c4f0 f   il_psp.obj
 0001:0002b5d0       ?ParseChunks@@YAEPAUPspLoadState@@PAUILimage@@@Z 1002c5d0 f   il_psp.obj
 0001:0002b700       ?AssembleImage@@YAEPAUPspLoadState@@PAUILimage@@@Z 1002c700 f   il_psp.obj
 0001:0002b990       ?Cleanup@@YAEPAUPspLoadState@@@Z 1002c990 f   il_psp.obj
 0001:0002ba00       ??1PspLoadState@@QAE@XZ    1002ca00 f i il_psp.obj
 0001:0002ba30       ?iLoadPxrInternal@@YAEPAUILimage@@@Z 1002ca30 f   il_pxr.obj
 0001:0002bb10       ?n2@@YAIH@Z                1002cb10 f   il_quantizer.obj
 0001:0002bb30       ?Hist3d@@YAEPAE00PAH111PAMIPAG@Z 1002cb30 f   il_quantizer.obj
 0001:0002bd20       ?M3d@@YAXPAH000PAM@Z       1002cd20 f   il_quantizer.obj
 0001:0002c0c0       ?Vol@@YAHPAUBox@@QAY1CB@CB@H@Z 1002d0c0 f   il_quantizer.obj
 0001:0002c170       ?Bottom@@YAHPAUBox@@EQAY1CB@CB@H@Z 1002d170 f   il_quantizer.obj
 0001:0002c2a0       ?Top@@YAHPAUBox@@EHQAY1CB@CB@H@Z 1002d2a0 f   il_quantizer.obj
 0001:0002c3e0       ?Var@@YAMPAUBox@@PAUQuantizerState@@@Z 1002d3e0 f   il_quantizer.obj
 0001:0002c540       ?Maximize@@YAMPAUBox@@EHHPAHHHHHPAUQuantizerState@@@Z 1002d540 f   il_quantizer.obj
 0001:0002c6d0       ?Cut@@YAHPAUBox@@0PAUQuantizerState@@@Z 1002d6d0 f   il_quantizer.obj
 0001:0002c870       ?Mark@@YAXPAUBox@@HPAE@Z   1002d870 f   il_quantizer.obj
 0001:0002c8f0       ?iQuantizeImage@@YAPAUILimage@@PAU1@I@Z 1002d8f0 f   il_quantizer.obj
 0001:0002d020       ?iLoadRawInternal@@YAEPAUILimage@@@Z 1002e020 f   il_raw.obj
 0001:0002d160       ?iSaveRawInternal@@YAEPAUILimage@@@Z 1002e160 f   il_raw.obj
 0001:0002d1f0       ?iLoadDataInternal@@YAEPAUILimage@@IIIE@Z 1002e1f0 f   il_rawdata.obj
 0001:0002d2b0       ?ilSaveData@@YGEPAUILimage@@PB_W@Z 1002e2b0 f   il_rawdata.obj
 0001:0002d320       ?il2RegisterPal@@YGXPAUILimage@@PAXII@Z 1002e320 f   il_register.obj
 0001:0002d350       ?ilRemoveRegistered@@YAXXZ 1002e350 f   il_register.obj
 0001:0002d3c0       ?ilRegisterFormat@@YGXI@Z  1002e3c0 f   il_register.obj
 0001:0002d410       ?ilRegisterLoad@@YGEPB_WP6GI0@Z@Z 1002e410 f   il_register.obj
 0001:0002d4a0       ?ilRegisterMipNum@@YGEI@Z  1002e4a0 f   il_register.obj
 0001:0002d550       ?ilRegisterNumFaces@@YGEI@Z 1002e550 f   il_register.obj
 0001:0002d600       ?ilRegisterNumImages@@YGEI@Z 1002e600 f   il_register.obj
 0001:0002d6b0       ?ilRegisterOrigin@@YGXI@Z  1002e6b0 f   il_register.obj
 0001:0002d6e0       ?ilRegisterSave@@YGEPB_WP6GI0@Z@Z 1002e6e0 f   il_register.obj
 0001:0002d770       ?ilRegisterType@@YGXI@Z    1002e770 f   il_register.obj
 0001:0002d7b0       ?ilRemoveLoad@@YGEPB_W@Z   1002e7b0 f   il_register.obj
 0001:0002d830       ?ilRemoveSave@@YGEPB_W@Z   1002e830 f   il_register.obj
 0001:0002d8b0       ?ilSetDuration@@YGEI@Z     1002e8b0 f   il_register.obj
 0001:0002d8e0       ?iRegisterLoad@@YAEPB_W@Z  1002e8e0 f   il_register.obj
 0001:0002d940       ?iRegisterSave@@YAEPB_W@Z  1002e940 f   il_register.obj
 0001:0002d9a0       ?ilRleCompressLine@@YAEPAEIE0PAII@Z 1002e9a0 f   il_rle.obj
 0001:0002dbd0       ?ilRleCompress@@YAIPAEIIIE0IPAI@Z 1002ebd0 f   il_rle.obj
 0001:0002dea0       ?CountDiffPixels@@YAHPAEII@Z 1002eea0 f i il_rle.obj
 0001:0002df60       ?CountSamePixels@@YAHPAEII@Z 1002ef60 f i il_rle.obj
 0001:0002dfe0       ?iLoadRotInternal@@YAEPAUILimage@@@Z 1002efe0 f   il_rot.obj
 0001:0002e4e0       ?iIsValidSgi@@YAEPAUSIO@@@Z 1002f4e0 f   il_sgi.obj
 0001:0002e590       ?iLoadSgiInternal@@YAEPAUILimage@@@Z 1002f590 f   il_sgi.obj
 0001:0002e670       ?iSaveSgiInternal@@YAEPAUILimage@@@Z 1002f670 f   il_sgi.obj
 0001:0002e9b0       ?iNewSgi@@YAEPAUILimage@@PAUiSgiHeader@@@Z 1002f9b0 f   il_sgi.obj
 0001:0002ea70       ?iGetSgiHead@@YAHPAUSIO@@PAUiSgiHeader@@@Z 1002fa70 f   il_sgi.obj
 0001:0002eb80       ?iCheckSgi@@YAEPAUiSgiHeader@@@Z 1002fb80 f   il_sgi.obj
 0001:0002ebd0       ?iReadNonRleSgi@@YAEPAUILimage@@PAUiSgiHeader@@@Z 1002fbd0 f   il_sgi.obj
 0001:0002ec50       ?sgiSwitchData@@YAXPAEI@Z  1002fc50 f   il_sgi.obj
 0001:0002ec80       ?iGetScanLine@@YAHPAUILimage@@PAEPAUiSgiHeader@@I@Z 1002fc80 f   il_sgi.obj
 0001:0002ee00       ?iReadRleSgi@@YAEPAUILimage@@PAUiSgiHeader@@@Z 1002fe00 f   il_sgi.obj
 0001:0002f170       ?DetermineSgiType@@YAIPAUILimage@@I@Z 10030170 f   il_sgi.obj
 0001:0002f1a0       ?iSaveRleSgi@@YAEPAUILimage@@PAEIIII@Z 100301a0 f   il_sgi.obj
 0001:0002f470       ?il2DetermineSize@@YG_JPAUILimage@@I@Z 10030470 f   il_size.obj
 0001:0002f4d0       ?iSizeSeek@@YG_JPAUSIO@@_JI@Z 100304d0 f   il_size.obj
 0001:0002f560       ?iSizeTell@@YG_JPAUSIO@@@Z 10030560 f   il_size.obj
 0001:0002f570       ?iSizePutc@@YGHEPAUSIO@@@Z 10030570 f   il_size.obj
 0001:0002f5a0       ?iSizeWrite@@YG_JPBXIIPAUSIO@@@Z 100305a0 f   il_size.obj
 0001:0002f5e0       ?ilSquishCompressDXT@@YGPAEPAEIIIIPAI@Z 100305e0 f   il_squish.obj
 0001:0002f5f0       ?il2Init@@YGXXZ            100305f0 f   il_stack.obj
 0001:0002f610       ?il2CreateSubImage@@YGIPAUILimage@@II@Z 10030610 f   il_stack.obj
 0001:0002f700       ?ilClosePal@@YGXPAVILpal@@@Z 10030700 f   il_stack.obj
 0001:0002f740       ?ilIsValidPal@@YGEPAVILpal@@@Z 10030740 f   il_stack.obj
 0001:0002f7a0       ?il2GetBoolean@@YGEI@Z     100307a0 f   il_states.obj
 0001:0002f7c0       ?il2GetBooleanv@@YGXIPAE@Z 100307c0 f   il_states.obj
 0001:0002f800       ?il2GetInteger@@YGHI@Z     10030800 f   il_states.obj
 0001:0002f820       ?il2GetImageInteger@@YGXPAUILimage@@IPAH@Z 10030820 f   il_states.obj
 0001:0002fb10       ?il2GetIntegerv@@YGXIPAH@Z 10030b10 f   il_states.obj
 0001:0002ff50       ?il2GetString@@YGPB_WI@Z   10030f50 f   il_states.obj
 0001:000300c0       ?il2IsEnabled@@YGEI@Z      100310c0 f   il_states.obj
 0001:00030280       ?il2SetInteger@@YGXIH@Z    10031280 f   il_states.obj
 0001:00030650       ?il2SetImageInteger@@YGXPAUILimage@@IH@Z 10031650 f   il_states.obj
 0001:000306d0       ?ilAble@@YAEIE@Z           100316d0 f   il_states.obj
 0001:000308c0       ?ilDefaultStates@@YAXXZ    100318c0 f   il_states.obj
 0001:00030a20       ?iGetHint@@YAII@Z          10031a20 f   il_states.obj
 0001:00030a50       ?iGetInt@@YAHI@Z           10031a50 f   il_states.obj
 0001:00030aa0       ?iGetString@@YAPADI@Z      10031aa0 f   il_states.obj
 0001:00030c30       ?iClipString@@YAPADPADI@Z  10031c30 f   il_states.obj
 0001:00030c80       ?ilIsDisabled@@YGEI@Z      10031c80 f   il_states.obj
 0001:00030ca0       ?ilOriginFunc@@YGEI@Z      10031ca0 f   il_states.obj
 0001:00030ce0       ?ilFormatFunc@@YGEI@Z      10031ce0 f   il_states.obj
 0001:00030d30       ?ilTypeFunc@@YGEI@Z        10031d30 f   il_states.obj
 0001:00030d80       ?ilCompressFunc@@YGEI@Z    10031d80 f   il_states.obj
 0001:00030dd0       ?ilPushAttrib@@YGXI@Z      10031dd0 f   il_states.obj
 0001:00031190       ?ilPopAttrib@@YGXXZ        10032190 f   il_states.obj
 0001:000311b0       ?ilHint@@YGXII@Z           100321b0 f   il_states.obj
 0001:00031240       ?ilSetString@@YGXIPBD@Z    10032240 f   il_states.obj
 0001:00031510       ?iIsValidSun@@YAEPAUSIO@@@Z 10032510 f   il_sun.obj
 0001:00031580       ?iLoadSunInternal@@YAEPAUILimage@@@Z 10032580 f   il_sun.obj
 0001:00031ad0       ?iGetSunHead@@YAIPAUSIO@@PAUSUNHEAD@@@Z 10032ad0 f   il_sun.obj
 0001:00031c40       ?iCheckSun@@YAEPAUSUNHEAD@@@Z 10032c40 f   il_sun.obj
 0001:00031cb0       ?iSunGetRle@@YAIPAUILimage@@PAEI@Z 10032cb0 f   il_sun.obj
 0001:00031d30       ?writeSunPixels@@YAXPAUILimage@@AAIEH@Z 10032d30 f   il_sun.obj
 0001:00031d70       ?iSunDecodeRle@@YAXPAUILimage@@@Z 10032d70 f   il_sun.obj
 0001:00031e50       ?iSunPrepareImageBuffer@@YAXPAUILimage@@PAUSUNHEAD@@@Z 10032e50 f   il_sun.obj
 0001:00031ea0       ?iIsValidTarga@@YAEPAUSIO@@@Z 10032ea0 f   il_targa.obj
 0001:00031f20       ?iLoadTargaInternal@@YAEPAUILimage@@@Z 10032f20 f   il_targa.obj
 0001:000320f0       ?iSaveTargaInternal@@YAEPAUILimage@@@Z 100330f0 f   il_targa.obj
 0001:00032810       ?iGetTgaHead@@YA_JPAUSIO@@PAUTARGAHEAD@@@Z 10033810 f   il_targa.obj
 0001:00032830       ?iCheckTarga@@YAEPAUTARGAHEAD@@@Z 10033830 f   il_targa.obj
 0001:000328a0       ?iUncompressTgaData@@YAEPAUILimage@@@Z 100338a0 f   il_targa.obj
 0001:00032a00       ?iReadColMapTga@@YAEPAUILimage@@PAUTARGAHEAD@@@Z 10033a00 f   il_targa.obj
 0001:00032ca0       ?i16BitTarga@@YAEPAUILimage@@@Z 10033ca0 f   il_targa.obj
 0001:00032d30       ?iReadUnmapTga@@YAEPAUILimage@@PAUTARGAHEAD@@@Z 10033d30 f   il_targa.obj
 0001:00032e90       ?iReadBwTga@@YAEPAUILimage@@PAUTARGAHEAD@@@Z 10033e90 f   il_targa.obj
 0001:00032f60       ?iGetDateTime@@YAXPAI00000@Z 10033f60 f   il_targa.obj
 0001:00032fe0       ?ilLoadTextureL@@YAEPAUILimage@@PBXI@Z 10033fe0 f   il_texture.obj
 0001:00033020       ?ilIsValidTiffFunc@@YAEPAUSIO@@@Z 10034020 f   il_tiff.obj
 0001:000330c0       ?iLoadTiffInternal@@YAEPAUILimage@@@Z 100340c0 f   il_tiff.obj
 0001:00033190       ?iSaveTiffInternal@@YAEPAUILimage@@@Z 10034190 f   il_tiff.obj
 0001:000335e0       ?ilisValidTiffExtension@@YAEPB_W@Z 100345e0 f   il_tiff.obj
 0001:000337e0       ?iTIFFOpen@@YAPAUtiff@@PAUILimage@@PAD@Z 100347e0 f   il_tiff.obj
 0001:00033850       ?warningHandler@@YAXPBD0PAD@Z 10034850 f   il_tiff.obj
 0001:00033860       ?errorHandler@@YAXPBD0PAD@Z 10034860 f   il_tiff.obj
 0001:00033870       ?initTiffLoadState@@YAXPAUtiff@@AAUTiffLoadState@@PAUILimage@@@Z 10034870 f   il_tiff.obj
 0001:00033970       ?addFrame@@YAEAAUTiffLoadState@@HEI@Z 10034970 f   il_tiff.obj
 0001:000339f0       ?decodeTiffLuminanceOrPaletted@@YAEPAUILimage@@AAUTiffLoadState@@H@Z 100349f0 f   il_tiff.obj
 0001:00033db0       ?decodeRGB16@@YAEPAUILimage@@AAUTiffLoadState@@H@Z 10034db0 f   il_tiff.obj
 0001:00033f00       ?decodeOther@@YAEPAUILimage@@AAUTiffLoadState@@H@Z 10034f00 f   il_tiff.obj
 0001:00034010       ?decodeFrame@@YAEPAUILimage@@PAUtiff@@H@Z 10035010 f   il_tiff.obj
 0001:00034260       ?iIsValidTpl@@YAEPAUSIO@@@Z 10035260 f   il_tpl.obj
 0001:000342b0       ?iLoadTplInternal@@YAEPAUILimage@@@Z 100352b0 f   il_tpl.obj
 0001:00035050       ?iCheckTpl@@YAEPAUTPLHEAD@@@Z 10036050 f   il_tpl.obj
 0001:00035080       ?TplGetIndexImage@@YAEPAUILimage@@II@Z 10036080 f   il_tpl.obj
 0001:00035750       ?iGetTplHead@@YAEPAUSIO@@PAUTPLHEAD@@@Z 10036750 f   il_tpl.obj
 0001:00035810       ?ilGetBppFormat@@YGEI@Z    10036810 f   il_utility.obj
 0001:00035880       ?ilGetFormatBpp@@YGIE@Z    10036880 f   il_utility.obj
 0001:000358d0       ?ilGetBpcType@@YGEI@Z      100368d0 f   il_utility.obj
 0001:00035930       ?ilGetTypeBpc@@YGIE@Z      10036930 f   il_utility.obj
 0001:00035990       ?ilGetBppPal@@YGEI@Z       10036990 f   il_utility.obj
 0001:000359e0       ?ilGetPalBaseType@@YGII@Z  100369e0 f   il_utility.obj
 0001:00035a40       ?ilNextPower2@@YGII@Z      10036a40 f   il_utility.obj
 0001:00035a60       ?iMemSwap@@YGXPAE0I@Z      10036a60 f   il_utility.obj
 0001:00035b20       ?iLoadUtxInternal@@YAEPAUILimage@@@Z 10036b20 f   il_utx.obj
 0001:00036590       ?GetUtxHead@@YA_JPAUSIO@@AAUUTXHEADER@@@Z 10037590 f   il_utx.obj
 0001:000365b0       ?CheckUtxHead@@YAEAAUUTXHEADER@@@Z 100375b0 f   il_utx.obj
 0001:000365e0       ?GetUtxName@@YA?AV?$basic_string@DU?$char_traits@D@std@@V?$allocator@D@2@@std@@PAUSIO@@AAUUTXHEADER@@@Z 100375e0 f   il_utx.obj
 0001:00036740       ?GetUtxNameTable@@YA_NPAUSIO@@AAV?$vector@UUTXENTRYNAME@@V?$allocator@UUTXENTRYNAME@@@std@@@std@@AAUUTXHEADER@@@Z 10037740 f   il_utx.obj
 0001:000368a0       ?UtxReadCompactInteger@@YAHPAUSIO@@@Z 100378a0 f   il_utx.obj
 0001:00036920       ?ChangeObjectReference@@YAXPAHPAE@Z 10037920 f   il_utx.obj
 0001:00036950       ?GetUtxExportTable@@YA_NPAUSIO@@AAV?$vector@UUTXEXPORTTABLE@@V?$allocator@UUTXEXPORTTABLE@@@std@@@std@@AAUUTXHEADER@@@Z 10037950 f   il_utx.obj
 0001:00036ac0       ?GetUtxImportTable@@YA_NPAUSIO@@AAV?$vector@UUTXIMPORTTABLE@@V?$allocator@UUTXIMPORTTABLE@@@std@@@std@@AAUUTXHEADER@@@Z 10037ac0 f   il_utx.obj
 0001:00036ba0       ?UtxFormatToDevIL@@YAII@Z  10037ba0 f   il_utx.obj
 0001:00036bd0       ?UtxFormatToBpp@@YAII@Z    10037bd0 f   il_utx.obj
 0001:00036bf0       ??$?8DU?$char_traits@D@std@@V?$allocator@D@1@@std@@YA_NABV?$basic_string@DU?$char_traits@D@std@@V?$allocator@D@2@@0@PBD@Z 10037bf0 f i il_utx.obj
 0001:00036c30       ??$_Uninit_def_fill_n@PAUUTXENTRYNAME@@IV?$allocator@UUTXENTRYNAME@@@std@@U1@@std@@YAXPAUUTXENTRYNAME@@IAAU?$_Wrap_alloc@V?$allocator@UUTXENTRYNAME@@@std@@@0@0U_Nonscalar_ptr_iterator_tag@0@@Z 10037c30 f i il_utx.obj
 0001:00036c60       ??$_Uninit_def_fill_n@PAUUTXEXPORTTABLE@@IV?$allocator@UUTXEXPORTTABLE@@@std@@U1@@std@@YAXPAUUTXEXPORTTABLE@@IAAU?$_Wrap_alloc@V?$allocator@UUTXEXPORTTABLE@@@std@@@0@0U_Nonscalar_ptr_iterator_tag@0@@Z 10037c60 f i il_utx.obj
 0001:00036c90       ??$_Uninit_def_fill_n@PAUUTXIMPORTTABLE@@IV?$allocator@UUTXIMPORTTABLE@@@std@@U1@@std@@YAXPAUUTXIMPORTTABLE@@IAAU?$_Wrap_alloc@V?$allocator@UUTXIMPORTTABLE@@@std@@@0@0U_Nonscalar_ptr_iterator_tag@0@@Z 10037c90 f i il_utx.obj
 0001:00036cc0       ??$_Uninit_def_fill_n@PAVUTXPALETTE@@IV?$allocator@VUTXPALETTE@@@std@@V1@@std@@YAXPAVUTXPALETTE@@IAAU?$_Wrap_alloc@V?$allocator@VUTXPALETTE@@@std@@@0@0U_Nonscalar_ptr_iterator_tag@0@@Z 10037cc0 f i il_utx.obj
 0001:00036cf0       ??$_Uninit_move@PAUUTXENTRYNAME@@PAU1@V?$allocator@UUTXENTRYNAME@@@std@@U1@@std@@YAPAUUTXENTRYNAME@@PAU1@00AAU?$_Wrap_alloc@V?$allocator@UUTXENTRYNAME@@@std@@@0@0U_Nonscalar_ptr_iterator_tag@0@@Z 10037cf0 f i il_utx.obj
 0001:00036db0       ??$_Uninit_move@PAUUTXIMPORTTABLE@@PAU1@V?$allocator@UUTXIMPORTTABLE@@@std@@U1@@std@@YAPAUUTXIMPORTTABLE@@PAU1@00AAU?$_Wrap_alloc@V?$allocator@UUTXIMPORTTABLE@@@std@@@0@0U_Nonscalar_ptr_iterator_tag@0@@Z 10037db0 f i il_utx.obj
 0001:00036de0       ??0?$basic_string@DU?$char_traits@D@std@@V?$allocator@D@2@@std@@QAE@ABV01@@Z 10037de0 f i il_utx.obj
 0001:00036e10       ??1?$vector@UUTXENTRYNAME@@V?$allocator@UUTXENTRYNAME@@@std@@@std@@QAE@XZ 10037e10 f i il_utx.obj
 0001:00036e10       ?_Tidy@?$vector@UUTXENTRYNAME@@V?$allocator@UUTXENTRYNAME@@@std@@@std@@IAEXXZ 10037e10 f i il_utx.obj
 0001:00036e50       ?_Tidy@?$vector@VUTXPALETTE@@V?$allocator@VUTXPALETTE@@@std@@@std@@IAEXXZ 10037e50 f i il_utx.obj
 0001:00036e50       ??1?$vector@VUTXPALETTE@@V?$allocator@VUTXPALETTE@@@std@@@std@@QAE@XZ 10037e50 f i il_utx.obj
 0001:00036ea0       ?_Assign_rv@?$basic_string@DU?$char_traits@D@std@@V?$allocator@D@2@@std@@QAEX$$QAV12@@Z 10037ea0 f i il_utx.obj
 0001:00036f00       ?_Destroy@?$vector@UUTXENTRYNAME@@V?$allocator@UUTXENTRYNAME@@@std@@@std@@IAEXPAUUTXENTRYNAME@@0@Z 10037f00 f i il_utx.obj
 0001:00036f40       ?_Grow_to@?$vector@UOutSliceInfo@?A0x63a57f46@Imf@@V?$allocator@UOutSliceInfo@?A0x63a57f46@Imf@@@std@@@std@@IBEII@Z 10037f40 f i OpenExr:ImfOutputFile.obj
 0001:00036f40       ?_Grow_to@?$vector@UUTXENTRYNAME@@V?$allocator@UUTXENTRYNAME@@@std@@@std@@IBEII@Z 10037f40 f i il_utx.obj
 0001:00036f90       ?_Reallocate@?$vector@UUTXENTRYNAME@@V?$allocator@UUTXENTRYNAME@@@std@@@std@@IAEXI@Z 10037f90 f i il_utx.obj
 0001:000370a0       ?_Reallocate@?$vector@UUTXEXPORTTABLE@@V?$allocator@UUTXEXPORTTABLE@@@std@@@std@@IAEXI@Z 100380a0 f i il_utx.obj
 0001:000370a0       ?_Reallocate@?$vector@UsliceOptimizationData@?A0xc59857b3@Imf@@V?$allocator@UsliceOptimizationData@?A0xc59857b3@Imf@@@std@@@std@@IAEXI@Z 100380a0 f i OpenExr:ImfScanLineInputFile.obj
 0001:00037180       ?_Reallocate@?$vector@UUTXIMPORTTABLE@@V?$allocator@UUTXIMPORTTABLE@@@std@@@std@@IAEXI@Z 10038180 f i il_utx.obj
 0001:00037270       ?_Reallocate@?$vector@VUTXPALETTE@@V?$allocator@VUTXPALETTE@@@std@@@std@@IAEXI@Z 10038270 f i il_utx.obj
 0001:00037380       ?_Reserve@?$vector@UUTXENTRYNAME@@V?$allocator@UUTXENTRYNAME@@@std@@@std@@IAEXI@Z 10038380 f i il_utx.obj
 0001:000373f0       ?_Reserve@?$vector@UUTXEXPORTTABLE@@V?$allocator@UUTXEXPORTTABLE@@@std@@@std@@IAEXI@Z 100383f0 f i il_utx.obj
 0001:00037470       ?_Reserve@?$vector@UUTXIMPORTTABLE@@V?$allocator@UUTXIMPORTTABLE@@@std@@@std@@IAEXI@Z 10038470 f i il_utx.obj
 0001:00037520       ?_Reserve@?$vector@VUTXPALETTE@@V?$allocator@VUTXPALETTE@@@std@@@std@@IAEXI@Z 10038520 f i il_utx.obj
 0001:000375c0       ?compare@?$basic_string@DU?$char_traits@D@std@@V?$allocator@D@2@@std@@QBEHIIPBDI@Z 100385c0 f i il_utx.obj
 0001:00037630       ?compare@?$char_traits@D@std@@SAHPBD0I@Z 10038630 f i il_utx.obj
 0001:000376a0       ?replace@?$basic_string@DU?$char_traits@D@std@@V?$allocator@D@2@@std@@QAEAAV12@IIABV12@II@Z 100386a0 f i il_utx.obj
 0001:00037a00       ?replace@?$basic_string@DU?$char_traits@D@std@@V?$allocator@D@2@@std@@QAEAAV12@IIPBDI@Z 10038a00 f i il_utx.obj
 0001:00037ba0       ?resize@?$vector@UUTXENTRYNAME@@V?$allocator@UUTXENTRYNAME@@@std@@@std@@QAEXI@Z 10038ba0 f i il_utx.obj
 0001:00037cc0       ?resize@?$vector@UUTXEXPORTTABLE@@V?$allocator@UUTXEXPORTTABLE@@@std@@@std@@QAEXI@Z 10038cc0 f i il_utx.obj
 0001:00037d90       ?resize@?$vector@UUTXIMPORTTABLE@@V?$allocator@UUTXIMPORTTABLE@@@std@@@std@@QAEXI@Z 10038d90 f i il_utx.obj
 0001:00037e70       ?resize@?$vector@VUTXPALETTE@@V?$allocator@VUTXPALETTE@@@std@@@std@@QAEXI@Z 10038e70 f i il_utx.obj
 0001:00037f90       ?iIsValidVtf@@YAEPAUSIO@@@Z 10038f90 f   il_vtf.obj
 0001:00038030       ?iLoadVtfInternal@@YAEPAUILimage@@@Z 10039030 f   il_vtf.obj
 0001:00038920       ?iSaveVtfInternal@@YAEPAUILimage@@@Z 10039920 f   il_vtf.obj
 0001:00038cd0       ?iCheckVtf@@YAEPAUVTFHEAD@@@Z 10039cd0 f   il_vtf.obj
 0001:00038dd0       ?VtfInitFacesMipmaps@@YAEPAUILimage@@IPAUVTFHEAD@@@Z 10039dd0 f   il_vtf.obj
 0001:00038eb0       ?VtfInitMipmaps@@YAEPAUILimage@@PAUVTFHEAD@@@Z 10039eb0 f   il_vtf.obj
 0001:00038f70       ?iGetVtfHead@@YAEPAUSIO@@PAUVTFHEAD@@@Z 10039f70 f   il_vtf.obj
 0001:00038fb0       ?GetFaceFlag@@YAII@Z       10039fb0 f   il_vtf.obj
 0001:00039010       ?iLoadWalInternal@@YAEPAUILimage@@@Z 1003a010 f   il_wal.obj
 0001:000392f0       ?iLoadWbmpInternal@@YAEPAUILimage@@@Z 1003a2f0 f   il_wbmp.obj
 0001:00039450       ?iSaveWbmpInternal@@YAEPAUILimage@@@Z 1003a450 f   il_wbmp.obj
 0001:00039690       ?WbmpGetMultibyte@@YAIPAUSIO@@@Z 1003a690 f   il_wbmp.obj
 0001:000396d0       ?WbmpPutMultibyte@@YAEPAUSIO@@I@Z 1003a6d0 f   il_wbmp.obj
 0001:00039730       ?iIsValidXpm@@YAEPAUSIO@@@Z 1003a730 f   il_xpm.obj
 0001:000397a0       ?iLoadXpmInternal@@YAEPAUILimage@@@Z 1003a7a0 f   il_xpm.obj
 0001:00039b40       ?XpmGetsInternal@@YAHPAUSIO@@PAEH@Z 1003ab40 f   il_xpm.obj
 0001:00039c30       ?XpmCreateHashTable@@YAPAPAUXPMHASHENTRY@@XZ 1003ac30 f   il_xpm.obj
 0001:00039c60       ?XpmDestroyHashTable@@YAXPAPAUXPMHASHENTRY@@@Z 1003ac60 f   il_xpm.obj
 0001:00039ca0       ?XpmInsertEntry@@YAXPAPAUXPMHASHENTRY@@PBEHQAE@Z 1003aca0 f   il_xpm.obj
 0001:00039cf0       ?XpmGetEntry@@YAXPAPAUXPMHASHENTRY@@PBEHQAE@Z 1003acf0 f   il_xpm.obj
 0001:00039d40       ?XpmGets@@YAHPAUSIO@@PAEH@Z 1003ad40 f   il_xpm.obj
 0001:00039e30       ?XpmGetInt@@YAHPAEHPAH@Z   1003ae30 f   il_xpm.obj
 0001:00039ef0       ?XpmPredefCol@@YAEPADPAY03E@Z 1003aef0 f   il_xpm.obj
 0001:0003a220       ?XpmGetColour@@YAEPAEHHPAPAUXPMHASHENTRY@@@Z 1003b220 f   il_xpm.obj
 0001:0003a5a2       _memset                    1003b5a2 f   msvcrt:MSVCR120.dll
 0001:0003a5a8       _memcpy                    1003b5a8 f   msvcrt:MSVCR120.dll
 0001:0003a5b0       __allrem                   1003b5b0 f   msvcrt:llrem.obj
 0001:0003a662       @__security_check_cookie@4 1003b662 f   msvcrt:secchk.obj
 0001:0003a672       ??3@YAXPAX@Z               1003b672 f   msvcrt:MSVCR120.dll
 0001:0003a678       ___CxxFrameHandler3        1003b678 f   msvcrt:MSVCR120.dll
 0001:0003a67e       ??_Etype_info@@UAEPAXI@Z   1003b67e f i msvcrt:ti_inst.obj
 0001:0003a6d0       __ftoui3                   1003b6d0 f   msvcrt:ftol3.obj
 0001:0003a6df       __ftoul3                   1003b6df f   msvcrt:ftol3.obj
 0001:0003a6ee       __ftol3                    1003b6ee f   msvcrt:ftol3.obj
 0001:0003a6fb       __ftol3_NaN                1003b6fb f   msvcrt:ftol3.obj
 0001:0003a713       __ftol3_work               1003b713 f   msvcrt:ftol3.obj
 0001:0003a799       __ftol3_common             1003b799 f   msvcrt:ftol3.obj
 0001:0003a85b       __ftol3_arg_error          1003b85b f   msvcrt:ftol3.obj
 0001:0003a86d       __ftol3_except             1003b86d f   msvcrt:ftol3.obj
 0001:0003a8af       __dtoui3                   1003b8af f   msvcrt:ftol3.obj
 0001:0003a8be       __dtoul3                   1003b8be f   msvcrt:ftol3.obj
 0001:0003a8cd       __dtol3                    1003b8cd f   msvcrt:ftol3.obj
 0001:0003a8da       __dtol3_NaN                1003b8da f   msvcrt:ftol3.obj
 0001:0003a8f7       __dtol3_work               1003b8f7 f   msvcrt:ftol3.obj
 0001:0003a9dc       __ultod3                   1003b9dc f   msvcrt:ftol3.obj
 0001:0003aa6d       __ltod3                    1003ba6d f   msvcrt:ftol3.obj
 0001:0003aaa0       __alloca_probe             1003baa0 f   msvcrt:chkstk.obj
 0001:0003aaa0       __chkstk                   1003baa0 f   msvcrt:chkstk.obj
 0001:0003aad0       __purecall                 1003bad0 f   msvcrt:MSVCR120.dll
 0001:0003aad6       ??2@YAPAXI@Z               1003bad6 f   msvcrt:MSVCR120.dll
 0001:0003aadc       ___atonexitinit            1003badc f   msvcrt:atonexit.obj
 0001:0003ab18       __onexit                   1003bb18 f   msvcrt:atonexit.obj
 0001:0003abc1       _atexit                    1003bbc1 f   msvcrt:atonexit.obj
 0001:0003abd6       ??_V@YAXPAX@Z              1003bbd6 f   msvcrt:MSVCR120.dll
 0001:0003abdc       ??_U@YAPAXI@Z              1003bbdc f   msvcrt:MSVCR120.dll
 0001:0003abe2       __CxxThrowException@8      1003bbe2 f   msvcrt:MSVCR120.dll
 0001:0003abf0       __alldiv                   1003bbf0 f   msvcrt:lldiv.obj
 0001:0003ac9a       ___raise_securityfailure   1003bc9a f   msvcrt:gs_report.obj
 0001:0003acd7       ___report_gsfailure        1003bcd7 f   msvcrt:gs_report.obj
 0001:0003add2       ___report_rangecheckfailure 1003bdd2 f   msvcrt:gs_report.obj
 0001:0003adde       ___report_securityfailure  1003bdde f   msvcrt:gs_report.obj
 0001:0003aeae       __setjmp3                  1003beae f   msvcrt:MSVCR120.dll
 0001:0003aeb5       ___isa_available_init      1003beb5 f   msvcrt:cpu_disp.obj
 0001:0003b07a       __CRT_INIT@12              1003c07a f   msvcrt:crtdll.obj
 0001:0003b271       __DllMainCRTStartup@12     1003c271 f   msvcrt:crtdll.obj
 0001:0003b3c7       ??_M@YGXPAXIHP6EX0@Z@Z     1003c3c7 f   msvcrt:ehvecdtr.obj
 0001:0003b436       ?__ArrayUnwind@@YGXPAXIHP6EX0@Z@Z 1003c436 f   msvcrt:ehvecdtr.obj
 0001:0003b494       ??1type_info@@UAE@XZ       1003c494 f   msvcrt:MSVCR120.dll
 0001:0003b49a       __except1                  1003c49a f   msvcrt:MSVCR120.dll
 0001:0003b4a0       __lock                     1003c4a0 f   msvcrt:MSVCR120.dll
 0001:0003b4a6       __unlock                   1003c4a6 f   msvcrt:MSVCR120.dll
 0001:0003b4ac       ___dllonexit               1003c4ac f   msvcrt:MSVCR120.dll
 0001:0003b4c0       __SEH_prolog4              1003c4c0 f   msvcrt:sehprolg4.obj
 0001:0003b505       __SEH_epilog4              1003c505 f   msvcrt:sehprolg4.obj
 0001:0003b519       __except_handler4          1003c519 f   msvcrt:chandler4gs.obj
 0001:0003b53c       __crt_debugger_hook        1003c53c f   msvcrt:MSVCR120.dll
 0001:0003b542       ___crtUnhandledException   1003c542 f   msvcrt:MSVCR120.dll
 0001:0003b548       ___crtTerminateProcess     1003c548 f   msvcrt:MSVCR120.dll
 0001:0003b54e       ___CppXcptFilter           1003c54e f   msvcrt:MSVCR120.dll
 0001:0003b554       __amsg_exit                1003c554 f   msvcrt:MSVCR120.dll
 0001:0003b560       __FindPESection            1003c560 f   msvcrt:pesect.obj
 0001:0003b5b0       __IsNonwritableInCurrentImage 1003c5b0 f   msvcrt:pesect.obj
 0001:0003b670       __ValidateImageBase        1003c670 f   msvcrt:pesect.obj
 0001:0003b6a1       ___security_init_cookie    1003c6a1 f   msvcrt:gs_support.obj
 0001:0003b73d       __RTC_Initialize           1003c73d f   msvcrt:initsect.obj
 0001:0003b75d       __RTC_Terminate            1003c75d f   msvcrt:initsect.obj
 0001:0003b77e       __initterm                 1003c77e f   msvcrt:MSVCR120.dll
 0001:0003b784       __initterm_e               1003c784 f   msvcrt:MSVCR120.dll
 0001:0003b78a       ___clean_type_info_names   1003c78a f   msvcrt:tncleanup.obj
 0001:0003b796       ?terminate@@YAXXZ          1003c796 f   msvcrt:MSVCR120.dll
 0001:0003b79c       __except_handler4_common   1003c79c f   msvcrt:MSVCR120.dll
 0001:0003b7a2       ___clean_type_info_names_internal 1003c7a2 f   msvcrt:MSVCR120.dll
 0001:0003b7b0       _png_create_read_struct    1003c7b0 f   libPNG:pngread.obj
 0001:0003b800       _png_create_read_struct_2  1003c800 f   libPNG:pngread.obj
 0001:0003b860       _png_read_info             1003c860 f   libPNG:pngread.obj
 0001:0003bb70       _png_start_read_image      1003cb70 f   libPNG:pngread.obj
 0001:0003bba0       _png_read_update_info      1003cba0 f   libPNG:pngread.obj
 0001:0003bbe0       _png_read_rows             1003cbe0 f   libPNG:pngread.obj
 0001:0003bc70       _png_read_row              1003cc70 f   libPNG:pngread.obj
 0001:0003bf90       _png_read_image            1003cf90 f   libPNG:pngread.obj
 0001:0003c050       _png_read_end              1003d050 f   libPNG:pngread.obj
 0001:0003c370       _png_destroy_read_struct   1003d370 f   libPNG:pngread.obj
 0001:0003c3b0       _png_set_read_status_fn    1003d3b0 f   libPNG:pngread.obj
 0001:0003c3d0       _png_read_png              1003d3d0 f   libPNG:pngread.obj
 0001:0003c5a0       _png_image_begin_read_from_file 1003d5a0 f   libPNG:pngread.obj
 0001:0003c650       _png_image_begin_read_from_stdio 1003d650 f   libPNG:pngread.obj
 0001:0003c6c0       _png_image_begin_read_from_memory 1003d6c0 f   libPNG:pngread.obj
 0001:0003c750       _png_image_finish_read     1003d750 f   libPNG:pngread.obj
 0001:0003f750       _png_set_longjmp_fn        10040750 f   libPNG:pngerror.obj
 0001:0003f7e0       _png_longjmp               100407e0 f   libPNG:pngerror.obj
 0001:0003f810       _png_set_error_fn          10040810 f   libPNG:pngerror.obj
 0001:0003f830       _png_get_error_ptr         10040830 f   libPNG:pngerror.obj
 0001:0003f850       _png_error                 10040850 f   libPNG:pngerror.obj
 0001:0003f880       _png_chunk_error           10040880 f   libPNG:pngerror.obj
 0001:0003f8c0       _png_warning               100408c0 f   libPNG:pngerror.obj
 0001:0003f940       _png_chunk_warning         10040940 f   libPNG:pngerror.obj
 0001:0003f9b0       _png_benign_error          100409b0 f   libPNG:pngerror.obj
 0001:0003fa10       _png_chunk_benign_error    10040a10 f   libPNG:pngerror.obj
 0001:0003fa70       _png_free_jmpbuf           10040a70 f   libPNG:pngerror.obj
 0001:0003fb00       _png_fixed_error           10040b00 f   libPNG:pngerror.obj
 0001:0003fb80       _png_safecat               10040b80 f   libPNG:pngerror.obj
 0001:0003fbc0       _png_format_number         10040bc0 f   libPNG:pngerror.obj
 0001:0003fd00       _png_warning_parameter     10040d00 f   libPNG:pngerror.obj
 0001:0003fd50       _png_warning_parameter_unsigned 10040d50 f   libPNG:pngerror.obj
 0001:0003fdd0       _png_warning_parameter_signed 10040dd0 f   libPNG:pngerror.obj
 0001:0003fe60       _png_formatted_warning     10040e60 f   libPNG:pngerror.obj
 0001:0003ff50       _png_app_warning           10040f50 f   libPNG:pngerror.obj
 0001:0003ff80       _png_app_error             10040f80 f   libPNG:pngerror.obj
 0001:0003ffb0       _png_chunk_report          10040fb0 f   libPNG:pngerror.obj
 0001:00040060       _png_safe_error            10041060 f   libPNG:pngerror.obj
 0001:00040130       _png_safe_warning          10041130 f   libPNG:pngerror.obj
 0001:00040180       _png_safe_execute          10041180 f   libPNG:pngerror.obj
 0001:000403c0       _png_access_version_number 100413c0 f   libPNG:png.obj
 0001:000403d0       _png_set_sig_bytes         100413d0 f   libPNG:png.obj
 0001:00040410       _png_sig_cmp               10041410 f   libPNG:png.obj
 0001:000404f0       _png_reset_zstream         100414f0 f   libPNG:png.obj
 0001:00040510       _png_create_info_struct    10041510 f   libPNG:png.obj
 0001:00040550       _png_info_init_3           10041550 f   libPNG:png.obj
 0001:000405a0       _png_convert_to_rfc1123    100415a0 f   libPNG:png.obj
 0001:000405e0       _png_convert_to_rfc1123_buffer 100415e0 f   libPNG:png.obj
 0001:00040780       _png_build_grayscale_palette 10041780 f   libPNG:png.obj
 0001:00040810       _png_destroy_info_struct   10041810 f   libPNG:png.obj
 0001:00040860       _png_init_io               10041860 f   libPNG:png.obj
 0001:00040880       _png_get_io_ptr            10041880 f   libPNG:png.obj
 0001:000408a0       _png_free_data             100418a0 f   libPNG:png.obj
 0001:00040cb0       _png_data_freer            10041cb0 f   libPNG:png.obj
 0001:00040d00       _png_handle_as_unknown     10041d00 f   libPNG:png.obj
 0001:00040d40       _png_get_copyright         10041d40 f   libPNG:png.obj
 0001:00040d50       _png_get_header_ver        10041d50 f   libPNG:png.obj
 0001:00040d60       _png_get_header_version    10041d60 f   libPNG:png.obj
 0001:00040d70       _png_get_libpng_ver        10041d70 f   libPNG:png.obj
 0001:00040d80       _png_save_int_32           10041d80 f   libPNG:png.obj
 0001:00040db0       _png_image_free            10041db0 f   libPNG:png.obj
 0001:00040de0       _png_set_option            10041de0 f   libPNG:png.obj
 0001:00040e40       _png_zstream_error         10041e40 f   libPNG:png.obj
 0001:00040f10       _png_fixed                 10041f10 f   libPNG:png.obj
 0001:00040f70       _png_user_version_check    10041f70 f   libPNG:png.obj
 0001:00041070       _png_create_png_struct     10042070 f   libPNG:png.obj
 0001:000411f0       _png_zalloc                100421f0 f   libPNG:png.obj
 0001:00041230       _png_zfree                 10042230 f   libPNG:png.obj
 0001:00041240       _png_reset_crc             10042240 f   libPNG:png.obj
 0001:00041260       _png_calculate_crc         10042260 f   libPNG:png.obj
 0001:000412d0       _png_chunk_unknown_handling 100422d0 f   libPNG:png.obj
 0001:00041360       _png_colorspace_set_gamma  10042360 f   libPNG:png.obj
 0001:000413e0       _png_colorspace_sync_info  100423e0 f   libPNG:png.obj
 0001:00041440       _png_colorspace_sync       10042440 f   libPNG:png.obj
 0001:000414b0       _png_colorspace_set_chromaticities 100424b0 f   libPNG:png.obj
 0001:00041550       _png_colorspace_set_endpoints 10042550 f   libPNG:png.obj
 0001:000415e0       _png_colorspace_set_sRGB   100425e0 f   libPNG:png.obj
 0001:000416f0       _png_colorspace_set_ICC    100426f0 f   libPNG:png.obj
 0001:00041780       _png_icc_check_length      10042780 f   libPNG:png.obj
 0001:000417b0       _png_icc_check_header      100427b0 f   libPNG:png.obj
 0001:00041ac0       _png_icc_check_tag_table   10042ac0 f   libPNG:png.obj
 0001:00041bd0       _png_icc_set_sRGB          10042bd0 f   libPNG:png.obj
 0001:00041c20       _png_colorspace_set_rgb_coefficients 10042c20 f   libPNG:png.obj
 0001:00041d80       _png_check_IHDR            10042d80 f   libPNG:png.obj
 0001:00041f50       _png_ascii_from_fp         10042f50 f   libPNG:png.obj
 0001:00042370       _png_ascii_from_fixed      10043370 f   libPNG:png.obj
 0001:00042490       _png_check_fp_number       10043490 f   libPNG:png.obj
 0001:00042620       _png_check_fp_string       10043620 f   libPNG:png.obj
 0001:00042670       _png_muldiv                10043670 f   libPNG:png.obj
 0001:00042720       _png_muldiv_warn           10043720 f   libPNG:png.obj
 0001:00042760       _png_reciprocal            10043760 f   libPNG:png.obj
 0001:000427d0       _png_reciprocal2           100437d0 f   libPNG:png.obj
 0001:00042850       _png_gamma_significant     10043850 f   libPNG:png.obj
 0001:00042870       _png_gamma_correct         10043870 f   libPNG:png.obj
 0001:00042910       _png_gamma_16bit_correct   10043910 f   libPNG:png.obj
 0001:00042990       _png_gamma_8bit_correct    10043990 f   libPNG:png.obj
 0001:00042a10       _png_destroy_gamma_table   10043a10 f   libPNG:png.obj
 0001:00042b80       _png_build_gamma_table     10043b80 f   libPNG:png.obj
 0001:00042e90       _png_image_error           10043e90 f   libPNG:png.obj
 0001:00044410       _png_set_expand            10045410 f   libPNG:pngrtran.obj
 0001:00044450       _png_set_expand_gray_1_2_4_to_8 10045450 f   libPNG:pngrtran.obj
 0001:00044490       _png_set_palette_to_rgb    10045490 f   libPNG:pngrtran.obj
 0001:000444d0       _png_set_tRNS_to_alpha     100454d0 f   libPNG:pngrtran.obj
 0001:00044510       _png_set_expand_16         10045510 f   libPNG:pngrtran.obj
 0001:00044550       _png_set_gray_to_rgb       10045550 f   libPNG:pngrtran.obj
 0001:000445b0       _png_set_rgb_to_gray       100455b0 f   libPNG:pngrtran.obj
 0001:00044600       _png_set_rgb_to_gray_fixed 10045600 f   libPNG:pngrtran.obj
 0001:00044720       _png_set_alpha_mode        10045720 f   libPNG:pngrtran.obj
 0001:000447b0       _png_set_alpha_mode_fixed  100457b0 f   libPNG:pngrtran.obj
 0001:00044920       _png_set_strip_alpha       10045920 f   libPNG:pngrtran.obj
 0001:00044960       _png_set_background        10045960 f   libPNG:pngrtran.obj
 0001:000449a0       _png_set_background_fixed  100459a0 f   libPNG:pngrtran.obj
 0001:00044a50       _png_set_scale_16          10045a50 f   libPNG:pngrtran.obj
 0001:00044a90       _png_set_strip_16          10045a90 f   libPNG:pngrtran.obj
 0001:00044ad0       _png_set_quantize          10045ad0 f   libPNG:pngrtran.obj
 0001:00045280       _png_set_gamma             10046280 f   libPNG:pngrtran.obj
 0001:00045380       _png_set_gamma_fixed       10046380 f   libPNG:pngrtran.obj
 0001:00045450       _png_set_crc_action        10046450 f   libPNG:pngrtran.obj
 0001:00045510       _png_set_read_user_transform_fn 10046510 f   libPNG:pngrtran.obj
 0001:00045530       _png_read_transform_info   10046530 f   libPNG:pngrtran.obj
 0001:00045700       _png_do_read_transformations 10046700 f   libPNG:pngrtran.obj
 0001:00045b10       _png_init_read_transformations 10046b10 f   libPNG:pngrtran.obj
 0001:00049540       _png_set_bgr               1004a540 f   libPNG:pngtrans.obj
 0001:00049550       _png_set_swap_alpha        1004a550 f   libPNG:pngtrans.obj
 0001:00049570       _png_set_invert_alpha      1004a570 f   libPNG:pngtrans.obj
 0001:00049590       _png_set_filler            1004a590 f   libPNG:pngtrans.obj
 0001:00049620       _png_set_add_alpha         1004a620 f   libPNG:pngtrans.obj
 0001:00049650       _png_set_swap              1004a650 f   libPNG:pngtrans.obj
 0001:00049670       _png_set_packing           1004a670 f   libPNG:pngtrans.obj
 0001:00049690       _png_set_packswap          1004a690 f   libPNG:pngtrans.obj
 0001:000496b0       _png_set_shift             1004a6b0 f   libPNG:pngtrans.obj
 0001:000496e0       _png_set_interlace_handling 1004a6e0 f   libPNG:pngtrans.obj
 0001:00049710       _png_set_invert_mono       1004a710 f   libPNG:pngtrans.obj
 0001:00049720       _png_set_user_transform_info 1004a720 f   libPNG:pngtrans.obj
 0001:00049760       _png_get_user_transform_ptr 1004a760 f   libPNG:pngtrans.obj
 0001:00049780       _png_get_current_row_number 1004a780 f   libPNG:pngtrans.obj
 0001:000497a0       _png_get_current_pass_number 1004a7a0 f   libPNG:pngtrans.obj
 0001:000497c0       _png_do_strip_channel      1004a7c0 f   libPNG:pngtrans.obj
 0001:00049950       _png_do_swap               1004a950 f   libPNG:pngtrans.obj
 0001:00049990       _png_do_packswap           1004a990 f   libPNG:pngtrans.obj
 0001:00049a00       _png_do_invert             1004aa00 f   libPNG:pngtrans.obj
 0001:00049ab0       _png_do_bgr                1004aab0 f   libPNG:pngtrans.obj
 0001:00049b90       _png_do_check_palette_indexes 1004ab90 f   libPNG:pngtrans.obj
 0001:00049ce0       _png_set_read_fn           1004ace0 f   libPNG:pngrio.obj
 0001:00049d30       _png_default_read_data     1004ad30 f   libPNG:pngrio.obj
 0001:00049d70       _png_read_data             1004ad70 f   libPNG:pngrio.obj
 0001:00049d90       _png_get_compression_buffer_size 1004ad90 f   libPNG:pngget.obj
 0001:00049dc0       _png_get_rgb_to_gray_status 1004adc0 f   libPNG:pngget.obj
 0001:00049de0       _png_get_user_chunk_ptr    1004ade0 f   libPNG:pngget.obj
 0001:00049e00       _png_get_valid             1004ae00 f   libPNG:pngget.obj
 0001:00049e20       _png_get_rowbytes          1004ae20 f   libPNG:pngget.obj
 0001:00049e40       _png_get_rows              1004ae40 f   libPNG:pngget.obj
 0001:00049e60       _png_get_channels          1004ae60 f   libPNG:pngget.obj
 0001:00049e80       _png_get_image_width       1004ae80 f   libPNG:pngget.obj
 0001:00049ea0       _png_get_image_height      1004aea0 f   libPNG:pngget.obj
 0001:00049ec0       _png_get_bit_depth         1004aec0 f   libPNG:pngget.obj
 0001:00049ee0       _png_get_color_type        1004aee0 f   libPNG:pngget.obj
 0001:00049f00       _png_get_filter_type       1004af00 f   libPNG:pngget.obj
 0001:00049f20       _png_get_interlace_type    1004af20 f   libPNG:pngget.obj
 0001:00049f40       _png_get_compression_type  1004af40 f   libPNG:pngget.obj
 0001:00049f60       _png_get_pixels_per_meter  1004af60 f   libPNG:pngget.obj
 0001:00049fa0       _png_get_x_pixels_per_meter 1004afa0 f   libPNG:pngget.obj
 0001:00049fd0       _png_get_y_pixels_per_meter 1004afd0 f   libPNG:pngget.obj
 0001:0004a000       _png_get_pixel_aspect_ratio 1004b000 f   libPNG:pngget.obj
 0001:0004a070       _png_get_pixel_aspect_ratio_fixed 1004b070 f   libPNG:pngget.obj
 0001:0004a0d0       _png_get_x_offset_pixels   1004b0d0 f   libPNG:pngget.obj
 0001:0004a100       _png_get_y_offset_pixels   1004b100 f   libPNG:pngget.obj
 0001:0004a130       _png_get_x_offset_microns  1004b130 f   libPNG:pngget.obj
 0001:0004a160       _png_get_y_offset_microns  1004b160 f   libPNG:pngget.obj
 0001:0004a190       _png_get_signature         1004b190 f   libPNG:pngget.obj
 0001:0004a1b0       _png_get_bKGD              1004b1b0 f   libPNG:pngget.obj
 0001:0004a1e0       _png_get_cHRM              1004b1e0 f   libPNG:pngget.obj
 0001:0004a2e0       _png_get_cHRM_XYZ          1004b2e0 f   libPNG:pngget.obj
 0001:0004a3f0       _png_get_cHRM_fixed        1004b3f0 f   libPNG:pngget.obj
 0001:0004a480       _png_get_cHRM_XYZ_fixed    1004b480 f   libPNG:pngget.obj
 0001:0004a520       _png_get_gAMA              1004b520 f   libPNG:pngget.obj
 0001:0004a560       _png_get_gAMA_fixed        1004b560 f   libPNG:pngget.obj
 0001:0004a590       _png_get_hIST              1004b590 f   libPNG:pngget.obj
 0001:0004a5c0       _png_get_IHDR              1004b5c0 f   libPNG:pngget.obj
 0001:0004a680       _png_get_oFFs              1004b680 f   libPNG:pngget.obj
 0001:0004a6e0       _png_get_pCAL              1004b6e0 f   libPNG:pngget.obj
 0001:0004a790       _png_get_pHYs              1004b790 f   libPNG:pngget.obj
 0001:0004a7f0       _png_get_PLTE              1004b7f0 f   libPNG:pngget.obj
 0001:0004a830       _png_get_sBIT              1004b830 f   libPNG:pngget.obj
 0001:0004a860       _png_get_sRGB              1004b860 f   libPNG:pngget.obj
 0001:0004a8a0       _png_get_iCCP              1004b8a0 f   libPNG:pngget.obj
 0001:0004a920       _png_get_sPLT              1004b920 f   libPNG:pngget.obj
 0001:0004a950       _png_get_text              1004b950 f   libPNG:pngget.obj
 0001:0004a9a0       _png_get_tIME              1004b9a0 f   libPNG:pngget.obj
 0001:0004a9e0       _png_get_tRNS              1004b9e0 f   libPNG:pngget.obj
 0001:0004aa60       _png_get_sCAL              1004ba60 f   libPNG:pngget.obj
 0001:0004aac0       _png_get_sCAL_fixed        1004bac0 f   libPNG:pngget.obj
 0001:0004ab40       _png_get_sCAL_s            1004bb40 f   libPNG:pngget.obj
 0001:0004ab90       _png_get_unknown_chunks    1004bb90 f   libPNG:pngget.obj
 0001:0004abc0       _png_get_user_width_max    1004bbc0 f   libPNG:pngget.obj
 0001:0004abe0       _png_get_user_height_max   1004bbe0 f   libPNG:pngget.obj
 0001:0004ac00       _png_get_chunk_cache_max   1004bc00 f   libPNG:pngget.obj
 0001:0004ac20       _png_get_chunk_malloc_max  1004bc20 f   libPNG:pngget.obj
 0001:0004ac40       _png_get_pixels_per_inch   1004bc40 f   libPNG:pngget.obj
 0001:0004aca0       _png_get_x_pixels_per_inch 1004bca0 f   libPNG:pngget.obj
 0001:0004acf0       _png_get_y_pixels_per_inch 1004bcf0 f   libPNG:pngget.obj
 0001:0004ad40       _png_get_x_offset_inches   1004bd40 f   libPNG:pngget.obj
 0001:0004ad90       _png_get_x_offset_inches_fixed 1004bd90 f   libPNG:pngget.obj
 0001:0004adf0       _png_get_y_offset_inches   1004bdf0 f   libPNG:pngget.obj
 0001:0004ae40       _png_get_y_offset_inches_fixed 1004be40 f   libPNG:pngget.obj
 0001:0004aea0       _png_get_pHYs_dpi          1004bea0 f   libPNG:pngget.obj
 0001:0004af90       _png_get_io_state          1004bf90 f   libPNG:pngget.obj
 0001:0004afa0       _png_get_io_chunk_type     1004bfa0 f   libPNG:pngget.obj
 0001:0004afb0       _png_get_palette_max       1004bfb0 f   libPNG:pngget.obj
 0001:0004b030       _png_create_write_struct   1004c030 f   libPNG:pngwrite.obj
 0001:0004b050       _png_create_write_struct_2 1004c050 f   libPNG:pngwrite.obj
 0001:0004b110       _png_write_info_before_PLTE 1004c110 f   libPNG:pngwrite.obj
 0001:0004b270       _png_write_info            1004c270 f   libPNG:pngwrite.obj
 0001:0004b570       _png_convert_from_struct_tm 1004c570 f   libPNG:pngwrite.obj
 0001:0004b5b0       _png_convert_from_time_t   1004c5b0 f   libPNG:pngwrite.obj
 0001:0004b600       _png_set_flush             1004c600 f   libPNG:pngwrite.obj
 0001:0004b620       _png_write_flush           1004c620 f   libPNG:pngwrite.obj
 0001:0004b660       _png_write_row             1004c660 f   libPNG:pngwrite.obj
 0001:0004b960       _png_write_rows            1004c960 f   libPNG:pngwrite.obj
 0001:0004bc60       _png_write_image           1004cc60 f   libPNG:pngwrite.obj
 0001:0004bf90       _png_write_end             1004cf90 f   libPNG:pngwrite.obj
 0001:0004c0d0       _png_destroy_write_struct  1004d0d0 f   libPNG:pngwrite.obj
 0001:0004c110       _png_set_filter            1004d110 f   libPNG:pngwrite.obj
 0001:0004c2f0       _png_set_filter_heuristics 1004d2f0 f   libPNG:pngwrite.obj
 0001:0004c400       _png_set_filter_heuristics_fixed 1004d400 f   libPNG:pngwrite.obj
 0001:0004c620       _png_set_compression_level 1004d620 f   libPNG:pngwrite.obj
 0001:0004c640       _png_set_compression_mem_level 1004d640 f   libPNG:pngwrite.obj
 0001:0004c660       _png_set_compression_strategy 1004d660 f   libPNG:pngwrite.obj
 0001:0004c680       _png_set_compression_window_bits 1004d680 f   libPNG:pngwrite.obj
 0001:0004c6d0       _png_set_compression_method 1004d6d0 f   libPNG:pngwrite.obj
 0001:0004c700       _png_set_text_compression_level 1004d700 f   libPNG:pngwrite.obj
 0001:0004c720       _png_set_text_compression_mem_level 1004d720 f   libPNG:pngwrite.obj
 0001:0004c740       _png_set_text_compression_strategy 1004d740 f   libPNG:pngwrite.obj
 0001:0004c760       _png_set_text_compression_window_bits 1004d760 f   libPNG:pngwrite.obj
 0001:0004c7b0       _png_set_text_compression_method 1004d7b0 f   libPNG:pngwrite.obj
 0001:0004c7e0       _png_set_write_status_fn   1004d7e0 f   libPNG:pngwrite.obj
 0001:0004c800       _png_set_write_user_transform_fn 1004d800 f   libPNG:pngwrite.obj
 0001:0004c820       _png_write_png             1004d820 f   libPNG:pngwrite.obj
 0001:0004c950       _png_image_write_to_file   1004d950 f   libPNG:pngwrite.obj
 0001:0004ca80       _png_image_write_to_stdio  1004da80 f   libPNG:pngwrite.obj
 0001:0004db50       _png_set_write_fn          1004eb50 f   libPNG:pngwio.obj
 0001:0004dba0       _png_default_write_data    1004eba0 f   libPNG:pngwio.obj
 0001:0004dbe0       _png_default_flush         1004ebe0 f   libPNG:pngwio.obj
 0001:0004dc00       _png_write_data            1004ec00 f   libPNG:pngwio.obj
 0001:0004dc20       _png_flush                 1004ec20 f   libPNG:pngwio.obj
 0001:0004dc40       _png_set_compression_buffer_size 1004ec40 f   libPNG:pngset.obj
 0001:0004dcd0       _png_set_read_user_chunk_fn 1004ecd0 f   libPNG:pngset.obj
 0001:0004dcf0       _png_set_benign_errors     1004ecf0 f   libPNG:pngset.obj
 0001:0004dd10       _png_set_rows              1004ed10 f   libPNG:pngset.obj
 0001:0004dd60       _png_set_bKGD              1004ed60 f   libPNG:pngset.obj
 0001:0004dda0       _png_set_cHRM              1004eda0 f   libPNG:pngset.obj
 0001:0004df10       _png_set_cHRM_XYZ          1004ef10 f   libPNG:pngset.obj
 0001:0004e0b0       _png_set_cHRM_fixed        1004f0b0 f   libPNG:pngset.obj
 0001:0004e140       _png_set_cHRM_XYZ_fixed    1004f140 f   libPNG:pngset.obj
 0001:0004e1d0       _png_set_gAMA              1004f1d0 f   libPNG:pngset.obj
 0001:0004e220       _png_set_gAMA_fixed        1004f220 f   libPNG:pngset.obj
 0001:0004e250       _png_set_hIST              1004f250 f   libPNG:pngset.obj
 0001:0004e300       _png_set_IHDR              1004f300 f   libPNG:pngset.obj
 0001:0004e3c0       _png_set_oFFs              1004f3c0 f   libPNG:pngset.obj
 0001:0004e400       _png_set_pCAL              1004f400 f   libPNG:pngset.obj
 0001:0004e640       _png_set_pHYs              1004f640 f   libPNG:pngset.obj
 0001:0004e680       _png_set_PLTE              1004f680 f   libPNG:pngset.obj
 0001:0004e750       _png_set_sBIT              1004f750 f   libPNG:pngset.obj
 0001:0004e780       _png_set_sRGB              1004f780 f   libPNG:pngset.obj
 0001:0004e7b0       _png_set_sRGB_gAMA_and_cHRM 1004f7b0 f   libPNG:pngset.obj
 0001:0004e7f0       _png_set_iCCP              1004f7f0 f   libPNG:pngset.obj
 0001:0004e920       _png_set_sPLT              1004f920 f   libPNG:pngset.obj
 0001:0004ea90       _png_set_text              1004fa90 f   libPNG:pngset.obj
 0001:0004eac0       _png_set_tIME              1004fac0 f   libPNG:pngset.obj
 0001:0004eb40       _png_set_tRNS              1004fb40 f   libPNG:pngset.obj
 0001:0004ec30       _png_set_sCAL              1004fc30 f   libPNG:pngset.obj
 0001:0004ed00       _png_set_sCAL_fixed        1004fd00 f   libPNG:pngset.obj
 0001:0004edb0       _png_set_sCAL_s            1004fdb0 f   libPNG:pngset.obj
 0001:0004ef30       _png_set_keep_unknown_chunks 1004ff30 f   libPNG:pngset.obj
 0001:0004f0e0       _png_set_unknown_chunks    100500e0 f   libPNG:pngset.obj
 0001:0004f200       _png_set_unknown_chunk_location 10050200 f   libPNG:pngset.obj
 0001:0004f270       _png_set_invalid           10050270 f   libPNG:pngset.obj
 0001:0004f290       _png_permit_mng_features   10050290 f   libPNG:pngset.obj
 0001:0004f2b0       _png_set_user_limits       100502b0 f   libPNG:pngset.obj
 0001:0004f2d0       _png_set_chunk_cache_max   100502d0 f   libPNG:pngset.obj
 0001:0004f2f0       _png_set_chunk_malloc_max  100502f0 f   libPNG:pngset.obj
 0001:0004f310       _png_set_check_for_invalid_index 10050310 f   libPNG:pngset.obj
 0001:0004f330       _png_set_text_2            10050330 f   libPNG:pngset.obj
 0001:0004f6f0       _png_set_mem_fn            100506f0 f   libPNG:pngmem.obj
 0001:0004f720       _png_get_mem_ptr           10050720 f   libPNG:pngmem.obj
 0001:0004f740       _png_malloc                10050740 f   libPNG:pngmem.obj
 0001:0004f790       _png_calloc                10050790 f   libPNG:pngmem.obj
 0001:0004f800       _png_malloc_warn           10050800 f   libPNG:pngmem.obj
 0001:0004f850       _png_free                  10050850 f   libPNG:pngmem.obj
 0001:0004f880       _png_malloc_default        10050880 f   libPNG:pngmem.obj
 0001:0004f8c0       _png_free_default          100508c0 f   libPNG:pngmem.obj
 0001:0004f8e0       _png_malloc_base           100508e0 f   libPNG:pngmem.obj
 0001:0004f920       _png_malloc_array          10050920 f   libPNG:pngmem.obj
 0001:0004f950       _png_realloc_array         10050950 f   libPNG:pngmem.obj
 0001:0004f9f0       _png_destroy_png_struct    100509f0 f   libPNG:pngmem.obj
 0001:0004fac0       _png_get_uint_32           10050ac0 f   libPNG:pngrutil.obj
 0001:0004faf0       _png_get_uint_16           10050af0 f   libPNG:pngrutil.obj
 0001:0004fb10       _png_get_int_32            10050b10 f   libPNG:pngrutil.obj
 0001:0004fb40       _png_get_uint_31           10050b40 f   libPNG:pngrutil.obj
 0001:0004fb80       _png_read_sig              10050b80 f   libPNG:pngrutil.obj
 0001:0004fc20       _png_read_chunk_header     10050c20 f   libPNG:pngrutil.obj
 0001:0004fcf0       _png_crc_read              10050cf0 f   libPNG:pngrutil.obj
 0001:0004fd20       _png_crc_finish            10050d20 f   libPNG:pngrutil.obj
 0001:0004fde0       _png_crc_error             10050de0 f   libPNG:pngrutil.obj
 0001:0004fe70       _png_combine_row           10050e70 f   libPNG:pngrutil.obj
 0001:00050320       _png_do_read_interlace     10051320 f   libPNG:pngrutil.obj
 0001:00050710       _png_read_filter_row       10051710 f   libPNG:pngrutil.obj
 0001:00050750       _png_read_IDAT_data        10051750 f   libPNG:pngrutil.obj
 0001:00050980       _png_read_finish_IDAT      10051980 f   libPNG:pngrutil.obj
 0001:00050a00       _png_read_finish_row       10051a00 f   libPNG:pngrutil.obj
 0001:00050ae0       _png_read_start_row        10051ae0 f   libPNG:pngrutil.obj
 0001:00050df0       _png_handle_IHDR           10051df0 f   libPNG:pngrutil.obj
 0001:00050fb0       _png_handle_PLTE           10051fb0 f   libPNG:pngrutil.obj
 0001:000511a0       _png_handle_IEND           100521a0 f   libPNG:pngrutil.obj
 0001:000511f0       _png_handle_bKGD           100521f0 f   libPNG:pngrutil.obj
 0001:00051420       _png_handle_cHRM           10052420 f   libPNG:pngrutil.obj
 0001:00051740       _png_handle_gAMA           10052740 f   libPNG:pngrutil.obj
 0001:00051810       _png_handle_hIST           10052810 f   libPNG:pngrutil.obj
 0001:00051980       _png_handle_iCCP           10052980 f   libPNG:pngrutil.obj
 0001:00051ec0       _png_handle_iTXt           10052ec0 f   libPNG:pngrutil.obj
 0001:00052150       _png_handle_oFFs           10053150 f   libPNG:pngrutil.obj
 0001:000522a0       _png_handle_pCAL           100532a0 f   libPNG:pngrutil.obj
 0001:00052550       _png_handle_pHYs           10053550 f   libPNG:pngrutil.obj
 0001:00052690       _png_handle_sBIT           10053690 f   libPNG:pngrutil.obj
 0001:00052800       _png_handle_sCAL           10053800 f   libPNG:pngrutil.obj
 0001:00052a00       _png_handle_sPLT           10053a00 f   libPNG:pngrutil.obj
 0001:00052cf0       _png_handle_sRGB           10053cf0 f   libPNG:pngrutil.obj
 0001:00052dd0       _png_handle_tEXt           10053dd0 f   libPNG:pngrutil.obj
 0001:00052f60       _png_handle_tIME           10053f60 f   libPNG:pngrutil.obj
 0001:00053080       _png_handle_tRNS           10054080 f   libPNG:pngrutil.obj
 0001:000532d0       _png_handle_zTXt           100542d0 f   libPNG:pngrutil.obj
 0001:00053500       _png_check_chunk_name      10054500 f   libPNG:pngrutil.obj
 0001:00053540       _png_handle_unknown        10054540 f   libPNG:pngrutil.obj
 0001:00054140       _png_write_sig             10055140 f   libPNG:pngwutil.obj
 0001:000541b0       _png_write_chunk           100551b0 f   libPNG:pngwutil.obj
 0001:00054230       _png_write_chunk_start     10055230 f   libPNG:pngwutil.obj
 0001:00054260       _png_write_chunk_data      10055260 f   libPNG:pngwutil.obj
 0001:000542a0       _png_write_chunk_end       100552a0 f   libPNG:pngwutil.obj
 0001:000542f0       _png_save_uint_32          100552f0 f   libPNG:pngwutil.obj
 0001:00054320       _png_save_uint_16          10055320 f   libPNG:pngwutil.obj
 0001:00054340       _png_free_buffer_list      10055340 f   libPNG:pngwutil.obj
 0001:00054370       _png_write_IHDR            10055370 f   libPNG:pngwutil.obj
 0001:00054680       _png_write_PLTE            10055680 f   libPNG:pngwutil.obj
 0001:00054780       _png_compress_IDAT         10055780 f   libPNG:pngwutil.obj
 0001:00054a10       _png_write_IEND            10055a10 f   libPNG:pngwutil.obj
 0001:00054a40       _png_write_gAMA_fixed      10055a40 f   libPNG:pngwutil.obj
 0001:00054aa0       _png_write_sBIT            10055aa0 f   libPNG:pngwutil.obj
 0001:00054b70       _png_write_cHRM_fixed      10055b70 f   libPNG:pngwutil.obj
 0001:00054c30       _png_write_sRGB            10055c30 f   libPNG:pngwutil.obj
 0001:00054c90       _png_write_iCCP            10055c90 f   libPNG:pngwutil.obj
 0001:00054dd0       _png_write_sPLT            10055dd0 f   libPNG:pngwutil.obj
 0001:00054fc0       _png_write_tRNS            10055fc0 f   libPNG:pngwutil.obj
 0001:00055170       _png_write_bKGD            10056170 f   libPNG:pngwutil.obj
 0001:00055310       _png_write_hIST            10056310 f   libPNG:pngwutil.obj
 0001:000553d0       _png_write_tEXt            100563d0 f   libPNG:pngwutil.obj
 0001:000554d0       _png_write_zTXt            100564d0 f   libPNG:pngwutil.obj
 0001:00055600       _png_write_iTXt            10056600 f   libPNG:pngwutil.obj
 0001:00055870       _png_write_oFFs            10056870 f   libPNG:pngwutil.obj
 0001:00055900       _png_write_pCAL            10056900 f   libPNG:pngwutil.obj
 0001:00055b60       _png_write_pHYs            10056b60 f   libPNG:pngwutil.obj
 0001:00055c10       _png_write_tIME            10056c10 f   libPNG:pngwutil.obj
 0001:00055ce0       _png_write_sCAL_s          10056ce0 f   libPNG:pngwutil.obj
 0001:00055da0       _png_write_finish_row      10056da0 f   libPNG:pngwutil.obj
 0001:00055ef0       _png_write_start_row       10056ef0 f   libPNG:pngwutil.obj
 0001:00056050       _png_do_write_interlace    10057050 f   libPNG:pngwutil.obj
 0001:000562d0       _png_write_find_filter     100572d0 f   libPNG:pngwutil.obj
 0001:00057940       _png_do_write_transformations 10058940 f   libPNG:pngwtran.obj
 0001:00057ff0       _cmsCreateProfilePlaceholder 10058ff0 f   lcms:cmsio0.obj
 0001:00058070       _cmsGetProfileContextID    10059070 f   lcms:cmsio0.obj
 0001:00058090       _cmsGetTagCount            10059090 f   lcms:cmsio0.obj
 0001:000580b0       _cmsGetTagSignature        100590b0 f   lcms:cmsio0.obj
 0001:000580d0       _cmsIsTag                  100590d0 f   lcms:cmsio0.obj
 0001:00058120       _cmsReadTag                10059120 f   lcms:cmsio0.obj
 0001:00058330       _cmsWriteTag               10059330 f   lcms:cmsio0.obj
 0001:00058590       _cmsLinkTag                10059590 f   lcms:cmsio0.obj
 0001:00058640       _cmsTagLinkedTo            10059640 f   lcms:cmsio0.obj
 0001:00058680       _cmsReadRawTag             10059680 f   lcms:cmsio0.obj
 0001:00058900       _cmsWriteRawTag            10059900 f   lcms:cmsio0.obj
 0001:000589b0       _cmsGetHeaderFlags         100599b0 f   lcms:cmsio0.obj
 0001:000589c0       _cmsGetHeaderAttributes    100599c0 f   lcms:cmsio0.obj
 0001:000589e0       _cmsGetHeaderProfileID     100599e0 f   lcms:cmsio0.obj
 0001:00058a00       _cmsGetHeaderCreationDateTime 10059a00 f   lcms:cmsio0.obj
 0001:00058a20       _cmsGetHeaderRenderingIntent 10059a20 f   lcms:cmsio0.obj
 0001:00058a30       _cmsSetHeaderFlags         10059a30 f   lcms:cmsio0.obj
 0001:00058a40       _cmsGetHeaderManufacturer  10059a40 f   lcms:cmsio0.obj
 0001:00058a50       _cmsSetHeaderManufacturer  10059a50 f   lcms:cmsio0.obj
 0001:00058a60       _cmsGetHeaderCreator       10059a60 f   lcms:cmsio0.obj
 0001:00058a70       _cmsGetHeaderModel         10059a70 f   lcms:cmsio0.obj
 0001:00058a80       _cmsSetHeaderModel         10059a80 f   lcms:cmsio0.obj
 0001:00058a90       _cmsSetHeaderAttributes    10059a90 f   lcms:cmsio0.obj
 0001:00058ab0       _cmsSetHeaderProfileID     10059ab0 f   lcms:cmsio0.obj
 0001:00058ad0       _cmsSetHeaderRenderingIntent 10059ad0 f   lcms:cmsio0.obj
 0001:00058ae0       _cmsGetPCS                 10059ae0 f   lcms:cmsio0.obj
 0001:00058af0       _cmsSetPCS                 10059af0 f   lcms:cmsio0.obj
 0001:00058b00       _cmsGetColorSpace          10059b00 f   lcms:cmsio0.obj
 0001:00058b10       _cmsSetColorSpace          10059b10 f   lcms:cmsio0.obj
 0001:00058b20       _cmsGetDeviceClass         10059b20 f   lcms:cmsio0.obj
 0001:00058b30       _cmsSetDeviceClass         10059b30 f   lcms:cmsio0.obj
 0001:00058b40       _cmsSetProfileVersion      10059b40 f   lcms:cmsio0.obj
 0001:00058bf0       _cmsGetProfileVersion      10059bf0 f   lcms:cmsio0.obj
 0001:00058c80       _cmsGetEncodedICCversion   10059c80 f   lcms:cmsio0.obj
 0001:00058c90       _cmsSetEncodedICCversion   10059c90 f   lcms:cmsio0.obj
 0001:00058ca0       _cmsOpenIOhandlerFromFile  10059ca0 f   lcms:cmsio0.obj
 0001:00058de0       _cmsOpenIOhandlerFromStream 10059de0 f   lcms:cmsio0.obj
 0001:00058e60       _cmsOpenIOhandlerFromMem   10059e60 f   lcms:cmsio0.obj
 0001:00058fd0       _cmsOpenIOhandlerFromNULL  10059fd0 f   lcms:cmsio0.obj
 0001:00059060       _cmsCloseIOhandler         1005a060 f   lcms:cmsio0.obj
 0001:00059080       _cmsOpenProfileFromFile    1005a080 f   lcms:cmsio0.obj
 0001:000590a0       _cmsOpenProfileFromFileTHR 1005a0a0 f   lcms:cmsio0.obj
 0001:00059110       _cmsOpenProfileFromStream  1005a110 f   lcms:cmsio0.obj
 0001:00059170       _cmsOpenProfileFromStreamTHR 1005a170 f   lcms:cmsio0.obj
 0001:000591d0       _cmsOpenProfileFromMem     1005a1d0 f   lcms:cmsio0.obj
 0001:00059220       _cmsOpenProfileFromMemTHR  1005a220 f   lcms:cmsio0.obj
 0001:00059280       _cmsOpenProfileFromIOhandlerTHR 1005a280 f   lcms:cmsio0.obj
 0001:000592c0       _cmsOpenProfileFromIOhandler2THR 1005a2c0 f   lcms:cmsio0.obj
 0001:00059310       _cmsCloseProfile           1005a310 f   lcms:cmsio0.obj
 0001:00059400       _cmsSaveProfileToFile      1005a400 f   lcms:cmsio0.obj
 0001:00059460       _cmsSaveProfileToStream    1005a460 f   lcms:cmsio0.obj
 0001:000594b0       _cmsSaveProfileToMem       1005a4b0 f   lcms:cmsio0.obj
 0001:00059530       _cmsSaveProfileToIOhandler 1005a530 f   lcms:cmsio0.obj
 0001:00059660       __cmsReadHeader            1005a660 f   lcms:cmsio0.obj
 0001:000598e0       __cmsWriteHeader           1005a8e0 f   lcms:cmsio0.obj
 0001:00059b20       __cmsSearchTag             1005ab20 f   lcms:cmsio0.obj
 0001:00059b70       __cmsGetTagTrueType        1005ab70 f   lcms:cmsio0.obj
 0001:0005a440       _cmsCreateTransformTHR     1005b440 f   lcms:cmsxform.obj
 0001:0005a480       _cmsCreateTransform        1005b480 f   lcms:cmsxform.obj
 0001:0005a4d0       _cmsCreateProofingTransformTHR 1005b4d0 f   lcms:cmsxform.obj
 0001:0005a5d0       _cmsCreateProofingTransform 1005b5d0 f   lcms:cmsxform.obj
 0001:0005a600       _cmsCreateMultiprofileTransformTHR 1005b600 f   lcms:cmsxform.obj
 0001:0005a700       _cmsCreateMultiprofileTransform 1005b700 f   lcms:cmsxform.obj
 0001:0005a750       _cmsCreateExtendedTransform 1005b750 f   lcms:cmsxform.obj
 0001:0005aaa0       _cmsDeleteTransform        1005baa0 f   lcms:cmsxform.obj
 0001:0005ab30       _cmsDoTransform            1005bb30 f   lcms:cmsxform.obj
 0001:0005ab50       _cmsDoTransformStride      1005bb50 f   lcms:cmsxform.obj
 0001:0005ab60       _cmsSetAlarmCodes          1005bb60 f   lcms:cmsxform.obj
 0001:0005ab90       _cmsGetAlarmCodes          1005bb90 f   lcms:cmsxform.obj
 0001:0005abc0       _cmsSetAlarmCodesTHR       1005bbc0 f   lcms:cmsxform.obj
 0001:0005abf0       _cmsGetAlarmCodesTHR       1005bbf0 f   lcms:cmsxform.obj
 0001:0005ac20       _cmsSetAdaptationState     1005bc20 f   lcms:cmsxform.obj
 0001:0005ac60       _cmsSetAdaptationStateTHR  1005bc60 f   lcms:cmsxform.obj
 0001:0005aca0       _cmsGetTransformContextID  1005bca0 f   lcms:cmsxform.obj
 0001:0005acc0       _cmsGetTransformInputFormat 1005bcc0 f   lcms:cmsxform.obj
 0001:0005acd0       _cmsGetTransformOutputFormat 1005bcd0 f   lcms:cmsxform.obj
 0001:0005acf0       _cmsChangeBuffersFormat    1005bcf0 f   lcms:cmsxform.obj
 0001:0005ad90       __cmsSetTransformUserData  1005bd90 f   lcms:cmsxform.obj
 0001:0005adb0       __cmsGetTransformUserData  1005bdb0 f   lcms:cmsxform.obj
 0001:0005adc0       __cmsGetTransformFormatters16 1005bdc0 f   lcms:cmsxform.obj
 0001:0005ade0       __cmsGetTransformFormattersFloat 1005bde0 f   lcms:cmsxform.obj
 0001:0005ae00       __cmsRegisterTransformPlugin 1005be00 f   lcms:cmsxform.obj
 0001:0005ae60       __cmsAllocAlarmCodesChunk  1005be60 f   lcms:cmsxform.obj
 0001:0005ae90       __cmsAllocAdaptationStateChunk 1005be90 f   lcms:cmsxform.obj
 0001:0005aec0       __cmsAllocTransformPluginChunk 1005bec0 f   lcms:cmsxform.obj
 0001:0005baa0       _cmsstrcasecmp             1005caa0 f   lcms:cmserr.obj
 0001:0005bb30       _cmsfilelength             1005cb30 f   lcms:cmserr.obj
 0001:0005bb80       _cmsSetLogErrorHandler     1005cb80 f   lcms:cmserr.obj
 0001:0005bbb0       _cmsSetLogErrorHandlerTHR  1005cbb0 f   lcms:cmserr.obj
 0001:0005bbe0       _cmsSignalError            1005cbe0 f   lcms:cmserr.obj
 0001:0005bc40       __cmsMalloc                1005cc40 f   lcms:cmserr.obj
 0001:0005bc60       __cmsMallocZero            1005cc60 f   lcms:cmserr.obj
 0001:0005bc80       __cmsCalloc                1005cc80 f   lcms:cmserr.obj
 0001:0005bca0       __cmsRealloc               1005cca0 f   lcms:cmserr.obj
 0001:0005bcc0       __cmsFree                  1005ccc0 f   lcms:cmserr.obj
 0001:0005bce0       __cmsDupMem                1005cce0 f   lcms:cmserr.obj
 0001:0005bd00       __cmsCreateMutex           1005cd00 f   lcms:cmserr.obj
 0001:0005bd20       __cmsDestroyMutex          1005cd20 f   lcms:cmserr.obj
 0001:0005bd40       __cmsLockMutex             1005cd40 f   lcms:cmserr.obj
 0001:0005bd70       __cmsUnlockMutex           1005cd70 f   lcms:cmserr.obj
 0001:0005bd90       __cmsRegisterMemHandlerPlugin 1005cd90 f   lcms:cmserr.obj
 0001:0005bdf0       __cmsRegisterMutexPlugin   1005cdf0 f   lcms:cmserr.obj
 0001:0005be60       __cmsCreateSubAlloc        1005ce60 f   lcms:cmserr.obj
 0001:0005bec0       __cmsSubAllocDestroy       1005cec0 f   lcms:cmserr.obj
 0001:0005bf30       __cmsSubAlloc              1005cf30 f   lcms:cmserr.obj
 0001:0005bf90       __cmsSubAllocDup           1005cf90 f   lcms:cmserr.obj
 0001:0005bfd0       __cmsInstallAllocFunctions 1005cfd0 f   lcms:cmserr.obj
 0001:0005c050       __cmsAllocLogErrorChunk    1005d050 f   lcms:cmserr.obj
 0001:0005c0e0       __cmsAllocMemPluginChunk   1005d0e0 f   lcms:cmserr.obj
 0001:0005c180       __cmsAllocMutexPluginChunk 1005d180 f   lcms:cmserr.obj
 0001:0005c210       __cmsTagSignature2String   1005d210 f   lcms:cmserr.obj
 0001:0005c4a0       _cmsD50_XYZ                1005d4a0 f   lcms:cmswtpnt.obj
 0001:0005c4b0       _cmsD50_xyY                1005d4b0 f   lcms:cmswtpnt.obj
 0001:0005c4d0       _cmsWhitePointFromTemp     1005d4d0 f   lcms:cmswtpnt.obj
 0001:0005c610       _cmsTempFromWhitePoint     1005d610 f   lcms:cmswtpnt.obj
 0001:0005c740       _cmsAdaptToIlluminant      1005d740 f   lcms:cmswtpnt.obj
 0001:0005c830       __cmsAdaptationMatrix      1005d830 f   lcms:cmswtpnt.obj
 0001:0005c8b0       __cmsBuildRGB2XYZtransferMatrix 1005d8b0 f   lcms:cmswtpnt.obj
 0001:0005ce10       _cmsCreateContext          1005de10 f   lcms:cmsplugin.obj
 0001:0005cf70       _cmsDeleteContext          1005df70 f   lcms:cmsplugin.obj
 0001:0005d020       _cmsDupContext             1005e020 f   lcms:cmsplugin.obj
 0001:0005d160       _cmsGetContextUserData     1005e160 f   lcms:cmsplugin.obj
 0001:0005d1a0       _cmsPlugin                 1005e1a0 f   lcms:cmsplugin.obj
 0001:0005d1c0       _cmsPluginTHR              1005e1c0 f   lcms:cmsplugin.obj
 0001:0005d320       _cmsUnregisterPlugins      1005e320 f   lcms:cmsplugin.obj
 0001:0005d330       _cmsUnregisterPluginsTHR   1005e330 f   lcms:cmsplugin.obj
 0001:0005d3a0       __cmsAdjustEndianess16     1005e3a0 f   lcms:cmsplugin.obj
 0001:0005d3c0       __cmsAdjustEndianess32     1005e3c0 f   lcms:cmsplugin.obj
 0001:0005d3e0       __cmsAdjustEndianess64     1005e3e0 f   lcms:cmsplugin.obj
 0001:0005d430       __cmsReadUInt8Number       1005e430 f   lcms:cmsplugin.obj
 0001:0005d470       __cmsReadUInt16Number      1005e470 f   lcms:cmsplugin.obj
 0001:0005d4c0       __cmsReadUInt32Number      1005e4c0 f   lcms:cmsplugin.obj
 0001:0005d520       __cmsReadFloat32Number     1005e520 f   lcms:cmsplugin.obj
 0001:0005d580       __cmsReadUInt64Number      1005e580 f   lcms:cmsplugin.obj
 0001:0005d5f0       __cmsRead15Fixed16Number   1005e5f0 f   lcms:cmsplugin.obj
 0001:0005d690       __cmsReadXYZNumber         1005e690 f   lcms:cmsplugin.obj
 0001:0005d870       __cmsReadUInt16Array       1005e870 f   lcms:cmsplugin.obj
 0001:0005d900       __cmsWriteUInt8Number      1005e900 f   lcms:cmsplugin.obj
 0001:0005d920       __cmsWriteUInt16Number     1005e920 f   lcms:cmsplugin.obj
 0001:0005d960       __cmsWriteUInt32Number     1005e960 f   lcms:cmsplugin.obj
 0001:0005d9b0       __cmsWriteFloat32Number    1005e9b0 f   lcms:cmsplugin.obj
 0001:0005da00       __cmsWriteUInt64Number     1005ea00 f   lcms:cmsplugin.obj
 0001:0005da60       __cmsWrite15Fixed16Number  1005ea60 f   lcms:cmsplugin.obj
 0001:0005dae0       __cmsWriteXYZNumber        1005eae0 f   lcms:cmsplugin.obj
 0001:0005dc10       __cmsWriteUInt16Array      1005ec10 f   lcms:cmsplugin.obj
 0001:0005dc70       __cmsReadTypeBase          1005ec70 f   lcms:cmsplugin.obj
 0001:0005dce0       __cmsWriteTypeBase         1005ece0 f   lcms:cmsplugin.obj
 0001:0005dd40       __cmsReadAlignment         1005ed40 f   lcms:cmsplugin.obj
 0001:0005dd90       __cmsWriteAlignment        1005ed90 f   lcms:cmsplugin.obj
 0001:0005ddf0       __cmsIOPrintf              1005edf0 f   lcms:cmsplugin.obj
 0001:0005de60       __cms8Fixed8toDouble       1005ee60 f   lcms:cmsplugin.obj
 0001:0005dea0       __cmsDoubleTo8Fixed8       1005eea0 f   lcms:cmsplugin.obj
 0001:0005dee0       __cms15Fixed16toDouble     1005eee0 f   lcms:cmsplugin.obj
 0001:0005df40       __cmsDoubleTo15Fixed16     1005ef40 f   lcms:cmsplugin.obj
 0001:0005df80       __cmsEncodeDateTimeNumber  1005ef80 f   lcms:cmsplugin.obj
 0001:0005e040       __cmsDecodeDateTimeNumber  1005f040 f   lcms:cmsplugin.obj
 0001:0005e110       __cmsPluginMalloc          1005f110 f   lcms:cmsplugin.obj
 0001:0005e180       __cmsGetContext            1005f180 f   lcms:cmsplugin.obj
 0001:0005e1b0       __cmsContextGetClientChunk 1005f1b0 f   lcms:cmsplugin.obj
 0001:0005e2b0       __cmsRegisterTagTypePlugin 1005f2b0 f   lcms:cmstypes.obj
 0001:0005e2d0       __cmsRegisterTagPlugin     1005f2d0 f   lcms:cmstypes.obj
 0001:0005e330       __cmsRegisterMultiProcessElementPlugin 1005f330 f   lcms:cmstypes.obj
 0001:0005e350       __cmsAllocTagTypePluginChunk 1005f350 f   lcms:cmstypes.obj
 0001:0005e390       __cmsAllocMPETypePluginChunk 1005f390 f   lcms:cmstypes.obj
 0001:0005e3d0       __cmsAllocTagPluginChunk   1005f3d0 f   lcms:cmstypes.obj
 0001:0005e400       __cmsGetTagTypeHandler     1005f400 f   lcms:cmstypes.obj
 0001:0005e440       __cmsGetTagDescriptor      1005f440 f   lcms:cmstypes.obj
 0001:00066010       _cmsPipelineAlloc          10067010 f   lcms:cmslut.obj
 0001:00066080       _cmsPipelineFree           10067080 f   lcms:cmslut.obj
 0001:000660e0       _cmsPipelineDup            100670e0 f   lcms:cmslut.obj
 0001:000661d0       _cmsGetPipelineContextID   100671d0 f   lcms:cmslut.obj
 0001:000661e0       _cmsPipelineInputChannels  100671e0 f   lcms:cmslut.obj
 0001:000661f0       _cmsPipelineOutputChannels 100671f0 f   lcms:cmslut.obj
 0001:00066200       _cmsPipelineStageCount     10067200 f   lcms:cmslut.obj
 0001:00066220       _cmsPipelineGetPtrToFirstStage 10067220 f   lcms:cmslut.obj
 0001:00066230       _cmsPipelineGetPtrToLastStage 10067230 f   lcms:cmslut.obj
 0001:00066260       _cmsPipelineEval16         10067260 f   lcms:cmslut.obj
 0001:00066280       _cmsPipelineEvalFloat      10067280 f   lcms:cmslut.obj
 0001:00066290       _cmsPipelineEvalReverseFloat 10067290 f   lcms:cmslut.obj
 0001:00066640       _cmsPipelineCat            10067640 f   lcms:cmslut.obj
 0001:000666f0       _cmsPipelineSetSaveAs8bitsFlag 100676f0 f   lcms:cmslut.obj
 0001:00066710       _cmsPipelineInsertStage    10067710 f   lcms:cmslut.obj
 0001:00066780       _cmsPipelineUnlinkStage    10067780 f   lcms:cmslut.obj
 0001:00066830       _cmsPipelineCheckAndRetreiveStages 10067830 f   lcms:cmslut.obj
 0001:000668b0       _cmsStageAllocIdentity     100678b0 f   lcms:cmslut.obj
 0001:00066910       _cmsStageAllocToneCurves   10067910 f   lcms:cmslut.obj
 0001:00066a10       _cmsStageAllocMatrix       10067a10 f   lcms:cmslut.obj
 0001:00066c60       _cmsStageAllocCLut16bit    10067c60 f   lcms:cmslut.obj
 0001:00066df0       _cmsStageAllocCLutFloat    10067df0 f   lcms:cmslut.obj
 0001:00067000       _cmsStageAllocCLut16bitGranular 10068000 f   lcms:cmslut.obj
 0001:00067140       _cmsStageAllocCLutFloatGranular 10068140 f   lcms:cmslut.obj
 0001:00067310       _cmsStageDup               10068310 f   lcms:cmslut.obj
 0001:000673e0       _cmsStageFree              100683e0 f   lcms:cmslut.obj
 0001:00067410       _cmsStageNext              10068410 f   lcms:cmslut.obj
 0001:00067420       _cmsStageInputChannels     10068420 f   lcms:cmslut.obj
 0001:00067430       _cmsStageOutputChannels    10068430 f   lcms:cmslut.obj
 0001:00067440       _cmsStageType              10068440 f   lcms:cmslut.obj
 0001:00067450       _cmsStageData              10068450 f   lcms:cmslut.obj
 0001:00067460       _cmsStageSampleCLut16bit   10068460 f   lcms:cmslut.obj
 0001:00067650       _cmsStageSampleCLutFloat   10068650 f   lcms:cmslut.obj
 0001:000679a0       _cmsSliceSpace16           100689a0 f   lcms:cmslut.obj
 0001:00067b20       _cmsSliceSpaceFloat        10068b20 f   lcms:cmslut.obj
 0001:00067cc0       __cmsStageAllocPlaceholder 10068cc0 f   lcms:cmslut.obj
 0001:00067d10       __cmsPipelineSetOptimizationParameters 10068d10 f   lcms:cmslut.obj
 0001:00067d30       __cmsStageAllocLab2XYZ     10068d30 f   lcms:cmslut.obj
 0001:00067d90       __cmsStageAllocXYZ2Lab     10068d90 f   lcms:cmslut.obj
 0001:00067df0       __cmsStageAllocLabPrelin   10068df0 f   lcms:cmslut.obj
 0001:00067e70       __cmsStageAllocLabV2ToV4   10068e70 f   lcms:cmslut.obj
 0001:00067ea0       __cmsStageAllocLabV2ToV4curves 10068ea0 f   lcms:cmslut.obj
 0001:00068050       __cmsStageAllocLabV4ToV2   10069050 f   lcms:cmslut.obj
 0001:00068080       __cmsStageAllocIdentityCurves 10069080 f   lcms:cmslut.obj
 0001:000680b0       __cmsStageAllocIdentityCLut 100690b0 f   lcms:cmslut.obj
 0001:00068180       __cmsStageNormalizeFromLabFloat 10069180 f   lcms:cmslut.obj
 0001:000681b0       __cmsStageNormalizeFromXyzFloat 100691b0 f   lcms:cmslut.obj
 0001:000681e0       __cmsStageNormalizeToLabFloat 100691e0 f   lcms:cmslut.obj
 0001:00068210       __cmsStageNormalizeToXyzFloat 10069210 f   lcms:cmslut.obj
 0001:00068240       __cmsStageGetPtrToCurveSet 10069240 f   lcms:cmslut.obj
 0001:00068250       __cmsQuantizeVal           10069250 f   lcms:cmslut.obj
 0001:00068e30       _cmsMLUalloc               10069e30 f   lcms:cmsnamed.obj
 0001:00068e90       _cmsMLUfree                10069e90 f   lcms:cmsnamed.obj
 0001:00068ed0       _cmsMLUdup                 10069ed0 f   lcms:cmsnamed.obj
 0001:00068f90       _cmsMLUsetASCII            10069f90 f   lcms:cmsnamed.obj
 0001:00069110       _cmsMLUsetWide             1006a110 f   lcms:cmsnamed.obj
 0001:00069180       _cmsMLUgetASCII            1006a180 f   lcms:cmsnamed.obj
 0001:00069270       _cmsMLUgetWide             1006a270 f   lcms:cmsnamed.obj
 0001:00069350       _cmsMLUgetTranslation      1006a350 f   lcms:cmsnamed.obj
 0001:000693d0       _cmsMLUtranslationsCount   1006a3d0 f   lcms:cmsnamed.obj
 0001:000693f0       _cmsMLUtranslationsCodes   1006a3f0 f   lcms:cmsnamed.obj
 0001:00069440       _cmsAllocNamedColorList    1006a440 f   lcms:cmsnamed.obj
 0001:000694f0       _cmsFreeNamedColorList     1006a4f0 f   lcms:cmsnamed.obj
 0001:00069520       _cmsDupNamedColorList      1006a520 f   lcms:cmsnamed.obj
 0001:000695e0       _cmsAppendNamedColor       1006a5e0 f   lcms:cmsnamed.obj
 0001:000696e0       _cmsNamedColorCount        1006a6e0 f   lcms:cmsnamed.obj
 0001:000696f0       _cmsNamedColorIndex        1006a6f0 f   lcms:cmsnamed.obj
 0001:00069740       _cmsNamedColorInfo         1006a740 f   lcms:cmsnamed.obj
 0001:00069820       _cmsGetNamedColorList      1006a820 f   lcms:cmsnamed.obj
 0001:00069840       _cmsAllocProfileSequenceDescription 1006a840 f   lcms:cmsnamed.obj
 0001:000698d0       _cmsDupProfileSequenceDescription 1006a8d0 f   lcms:cmsnamed.obj
 0001:000699f0       _cmsFreeProfileSequenceDescription 1006a9f0 f   lcms:cmsnamed.obj
 0001:00069b00       _cmsDictAlloc              1006ab00 f   lcms:cmsnamed.obj
 0001:00069b20       _cmsDictFree               1006ab20 f   lcms:cmsnamed.obj
 0001:00069bf0       _cmsDictDup                1006abf0 f   lcms:cmsnamed.obj
 0001:00069c50       _cmsDictAddEntry           1006ac50 f   lcms:cmsnamed.obj
 0001:00069d20       _cmsDictGetEntryList       1006ad20 f   lcms:cmsnamed.obj
 0001:00069d30       _cmsDictNextEntry          1006ad30 f   lcms:cmsnamed.obj
 0001:00069d40       __cmsStageAllocNamedColor  1006ad40 f   lcms:cmsnamed.obj
 0001:0006a2f0       _cmsXYZ2xyY                1006b2f0 f   lcms:cmspcs.obj
 0001:0006a340       _cmsxyY2XYZ                1006b340 f   lcms:cmspcs.obj
 0001:0006a390       _cmsXYZ2Lab                1006b390 f   lcms:cmspcs.obj
 0001:0006a4e0       _cmsLab2XYZ                1006b4e0 f   lcms:cmspcs.obj
 0001:0006a5e0       _cmsLab2LCh                1006b5e0 f   lcms:cmspcs.obj
 0001:0006a6b0       _cmsLCh2Lab                1006b6b0 f   lcms:cmspcs.obj
 0001:0006a710       _cmsLabEncoded2Float       1006b710 f   lcms:cmspcs.obj
 0001:0006a780       _cmsLabEncoded2FloatV2     1006b780 f   lcms:cmspcs.obj
 0001:0006a7f0       _cmsFloat2LabEncoded       1006b7f0 f   lcms:cmspcs.obj
 0001:0006a970       _cmsFloat2LabEncodedV2     1006b970 f   lcms:cmspcs.obj
 0001:0006aaf0       _cmsXYZEncoded2Float       1006baf0 f   lcms:cmspcs.obj
 0001:0006ab30       _cmsFloat2XYZEncoded       1006bb30 f   lcms:cmspcs.obj
 0001:0006aca0       _cmsDeltaE                 1006bca0 f   lcms:cmspcs.obj
 0001:0006ad10       _cmsCIE94DeltaE            1006bd10 f   lcms:cmspcs.obj
 0001:0006aff0       _cmsBFDdeltaE              1006bff0 f   lcms:cmspcs.obj
 0001:0006b6d0       _cmsCMCdeltaE              1006c6d0 f   lcms:cmspcs.obj
 0001:0006bb00       _cmsCIE2000DeltaE          1006cb00 f   lcms:cmspcs.obj
 0001:0006c130       __cmsICCcolorSpace         1006d130 f   lcms:cmspcs.obj
 0001:0006c290       __cmsLCMScolorSpace        1006d290 f   lcms:cmspcs.obj
 0001:0006c4f0       _cmsChannelsOf             1006d4f0 f   lcms:cmspcs.obj
 0001:0006c6e0       __cmsReasonableGridpointsByColorspace 1006d6e0 f   lcms:cmspcs.obj
 0001:0006c780       __cmsEndPointsBySpace      1006d780 f   lcms:cmspcs.obj
 0001:0006ce20       _cmsGetSupportedIntents    1006de20 f   lcms:cmscnvrt.obj
 0001:0006ce40       _cmsGetSupportedIntentsTHR 1006de40 f   lcms:cmscnvrt.obj
 0001:0006cef0       __cmsDefaultICCintents     1006def0 f   lcms:cmscnvrt.obj
 0001:0006cf00       __cmsRegisterRenderingIntentPlugin 1006df00 f   lcms:cmscnvrt.obj
 0001:0006cf80       __cmsAllocIntentsPluginChunk 1006df80 f   lcms:cmscnvrt.obj
 0001:0006cfb0       __cmsLinkProfiles          1006dfb0 f   lcms:cmscnvrt.obj
 0001:0006ee50       _cmsIsIntentSupported      1006fe50 f   lcms:cmsio1.obj
 0001:0006ee80       _cmsIsMatrixShaper         1006fe80 f   lcms:cmsio1.obj
 0001:0006ef30       _cmsIsCLUT                 1006ff30 f   lcms:cmsio1.obj
 0001:0006f010       _cmsGetProfileInfo         10070010 f   lcms:cmsio1.obj
 0001:0006f040       _cmsGetProfileInfoASCII    10070040 f   lcms:cmsio1.obj
 0001:0006f070       __cmsReadInputLUT          10070070 f   lcms:cmsio1.obj
 0001:0006f250       __cmsReadOutputLUT         10070250 f   lcms:cmsio1.obj
 0001:0006f3b0       __cmsReadDevicelinkLUT     100703b0 f   lcms:cmsio1.obj
 0001:0006f5a0       __cmsReadMediaWhitePoint   100705a0 f   lcms:cmsio1.obj
 0001:0006f620       __cmsReadCHAD              10070620 f   lcms:cmsio1.obj
 0001:0006f6e0       __cmsReadProfileSequence   100706e0 f   lcms:cmsio1.obj
 0001:0006f7a0       __cmsWriteProfileSequence  100707a0 f   lcms:cmsio1.obj
 0001:0006f800       __cmsCompileProfileSequence 10070800 f   lcms:cmsio1.obj
 0001:00070310       __cmsRegisterOptimizationPlugin 10071310 f   lcms:cmsopt.obj
 0001:00070370       __cmsAllocOptimizationPluginChunk 10071370 f   lcms:cmsopt.obj
 0001:000703a0       __cmsOptimizePipeline      100713a0 f   lcms:cmsopt.obj
 0001:00072fd0       _cmsDetectTAC              10073fd0 f   lcms:cmsgmt.obj
 0001:000730e0       _cmsDesaturateLab          100740e0 f   lcms:cmsgmt.obj
 0001:000732c0       __cmsCreateGamutCheckPipeline 100742c0 f   lcms:cmsgmt.obj
 0001:00073580       __cmsChain2Lab             10074580 f   lcms:cmsgmt.obj
 0001:000736e0       __cmsBuildKToneCurve       100746e0 f   lcms:cmsgmt.obj
 0001:00073b40       _cmsFormatterForColorspaceOfProfile 10074b40 f   lcms:cmspack.obj
 0001:00073b80       _cmsFormatterForPCSOfProfile 10074b80 f   lcms:cmspack.obj
 0001:00073bc0       __cmsRegisterFormattersPlugin 10074bc0 f   lcms:cmspack.obj
 0001:00073c10       __cmsAllocFormattersPluginChunk 10074c10 f   lcms:cmspack.obj
 0001:00073c40       __cmsFormatterIsFloat      10074c40 f   lcms:cmspack.obj
 0001:00073c50       __cmsFormatterIs8bit       10074c50 f   lcms:cmspack.obj
 0001:00073c70       __cmsGetFormatter          10074c70 f   lcms:cmspack.obj
 0001:00077990       __cmsVEC3init              10078990 f   lcms:cmsmtrx.obj
 0001:000779c0       __cmsVEC3minus             100789c0 f   lcms:cmsmtrx.obj
 0001:00077a00       __cmsVEC3cross             10078a00 f   lcms:cmsmtrx.obj
 0001:00077a60       __cmsVEC3dot               10078a60 f   lcms:cmsmtrx.obj
 0001:00077aa0       __cmsVEC3length            10078aa0 f   lcms:cmsmtrx.obj
 0001:00077ae0       __cmsVEC3distance          10078ae0 f   lcms:cmsmtrx.obj
 0001:00077b30       __cmsMAT3identity          10078b30 f   lcms:cmsmtrx.obj
 0001:00077b70       __cmsMAT3isIdentity        10078b70 f   lcms:cmsmtrx.obj
 0001:00077c30       __cmsMAT3per               10078c30 f   lcms:cmsmtrx.obj
 0001:00077db0       __cmsMAT3inverse           10078db0 f   lcms:cmsmtrx.obj
 0001:00077f40       __cmsMAT3solve             10078f40 f   lcms:cmsmtrx.obj
 0001:00078150       __cmsMAT3eval              10079150 f   lcms:cmsmtrx.obj
 0001:00078220       __cmsRegisterInterpPlugin  10079220 f   lcms:cmsintrp.obj
 0001:00078250       __cmsAllocInterpPluginChunk 10079250 f   lcms:cmsintrp.obj
 0001:00078280       __cmsComputeInterpParams   10079280 f   lcms:cmsintrp.obj
 0001:000783f0       __cmsComputeInterpParamsEx 100793f0 f   lcms:cmsintrp.obj
 0001:00078510       __cmsFreeInterpParams      10079510 f   lcms:cmsintrp.obj
 0001:00078530       __cmsSetInterpolationRoutine 10079530 f   lcms:cmsintrp.obj
 0001:0007b0c0       _cmsBuildSegmentedToneCurve 1007c0c0 f   lcms:cmsgamma.obj
 0001:0007b1e0       _cmsBuildParametricToneCurve 1007c1e0 f   lcms:cmsgamma.obj
 0001:0007b2a0       _cmsBuildGamma             1007c2a0 f   lcms:cmsgamma.obj
 0001:0007b2c0       _cmsBuildTabulatedToneCurve16 1007c2c0 f   lcms:cmsgamma.obj
 0001:0007b2e0       _cmsBuildTabulatedToneCurveFloat 1007c2e0 f   lcms:cmsgamma.obj
 0001:0007b3d0       _cmsFreeToneCurve          1007c3d0 f   lcms:cmsgamma.obj
 0001:0007b480       _cmsFreeToneCurveTriple    1007c480 f   lcms:cmsgamma.obj
 0001:0007b4d0       _cmsDupToneCurve           1007c4d0 f   lcms:cmsgamma.obj
 0001:0007b500       _cmsReverseToneCurve       1007c500 f   lcms:cmsgamma.obj
 0001:0007b520       _cmsReverseToneCurveEx     1007c520 f   lcms:cmsgamma.obj
 0001:0007b770       _cmsJoinToneCurve          1007c770 f   lcms:cmsgamma.obj
 0001:0007b850       _cmsSmoothToneCurve        1007c850 f   lcms:cmsgamma.obj
 0001:0007bad0       _cmsEvalToneCurveFloat     1007cad0 f   lcms:cmsgamma.obj
 0001:0007bba0       _cmsEvalToneCurve16        1007cba0 f   lcms:cmsgamma.obj
 0001:0007bbc0       _cmsIsToneCurveMultisegment 1007cbc0 f   lcms:cmsgamma.obj
 0001:0007bbe0       _cmsIsToneCurveLinear      1007cbe0 f   lcms:cmsgamma.obj
 0001:0007bc50       _cmsIsToneCurveMonotonic   1007cc50 f   lcms:cmsgamma.obj
 0001:0007bce0       _cmsIsToneCurveDescending  1007cce0 f   lcms:cmsgamma.obj
 0001:0007bd00       _cmsGetToneCurveParametricType 1007cd00 f   lcms:cmsgamma.obj
 0001:0007bd20       _cmsEstimateGamma          1007cd20 f   lcms:cmsgamma.obj
 0001:0007bf30       _cmsGetToneCurveEstimatedTableEntries 1007cf30 f   lcms:cmsgamma.obj
 0001:0007bf40       _cmsGetToneCurveEstimatedTable 1007cf40 f   lcms:cmsgamma.obj
 0001:0007bf50       __cmsRegisterParametricCurvesPlugin 1007cf50 f   lcms:cmsgamma.obj
 0001:0007bff0       __cmsAllocCurvesPluginChunk 1007cff0 f   lcms:cmsgamma.obj
 0001:0007d0d0       _cmsCreateRGBProfileTHR    1007e0d0 f   lcms:cmsvirt.obj
 0001:0007d390       _cmsCreateRGBProfile       1007e390 f   lcms:cmsvirt.obj
 0001:0007d3b0       _cmsCreateGrayProfileTHR   1007e3b0 f   lcms:cmsvirt.obj
 0001:0007d4a0       _cmsCreateGrayProfile      1007e4a0 f   lcms:cmsvirt.obj
 0001:0007d4c0       _cmsCreateLinearizationDeviceLinkTHR 1007e4c0 f   lcms:cmsvirt.obj
 0001:0007d5b0       _cmsCreateLinearizationDeviceLink 1007e5b0 f   lcms:cmsvirt.obj
 0001:0007d5d0       _cmsCreateInkLimitingDeviceLinkTHR 1007e5d0 f   lcms:cmsvirt.obj
 0001:0007d7a0       _cmsCreateInkLimitingDeviceLink 1007e7a0 f   lcms:cmsvirt.obj
 0001:0007d7c0       _cmsCreateLab2ProfileTHR   1007e7c0 f   lcms:cmsvirt.obj
 0001:0007d8a0       _cmsCreateLab2Profile      1007e8a0 f   lcms:cmsvirt.obj
 0001:0007d8c0       _cmsCreateLab4ProfileTHR   1007e8c0 f   lcms:cmsvirt.obj
 0001:0007d9a0       _cmsCreateLab4Profile      1007e9a0 f   lcms:cmsvirt.obj
 0001:0007d9c0       _cmsCreateXYZProfileTHR    1007e9c0 f   lcms:cmsvirt.obj
 0001:0007daa0       _cmsCreateXYZProfile       1007eaa0 f   lcms:cmsvirt.obj
 0001:0007dab0       _cmsCreate_sRGBProfileTHR  1007eab0 f   lcms:cmsvirt.obj
 0001:0007dbe0       _cmsCreate_sRGBProfile     1007ebe0 f   lcms:cmsvirt.obj
 0001:0007dbf0       _cmsCreateBCHSWabstractProfileTHR 1007ebf0 f   lcms:cmsvirt.obj
 0001:0007ddd0       _cmsCreateBCHSWabstractProfile 1007edd0 f   lcms:cmsvirt.obj
 0001:0007de20       _cmsCreateNULLProfileTHR   1007ee20 f   lcms:cmsvirt.obj
 0001:0007df40       _cmsCreateNULLProfile      1007ef40 f   lcms:cmsvirt.obj
 0001:0007df50       _cmsTransform2DeviceLink   1007ef50 f   lcms:cmsvirt.obj
 0001:0007ea00       _cmsDetectBlackPoint       1007fa00 f   lcms:cmssamp.obj
 0001:0007eb10       _cmsDetectDestinationBlackPoint 1007fb10 f   lcms:cmssamp.obj
 0001:0007f640       __cmsHalf2Float            10080640 f   lcms:cmshalf.obj
 0001:0007f680       __cmsFloat2Half            10080680 f   lcms:cmshalf.obj
 0001:0007f6b0       _TIFFCleanup               100806b0 f   libTIFF:tif_close.obj
 0001:0007f840       _TIFFClose                 10080840 f   libTIFF:tif_close.obj
 0001:0007f880       _TIFFGetField              10080880 f   libTIFF:tif_dir.obj
 0001:0007f8e0       _TIFFVGetField             100808e0 f   libTIFF:tif_dir.obj
 0001:0007f940       _TIFFNumberOfDirectories   10080940 f   libTIFF:tif_dir.obj
 0001:0007fd30       _TIFFCurrentDirOffset      10080d30 f   libTIFF:tif_dir.obj
 0001:0007fd40       _TIFFFreeDirectory         10080d40 f   libTIFF:tif_dir.obj
 0001:0007ff30       _TIFFCreateDirectory       10080f30 f   libTIFF:tif_dir.obj
 0001:0007ff90       _TIFFCreateCustomDirectory 10080f90 f   libTIFF:tif_dir.obj
 0001:00080000       _TIFFCreateEXIFDirectory   10081000 f   libTIFF:tif_dir.obj
 0001:00080020       _TIFFLastDirectory         10081020 f   libTIFF:tif_dir.obj
 0001:00080040       _TIFFSetDirectory          10081040 f   libTIFF:tif_dir.obj
 0001:00080460       _TIFFSetSubDirectory       10081460 f   libTIFF:tif_dir.obj
 0001:00080490       _TIFFUnlinkDirectory       10081490 f   libTIFF:tif_dir.obj
 0001:000806e0       _TIFFSetField              100816e0 f   libTIFF:tif_dir.obj
 0001:00080720       _TIFFVSetField             10081720 f   libTIFF:tif_dir.obj
 0001:00080760       _TIFFUnsetField            10081760 f   libTIFF:tif_dir.obj
 0001:00080830       _TIFFSetTagExtender        10081830 f   libTIFF:tif_dir.obj
 0001:00080850       _TIFFDefaultDirectory      10081850 f   libTIFF:tif_dir.obj
 0001:00080930       __TIFFsetByteArray         10081930 f   libTIFF:tif_dir.obj
 0001:00080970       __TIFFsetString            10081970 f   libTIFF:tif_dir.obj
 0001:000809d0       __TIFFsetShortArray        100819d0 f   libTIFF:tif_dir.obj
 0001:00080a30       __TIFFsetLongArray         10081a30 f   libTIFF:tif_dir.obj
 0001:00080a90       __TIFFsetFloatArray        10081a90 f   libTIFF:tif_dir.obj
 0001:00080af0       __TIFFsetDoubleArray       10081af0 f   libTIFF:tif_dir.obj
 0001:00080bb0       __TIFFsetNString           10081bb0 f   libTIFF:tif_dir.obj
 0001:00080bf0       __TIFFsetLong8Array        10081bf0 f   libTIFF:tif_dir.obj
 0001:000826c0       _TIFFGetFieldDefaulted     100836c0 f   libTIFF:tif_aux.obj
 0001:000826e0       _TIFFVGetFieldDefaulted    100836e0 f   libTIFF:tif_aux.obj
 0001:00082ae0       __TIFFMultiply32           10083ae0 f   libTIFF:tif_aux.obj
 0001:00082b30       __TIFFMultiply64           10083b30 f   libTIFF:tif_aux.obj
 0001:00082ba0       __TIFFCheckMalloc          10083ba0 f   libTIFF:tif_aux.obj
 0001:00082c00       __TIFFCheckRealloc         10083c00 f   libTIFF:tif_aux.obj
 0001:00082c60       __TIFFUInt64ToDouble       10083c60 f   libTIFF:tif_aux.obj
 0001:00082ca0       __TIFFUInt64ToFloat        10083ca0 f   libTIFF:tif_aux.obj
 0001:00082f90       _TIFFReadDirectory         10083f90 f   libTIFF:tif_dirread.obj
 0001:00083c40       _TIFFReadCustomDirectory   10084c40 f   libTIFF:tif_dirread.obj
 0001:00083e70       _TIFFReadEXIFDirectory     10084e70 f   libTIFF:tif_dirread.obj
 0001:00083e90       __TIFFFillStriles          10084e90 f   libTIFF:tif_dirread.obj
 0001:00089210       _TIFFScanlineSize64        1008a210 f   libTIFF:tif_strip.obj
 0001:000893a0       _TIFFScanlineSize          1008a3a0 f   libTIFF:tif_strip.obj
 0001:000893f0       _TIFFRasterScanlineSize64  1008a3f0 f   libTIFF:tif_strip.obj
 0001:00089480       _TIFFRasterScanlineSize    1008a480 f   libTIFF:tif_strip.obj
 0001:000894d0       _TIFFStripSize64           1008a4d0 f   libTIFF:tif_strip.obj
 0001:000894f0       _TIFFStripSize             1008a4f0 f   libTIFF:tif_strip.obj
 0001:00089540       _TIFFRawStripSize64        1008a540 f   libTIFF:tif_strip.obj
 0001:00089590       _TIFFRawStripSize          1008a590 f   libTIFF:tif_strip.obj
 0001:00089610       _TIFFVStripSize64          1008a610 f   libTIFF:tif_strip.obj
 0001:000897e0       _TIFFVStripSize            1008a7e0 f   libTIFF:tif_strip.obj
 0001:00089830       _TIFFDefaultStripSize      1008a830 f   libTIFF:tif_strip.obj
 0001:00089850       _TIFFComputeStrip          1008a850 f   libTIFF:tif_strip.obj
 0001:000898b0       _TIFFNumberOfStrips        1008a8b0 f   libTIFF:tif_strip.obj
 0001:00089910       __TIFFDefaultStripSize     1008a910 f   libTIFF:tif_strip.obj
 0001:00089980       _TIFFWriteBufferSetup      1008a980 f   libTIFF:tif_write.obj
 0001:00089a60       _TIFFSetupStrips           1008aa60 f   libTIFF:tif_write.obj
 0001:00089b50       _TIFFWriteCheck            1008ab50 f   libTIFF:tif_write.obj
 0001:00089c90       _TIFFWriteScanline         1008ac90 f   libTIFF:tif_write.obj
 0001:00089f10       _TIFFWriteTile             1008af10 f   libTIFF:tif_write.obj
 0001:00089f60       _TIFFWriteEncodedStrip     1008af60 f   libTIFF:tif_write.obj
 0001:0008a1a0       _TIFFWriteRawStrip         1008b1a0 f   libTIFF:tif_write.obj
 0001:0008a270       _TIFFWriteEncodedTile      1008b270 f   libTIFF:tif_write.obj
 0001:0008a4d0       _TIFFWriteRawTile          1008b4d0 f   libTIFF:tif_write.obj
 0001:0008a540       _TIFFSetWriteOffset        1008b540 f   libTIFF:tif_write.obj
 0001:0008a560       _TIFFFlushData1            1008b560 f   libTIFF:tif_write.obj
 0001:0008a8f0       _TIFFReadRGBAImage         1008b8f0 f   libTIFF:tif_getimage.obj
 0001:0008a910       _TIFFReadRGBAImageOriented 1008b910 f   libTIFF:tif_getimage.obj
 0001:0008aa10       _TIFFReadRGBAStrip         1008ba10 f   libTIFF:tif_getimage.obj
 0001:0008abb0       _TIFFReadRGBATile          1008bbb0 f   libTIFF:tif_getimage.obj
 0001:0008ae80       _TIFFRGBAImageOK           1008be80 f   libTIFF:tif_getimage.obj
 0001:0008b150       _TIFFRGBAImageBegin        1008c150 f   libTIFF:tif_getimage.obj
 0001:0008b6d0       _TIFFRGBAImageGet          1008c6d0 f   libTIFF:tif_getimage.obj
 0001:0008b730       _TIFFRGBAImageEnd          1008c730 f   libTIFF:tif_getimage.obj
 0001:00091410       _TIFFFileno                10092410 f   libTIFF:tif_open.obj
 0001:00091420       _TIFFSetFileno             10092420 f   libTIFF:tif_open.obj
 0001:00091440       _TIFFClientdata            10092440 f   libTIFF:tif_open.obj
 0001:00091450       _TIFFSetClientdata         10092450 f   libTIFF:tif_open.obj
 0001:00091470       _TIFFGetMode               10092470 f   libTIFF:tif_open.obj
 0001:00091480       _TIFFSetMode               10092480 f   libTIFF:tif_open.obj
 0001:000914a0       _TIFFIsTiled               100924a0 f   libTIFF:tif_open.obj
 0001:000914c0       _TIFFIsByteSwapped         100924c0 f   libTIFF:tif_open.obj
 0001:000914e0       _TIFFIsUpSampled           100924e0 f   libTIFF:tif_open.obj
 0001:00091500       _TIFFIsMSB2LSB             10092500 f   libTIFF:tif_open.obj
 0001:00091510       _TIFFIsBigEndian           10092510 f   libTIFF:tif_open.obj
 0001:00091530       _TIFFGetReadProc           10092530 f   libTIFF:tif_open.obj
 0001:00091540       _TIFFGetWriteProc          10092540 f   libTIFF:tif_open.obj
 0001:00091550       _TIFFGetSeekProc           10092550 f   libTIFF:tif_open.obj
 0001:00091560       _TIFFGetCloseProc          10092560 f   libTIFF:tif_open.obj
 0001:00091570       _TIFFGetSizeProc           10092570 f   libTIFF:tif_open.obj
 0001:00091580       _TIFFGetMapFileProc        10092580 f   libTIFF:tif_open.obj
 0001:00091590       _TIFFGetUnmapFileProc      10092590 f   libTIFF:tif_open.obj
 0001:000915a0       _TIFFCurrentRow            100925a0 f   libTIFF:tif_open.obj
 0001:000915b0       _TIFFCurrentDirectory      100925b0 f   libTIFF:tif_open.obj
 0001:000915c0       _TIFFCurrentStrip          100925c0 f   libTIFF:tif_open.obj
 0001:000915d0       _TIFFCurrentTile           100925d0 f   libTIFF:tif_open.obj
 0001:000915e0       _TIFFClientOpen            100925e0 f   libTIFF:tif_open.obj
 0001:00091cb0       _TIFFFileName              10092cb0 f   libTIFF:tif_open.obj
 0001:00091cc0       _TIFFSetFileName           10092cc0 f   libTIFF:tif_open.obj
 0001:00091cd0       __TIFFgetMode              10092cd0 f   libTIFF:tif_open.obj
 0001:00091d50       _TIFFError                 10092d50 f   libTIFF:tif_error.obj
 0001:00091d90       _TIFFErrorExt              10092d90 f   libTIFF:tif_error.obj
 0001:00091dd0       _TIFFSetErrorHandler       10092dd0 f   libTIFF:tif_error.obj
 0001:00091df0       _TIFFSetErrorHandlerExt    10092df0 f   libTIFF:tif_error.obj
 0001:00091e10       _TIFFWarning               10092e10 f   libTIFF:tif_warning.obj
 0001:00091e50       _TIFFWarningExt            10092e50 f   libTIFF:tif_warning.obj
 0001:00091e90       _TIFFSetWarningHandler     10092e90 f   libTIFF:tif_warning.obj
 0001:00091eb0       _TIFFSetWarningHandlerExt  10092eb0 f   libTIFF:tif_warning.obj
 0001:00091ed0       _TIFFReadBufferSetup       10092ed0 f   libTIFF:tif_read.obj
 0001:00091fb0       _TIFFReadScanline          10092fb0 f   libTIFF:tif_read.obj
 0001:00092050       _TIFFReadTile              10093050 f   libTIFF:tif_read.obj
 0001:000920d0       _TIFFReadEncodedStrip      100930d0 f   libTIFF:tif_read.obj
 0001:000921d0       _TIFFReadRawStrip          100931d0 f   libTIFF:tif_read.obj
 0001:000922f0       _TIFFReadEncodedTile       100932f0 f   libTIFF:tif_read.obj
 0001:000923c0       _TIFFReadRawTile           100933c0 f   libTIFF:tif_read.obj
 0001:000924c0       __TIFFNoPostDecode         100934c0 f   libTIFF:tif_read.obj
 0001:000924d0       __TIFFSwab16BitData        100934d0 f   libTIFF:tif_read.obj
 0001:000924f0       __TIFFSwab24BitData        100934f0 f   libTIFF:tif_read.obj
 0001:00092510       __TIFFSwab32BitData        10093510 f   libTIFF:tif_read.obj
 0001:00092530       __TIFFSwab64BitData        10093530 f   libTIFF:tif_read.obj
 0001:00092550       _TIFFFillStrip             10093550 f   libTIFF:tif_read.obj
 0001:00092820       _TIFFFillTile              10093820 f   libTIFF:tif_read.obj
 0001:00093340       __TIFFmalloc               10094340 f   libTIFF:tif_win32.obj
 0001:00093350       __TIFFrealloc              10094350 f   libTIFF:tif_win32.obj
 0001:00093360       __TIFFmemset               10094360 f   libTIFF:tif_win32.obj
 0001:00093370       __TIFFmemcpy               10094370 f   libTIFF:tif_win32.obj
 0001:00093380       __TIFFmemcmp               10094380 f   libTIFF:tif_win32.obj
 0001:000933f0       __TIFFfree                 100943f0 f   libTIFF:tif_win32.obj
 0001:00093400       _TIFFOpen                  10094400 f   libTIFF:tif_win32.obj
 0001:000934d0       _TIFFOpenW                 100944d0 f   libTIFF:tif_win32.obj
 0001:00093610       _TIFFFdOpen                10094610 f   libTIFF:tif_win32.obj
 0001:00093920       _TIFFFlush                 10094920 f   libTIFF:tif_flush.obj
 0001:00093ab0       _TIFFFlushData             10094ab0 f   libTIFF:tif_flush.obj
 0001:00093b00       _TIFFFindField             10094b00 f   libTIFF:tif_dirinfo.obj
 0001:00093b90       _TIFFFieldWithTag          10094b90 f   libTIFF:tif_dirinfo.obj
 0001:00093bd0       _TIFFFieldWithName         10094bd0 f   libTIFF:tif_dirinfo.obj
 0001:00093c10       _TIFFFieldTag              10094c10 f   libTIFF:tif_dirinfo.obj
 0001:00093c20       _TIFFFieldName             10094c20 f   libTIFF:tif_dirinfo.obj
 0001:00093c30       _TIFFFieldDataType         10094c30 f   libTIFF:tif_dirinfo.obj
 0001:00093c40       _TIFFFieldPassCount        10094c40 f   libTIFF:tif_dirinfo.obj
 0001:00093c50       _TIFFFieldReadCount        10094c50 f   libTIFF:tif_dirinfo.obj
 0001:00093c60       _TIFFFieldWriteCount       10094c60 f   libTIFF:tif_dirinfo.obj
 0001:00093c70       _TIFFDataWidth             10094c70 f   libTIFF:tif_dirinfo.obj
 0001:00093ce0       _TIFFMergeFieldInfo        10094ce0 f   libTIFF:tif_dirinfo.obj
 0001:00093e90       __TIFFGetFields            10094e90 f   libTIFF:tif_dirinfo.obj
 0001:00093ea0       __TIFFGetExifFields        10094ea0 f   libTIFF:tif_dirinfo.obj
 0001:00093eb0       __TIFFSetupFields          10094eb0 f   libTIFF:tif_dirinfo.obj
 0001:00094090       __TIFFPrintFieldInfo       10095090 f   libTIFF:tif_dirinfo.obj
 0001:00094120       __TIFFMergeFields          10095120 f   libTIFF:tif_dirinfo.obj
 0001:00094200       __TIFFFindOrRegisterField  10095200 f   libTIFF:tif_dirinfo.obj
 0001:00094250       __TIFFCreateAnonField      10095250 f   libTIFF:tif_dirinfo.obj
 0001:00094410       __TIFFDataSize             10095410 f   libTIFF:tif_dirinfo.obj
 0001:00094560       __TIFFFindFieldByName      10095560 f   libTIFF:tif_dirinfo.obj
 0001:00094960       _TIFFSwabShort             10095960 f   libTIFF:tif_swab.obj
 0001:00094980       _TIFFSwabLong              10095980 f   libTIFF:tif_swab.obj
 0001:000949a0       _TIFFSwabLong8             100959a0 f   libTIFF:tif_swab.obj
 0001:000949e0       _TIFFSwabFloat             100959e0 f   libTIFF:tif_swab.obj
 0001:00094a00       _TIFFSwabDouble            10095a00 f   libTIFF:tif_swab.obj
 0001:00094a40       _TIFFSwabArrayOfShort      10095a40 f   libTIFF:tif_swab.obj
 0001:00094a70       _TIFFSwabArrayOfTriples    10095a70 f   libTIFF:tif_swab.obj
 0001:00094aa0       _TIFFSwabArrayOfLong       10095aa0 f   libTIFF:tif_swab.obj
 0001:00094ae0       _TIFFSwabArrayOfLong8      10095ae0 f   libTIFF:tif_swab.obj
 0001:00094b30       _TIFFSwabArrayOfFloat      10095b30 f   libTIFF:tif_swab.obj
 0001:00094b70       _TIFFSwabArrayOfDouble     10095b70 f   libTIFF:tif_swab.obj
 0001:00094bc0       _TIFFReverseBits           10095bc0 f   libTIFF:tif_swab.obj
 0001:00094c80       _TIFFGetBitRevTable        10095c80 f   libTIFF:tif_swab.obj
 0001:00094ca0       _TIFFFindCODEC             10095ca0 f   libTIFF:tif_compress.obj
 0001:00094cf0       _TIFFRegisterCODEC         10095cf0 f   libTIFF:tif_compress.obj
 0001:00094d90       _TIFFUnRegisterCODEC       10095d90 f   libTIFF:tif_compress.obj
 0001:00094de0       _TIFFGetConfiguredCODECs   10095de0 f   libTIFF:tif_compress.obj
 0001:00094ee0       __TIFFNoRowEncode          10095ee0 f   libTIFF:tif_compress.obj
 0001:00094f00       __TIFFNoStripEncode        10095f00 f   libTIFF:tif_compress.obj
 0001:00094f20       __TIFFNoTileEncode         10095f20 f   libTIFF:tif_compress.obj
 0001:00094f40       __TIFFNoRowDecode          10095f40 f   libTIFF:tif_compress.obj
 0001:00094f60       __TIFFNoStripDecode        10095f60 f   libTIFF:tif_compress.obj
 0001:00094f80       __TIFFNoTileDecode         10095f80 f   libTIFF:tif_compress.obj
 0001:00094fa0       __TIFFNoPreCode            10095fa0 f   libTIFF:tif_compress.obj
 0001:00094fb0       __TIFFNoSeek               10095fb0 f   libTIFF:tif_compress.obj
 0001:00094fd0       __TIFFSetDefaultCompressionState 10095fd0 f   libTIFF:tif_compress.obj
 0001:000950a0       _TIFFSetCompressionScheme  100960a0 f   libTIFF:tif_compress.obj
 0001:00095210       __TIFFNoFixupTags          10096210 f   libTIFF:tif_compress.obj
 0001:00095240       _TIFFTileRowSize64         10096240 f   libTIFF:tif_tile.obj
 0001:000952c0       _TIFFTileRowSize           100962c0 f   libTIFF:tif_tile.obj
 0001:00095310       _TIFFTileSize64            10096310 f   libTIFF:tif_tile.obj
 0001:00095330       _TIFFTileSize              10096330 f   libTIFF:tif_tile.obj
 0001:00095380       _TIFFVTileSize64           10096380 f   libTIFF:tif_tile.obj
 0001:00095550       _TIFFVTileSize             10096550 f   libTIFF:tif_tile.obj
 0001:000955a0       _TIFFDefaultTileSize       100965a0 f   libTIFF:tif_tile.obj
 0001:000955c0       _TIFFComputeTile           100965c0 f   libTIFF:tif_tile.obj
 0001:000956f0       _TIFFCheckTile             100966f0 f   libTIFF:tif_tile.obj
 0001:000957b0       _TIFFNumberOfTiles         100967b0 f   libTIFF:tif_tile.obj
 0001:00095890       __TIFFDefaultTileSize      10096890 f   libTIFF:tif_tile.obj
 0001:000958f0       _TIFFCIELabToRGBInit       100968f0 f   libTIFF:tif_color.obj
 0001:00095b10       _TIFFCIELabToXYZ           10096b10 f   libTIFF:tif_color.obj
 0001:00095c40       _TIFFXYZToRGB              10096c40 f   libTIFF:tif_color.obj
 0001:00095e20       _TIFFYCbCrToRGBInit        10096e20 f   libTIFF:tif_color.obj
 0001:000960a0       _TIFFYCbCrtoRGB            100970a0 f   libTIFF:tif_color.obj
 0001:00096180       _TIFFWriteDirectory        10097180 f   libTIFF:tif_dirwrite.obj
 0001:000961a0       _TIFFWriteCustomDirectory  100971a0 f   libTIFF:tif_dirwrite.obj
 0001:000961c0       _TIFFCheckpointDirectory   100971c0 f   libTIFF:tif_dirwrite.obj
 0001:00096210       _TIFFRewriteDirectory      10097210 f   libTIFF:tif_dirwrite.obj
 0001:00096600       __TIFFRewriteField         10097600 f   libTIFF:tif_dirwrite.obj
 0001:00099b90       _TIFFIsCODECConfigured     1009ab90 f   libTIFF:tif_codec.obj
 0001:00099c70       _TIFFInitDumpMode          1009ac70 f   libTIFF:tif_dumpmode.obj
 0001:00099e10       _TIFFInitPackBits          1009ae10 f   libTIFF:tif_packbits.obj
 0001:0009a500       _TIFFInitCCITTRLE          1009b500 f   libTIFF:tif_fax3.obj
 0001:0009a550       _TIFFInitCCITTRLEW         1009b550 f   libTIFF:tif_fax3.obj
 0001:0009a5a0       _TIFFInitCCITTFax3         1009b5a0 f   libTIFF:tif_fax3.obj
 0001:0009a600       _TIFFInitCCITTFax4         1009b600 f   libTIFF:tif_fax3.obj
 0001:0009a6a0       __TIFFFax3fillruns         1009b6a0 f   libTIFF:tif_fax3.obj
 0001:0009e5e0       _TIFFInitThunderScan       1009f5e0 f   libTIFF:tif_thunder.obj
 0001:0009ecd0       _TIFFInitNeXT              1009fcd0 f   libTIFF:tif_next.obj
 0001:0009eee0       _TIFFInitLZW               1009fee0 f   libTIFF:tif_lzw.obj
 0001:000a00d0       _LogL16toY                 100a10d0 f   libTIFF:tif_luv.obj
 0001:000a0130       _LogL10toY                 100a1130 f   libTIFF:tif_luv.obj
 0001:000a0180       _XYZtoRGB24                100a1180 f   libTIFF:tif_luv.obj
 0001:000a02e0       _uv_decode                 100a12e0 f   libTIFF:tif_luv.obj
 0001:000a03a0       _LogLuv24toXYZ             100a13a0 f   libTIFF:tif_luv.obj
 0001:000a04e0       _LogLuv32toXYZ             100a14e0 f   libTIFF:tif_luv.obj
 0001:000a0640       _LogL16fromY               100a1640 f   libTIFF:tif_luv.obj
 0001:000a07c0       _LogL10fromY               100a17c0 f   libTIFF:tif_luv.obj
 0001:000a0880       _uv_encode                 100a1880 f   libTIFF:tif_luv.obj
 0001:000a0a10       _LogLuv24fromXYZ           100a1a10 f   libTIFF:tif_luv.obj
 0001:000a0b40       _LogLuv32fromXYZ           100a1b40 f   libTIFF:tif_luv.obj
 0001:000a0cd0       _TIFFInitSGILog            100a1cd0 f   libTIFF:tif_luv.obj
 0001:000a3610       _TIFFPredictorInit         100a4610 f   libTIFF:tif_predict.obj
 0001:000a36d0       _TIFFPredictorCleanup      100a46d0 f   libTIFF:tif_predict.obj
 0001:000a4510       _jpeg_std_error            100a5510 f   jpeg:jerror.obj
 0001:000a4710       _jpeg_CreateCompress       100a5710 f   jpeg:jcapimin.obj
 0001:000a4880       _jpeg_destroy_compress     100a5880 f   jpeg:jcapimin.obj
 0001:000a4890       _jpeg_suppress_tables      100a5890 f   jpeg:jcapimin.obj
 0001:000a4950       _jpeg_finish_compress      100a5950 f   jpeg:jcapimin.obj
 0001:000a4a70       _jpeg_write_marker         100a5a70 f   jpeg:jcapimin.obj
 0001:000a4af0       _jpeg_write_m_header       100a5af0 f   jpeg:jcapimin.obj
 0001:000a4b50       _jpeg_write_m_byte         100a5b50 f   jpeg:jcapimin.obj
 0001:000a4b70       _jpeg_write_tables         100a5b70 f   jpeg:jcapimin.obj
 0001:000a4bd0       _jpeg_abort_compress       100a5bd0 f   jpeg:jcapimin.obj
 0001:000a4be0       _jpeg_CreateDecompress     100a5be0 f   jpeg:jdapimin.obj
 0001:000a4d20       _jpeg_destroy_decompress   100a5d20 f   jpeg:jdapimin.obj
 0001:000a4d30       _jpeg_read_header          100a5d30 f   jpeg:jdapimin.obj
 0001:000a4db0       _jpeg_finish_decompress    100a5db0 f   jpeg:jdapimin.obj
 0001:000a4e80       _jpeg_has_multiple_scans   100a5e80 f   jpeg:jdapimin.obj
 0001:000a4ec0       _jpeg_input_complete       100a5ec0 f   jpeg:jdapimin.obj
 0001:000a4f00       _jpeg_consume_input        100a5f00 f   jpeg:jdapimin.obj
 0001:000a4fd0       _jpeg_abort_decompress     100a5fd0 f   jpeg:jdapimin.obj
 0001:000a51e0       _jpeg_set_defaults         100a61e0 f   jpeg:jcparam.obj
 0001:000a5300       _jpeg_set_colorspace       100a6300 f   jpeg:jcparam.obj
 0001:000a5800       _jpeg_default_colorspace   100a6800 f   jpeg:jcparam.obj
 0001:000a5a50       _jpeg_set_quality          100a6a50 f   jpeg:jcparam.obj
 0001:000a5ac0       _jpeg_set_linear_quality   100a6ac0 f   jpeg:jcparam.obj
 0001:000a5b00       _jpeg_default_qtables      100a6b00 f   jpeg:jcparam.obj
 0001:000a5b40       _jpeg_add_quant_table      100a6b40 f   jpeg:jcparam.obj
 0001:000a5c20       _jpeg_quality_scaling      100a6c20 f   jpeg:jcparam.obj
 0001:000a5c60       _jpeg_simple_progression   100a6c60 f   jpeg:jcparam.obj
 0001:000a6120       _jpeg_start_compress       100a7120 f   jpeg:jcapistd.obj
 0001:000a61a0       _jpeg_write_scanlines      100a71a0 f   jpeg:jcapistd.obj
 0001:000a6260       _jpeg_write_raw_data       100a7260 f   jpeg:jcapistd.obj
 0001:000a6330       _jpeg_start_decompress     100a7330 f   jpeg:jdapistd.obj
 0001:000a6420       _jpeg_read_scanlines       100a7420 f   jpeg:jdapistd.obj
 0001:000a64c0       _jpeg_read_raw_data        100a74c0 f   jpeg:jdapistd.obj
 0001:000a6580       _jpeg_start_output         100a7580 f   jpeg:jdapistd.obj
 0001:000a65f0       _jpeg_finish_output        100a75f0 f   jpeg:jdapistd.obj
 0001:000a6760       _jpeg_alloc_quant_table    100a7760 f   jpeg:jcomapi.obj
 0001:000a6790       _jpeg_alloc_huff_table     100a7790 f   jpeg:jcomapi.obj
 0001:000a67c0       _jpeg_abort                100a77c0 f   jpeg:jcomapi.obj
 0001:000a6800       _jpeg_destroy              100a7800 f   jpeg:jcomapi.obj
 0001:000a6830       _jpeg_save_markers         100a7830 f   jpeg:jdmarker.obj
 0001:000a6910       _jpeg_set_marker_processor 100a7910 f   jpeg:jdmarker.obj
 0001:000a6970       _jpeg_resync_to_restart    100a7970 f   jpeg:jdmarker.obj
 0001:000a6a70       _jinit_marker_reader       100a7a70 f   jpeg:jdmarker.obj
 0001:000a8e60       _jinit_marker_writer       100a9e60 f   jpeg:jcmarker.obj
 0001:000aa510       _jinit_memory_mgr          100ab510 f   jpeg:jmemmgr.obj
 0001:000ab2a0       _jdiv_round_up             100ac2a0 f   jpeg:jutils.obj
 0001:000ab2b0       _jround_up                 100ac2b0 f   jpeg:jutils.obj
 0001:000ab2d0       _jcopy_sample_rows         100ac2d0 f   jpeg:jutils.obj
 0001:000ab320       _jcopy_block_row           100ac320 f   jpeg:jutils.obj
 0001:000ab340       _jpeg_core_output_dimensions 100ac340 f   jpeg:jdinput.obj
 0001:000ab7d0       _jinit_input_controller    100ac7d0 f   jpeg:jdinput.obj
 0001:000ac180       _jinit_compress_master     100ad180 f   jpeg:jcinit.obj
 0001:000ac270       _jpeg_new_colormap         100ad270 f   jpeg:jdmaster.obj
 0001:000ac2f0       _jpeg_calc_output_dimensions 100ad2f0 f   jpeg:jdmaster.obj
 0001:000ac530       _jinit_master_decompress   100ad530 f   jpeg:jdmaster.obj
 0001:000aca80       _jpeg_get_small            100ada80 f   jpeg:jmemnobs.obj
 0001:000acaa0       _jpeg_free_small           100adaa0 f   jpeg:jmemnobs.obj
 0001:000acac0       _jpeg_get_large            100adac0 f   jpeg:jmemnobs.obj
 0001:000acae0       _jpeg_free_large           100adae0 f   jpeg:jmemnobs.obj
 0001:000acb00       _jpeg_mem_available        100adb00 f   jpeg:jmemnobs.obj
 0001:000acb10       _jpeg_open_backing_store   100adb10 f   jpeg:jmemnobs.obj
 0001:000acb30       _jpeg_mem_init             100adb30 f   jpeg:jmemnobs.obj
 0001:000acb40       _jpeg_mem_term             100adb40 f   jpeg:jmemnobs.obj
 0001:000acb50       _jpeg_calc_jpeg_dimensions 100adb50 f   jpeg:jcmaster.obj
 0001:000ad020       _jinit_c_master_control    100ae020 f   jpeg:jcmaster.obj
 0001:000adfa0       _jinit_c_main_controller   100aefa0 f   jpeg:jcmainct.obj
 0001:000ae140       _jinit_c_prep_controller   100af140 f   jpeg:jcprepct.obj
 0001:000ae7c0       _jinit_c_coef_controller   100af7c0 f   jpeg:jccoefct.obj
 0001:000af070       _jinit_color_converter     100b0070 f   jpeg:jccolor.obj
 0001:000afac0       _jinit_downsampler         100b0ac0 f   jpeg:jcsample.obj
 0001:000b0480       _jinit_forward_dct         100b1480 f   jpeg:jcdctmgr.obj
 0001:000b0e60       _jinit_huff_encoder        100b1e60 f   jpeg:jchuff.obj
 0001:000b2cb0       _jinit_arith_encoder       100b3cb0 f   jpeg:jcarith.obj
 0001:000b4030       _jinit_d_main_controller   100b5030 f   jpeg:jdmainct.obj
 0001:000b46e0       _jinit_d_coef_controller   100b56e0 f   jpeg:jdcoefct.obj
 0001:000b5890       _jinit_d_post_controller   100b6890 f   jpeg:jdpostct.obj
 0001:000b5bf0       _jinit_huff_decoder        100b6bf0 f   jpeg:jdhuff.obj
 0001:000b7ab0       _jinit_arith_decoder       100b8ab0 f   jpeg:jdarith.obj
 0001:000b8b20       _jinit_inverse_dct         100b9b20 f   jpeg:jddctmgr.obj
 0001:000b91b0       _jinit_upsampler           100ba1b0 f   jpeg:jdsample.obj
 0001:000b9640       _jinit_color_deconverter   100ba640 f   jpeg:jdcolor.obj
 0001:000ba250       _jinit_1pass_quantizer     100bb250 f   jpeg:jquant1.obj
 0001:000bae70       _jinit_2pass_quantizer     100bbe70 f   jpeg:jquant2.obj
 0001:000bc3e0       _jinit_merged_upsampler    100bd3e0 f   jpeg:jdmerge.obj
 0001:000bc9c0       _jpeg_fdct_islow           100bd9c0 f   jpeg:jfdctint.obj
 0001:000bd610       _jpeg_fdct_7x7             100be610 f   jpeg:jfdctint.obj
 0001:000be770       _jpeg_fdct_6x6             100bf770 f   jpeg:jfdctint.obj
 0001:000bf100       _jpeg_fdct_5x5             100c0100 f   jpeg:jfdctint.obj
 0001:000bf7e0       _jpeg_fdct_4x4             100c07e0 f   jpeg:jfdctint.obj
 0001:000bfb20       _jpeg_fdct_3x3             100c0b20 f   jpeg:jfdctint.obj
 0001:000bfd10       _jpeg_fdct_2x2             100c0d10 f   jpeg:jfdctint.obj
 0001:000bfd80       _jpeg_fdct_1x1             100c0d80 f   jpeg:jfdctint.obj
 0001:000bfdb0       _jpeg_fdct_9x9             100c0db0 f   jpeg:jfdctint.obj
 0001:000c0ac0       _jpeg_fdct_10x10           100c1ac0 f   jpeg:jfdctint.obj
 0001:000c0e90       _jpeg_fdct_11x11           100c1e90 f   jpeg:jfdctint.obj
 0001:000c1400       _jpeg_fdct_12x12           100c2400 f   jpeg:jfdctint.obj
 0001:000c1a20       _jpeg_fdct_13x13           100c2a20 f   jpeg:jfdctint.obj
 0001:000c21b0       _jpeg_fdct_14x14           100c31b0 f   jpeg:jfdctint.obj
 0001:000c28a0       _jpeg_fdct_15x15           100c38a0 f   jpeg:jfdctint.obj
 0001:000c3000       _jpeg_fdct_16x16           100c4000 f   jpeg:jfdctint.obj
 0001:000c3880       _jpeg_fdct_16x8            100c4880 f   jpeg:jfdctint.obj
 0001:000c4710       _jpeg_fdct_14x7            100c5710 f   jpeg:jfdctint.obj
 0001:000c5390       _jpeg_fdct_12x6            100c6390 f   jpeg:jfdctint.obj
 0001:000c5c90       _jpeg_fdct_10x5            100c6c90 f   jpeg:jfdctint.obj
 0001:000c63d0       _jpeg_fdct_8x4             100c73d0 f   jpeg:jfdctint.obj
 0001:000c6830       _jpeg_fdct_6x3             100c7830 f   jpeg:jfdctint.obj
 0001:000c6c20       _jpeg_fdct_4x2             100c7c20 f   jpeg:jfdctint.obj
 0001:000c6d70       _jpeg_fdct_2x1             100c7d70 f   jpeg:jfdctint.obj
 0001:000c6db0       _jpeg_fdct_8x16            100c7db0 f   jpeg:jfdctint.obj
 0001:000c7400       _jpeg_fdct_7x14            100c8400 f   jpeg:jfdctint.obj
 0001:000c7960       _jpeg_fdct_6x12            100c8960 f   jpeg:jfdctint.obj
 0001:000c7db0       _jpeg_fdct_5x10            100c8db0 f   jpeg:jfdctint.obj
 0001:000c80a0       _jpeg_fdct_4x8             100c90a0 f   jpeg:jfdctint.obj
 0001:000c89c0       _jpeg_fdct_3x6             100c99c0 f   jpeg:jfdctint.obj
 0001:000c8e70       _jpeg_fdct_2x4             100c9e70 f   jpeg:jfdctint.obj
 0001:000c8fb0       _jpeg_fdct_1x2             100c9fb0 f   jpeg:jfdctint.obj
 0001:000c9000       _jpeg_fdct_ifast           100ca000 f   jpeg:jfdctfst.obj
 0001:000c9f20       _jpeg_fdct_float           100caf20 f   jpeg:jfdctflt.obj
 0001:000cb370       _jpeg_idct_islow           100cc370 f   jpeg:jidctint.obj
 0001:000cb870       _jpeg_idct_7x7             100cc870 f   jpeg:jidctint.obj
 0001:000ccb60       _jpeg_idct_6x6             100cdb60 f   jpeg:jidctint.obj
 0001:000cd590       _jpeg_idct_5x5             100ce590 f   jpeg:jidctint.obj
 0001:000cdce0       _jpeg_idct_4x4             100cece0 f   jpeg:jidctint.obj
 0001:000ce120       _jpeg_idct_3x3             100cf120 f   jpeg:jidctint.obj
 0001:000ce350       _jpeg_idct_2x2             100cf350 f   jpeg:jidctint.obj
 0001:000ce410       _jpeg_idct_1x1             100cf410 f   jpeg:jidctint.obj
 0001:000ce450       _jpeg_idct_9x9             100cf450 f   jpeg:jidctint.obj
 0001:000ce8a0       _jpeg_idct_10x10           100cf8a0 f   jpeg:jidctint.obj
 0001:000cedc0       _jpeg_idct_11x11           100cfdc0 f   jpeg:jidctint.obj
 0001:000cf420       _jpeg_idct_12x12           100d0420 f   jpeg:jidctint.obj
 0001:000cf9f0       _jpeg_idct_13x13           100d09f0 f   jpeg:jidctint.obj
 0001:000d0140       _jpeg_idct_14x14           100d1140 f   jpeg:jidctint.obj
 0001:000d0830       _jpeg_idct_15x15           100d1830 f   jpeg:jidctint.obj
 0001:000d0fb0       _jpeg_idct_16x16           100d1fb0 f   jpeg:jidctint.obj
 0001:000d1810       _jpeg_idct_16x8            100d2810 f   jpeg:jidctint.obj
 0001:000d1ee0       _jpeg_idct_14x7            100d2ee0 f   jpeg:jidctint.obj
 0001:000d2fb0       _jpeg_idct_12x6            100d3fb0 f   jpeg:jidctint.obj
 0001:000d3a90       _jpeg_idct_10x5            100d4a90 f   jpeg:jidctint.obj
 0001:000d4390       _jpeg_idct_8x4             100d5390 f   jpeg:jidctint.obj
 0001:000d4960       _jpeg_idct_6x3             100d5960 f   jpeg:jidctint.obj
 0001:000d4e00       _jpeg_idct_4x2             100d5e00 f   jpeg:jidctint.obj
 0001:000d4fb0       _jpeg_idct_2x1             100d5fb0 f   jpeg:jidctint.obj
 0001:000d5020       _jpeg_idct_8x16            100d6020 f   jpeg:jidctint.obj
 0001:000d5650       _jpeg_idct_7x14            100d6650 f   jpeg:jidctint.obj
 0001:000d5bd0       _jpeg_idct_6x12            100d6bd0 f   jpeg:jidctint.obj
 0001:000d6020       _jpeg_idct_5x10            100d7020 f   jpeg:jidctint.obj
 0001:000d6b80       _jpeg_idct_4x8             100d7b80 f   jpeg:jidctint.obj
 0001:000d7320       _jpeg_idct_3x6             100d8320 f   jpeg:jidctint.obj
 0001:000d77c0       _jpeg_idct_2x4             100d87c0 f   jpeg:jidctint.obj
 0001:000d79a0       _jpeg_idct_1x2             100d89a0 f   jpeg:jidctint.obj
 0001:000d7a10       _jpeg_idct_ifast           100d8a10 f   jpeg:jidctfst.obj
 0001:000d7e50       _jpeg_idct_float           100d8e50 f   jpeg:jidctflt.obj
 0001:000d82e0       ?convert@half@@CAFH@Z      100d92e0 f   IlmBase:half.obj
 0001:000d83d0       ?overflow@half@@CAMXZ      100d93d0 f   IlmBase:half.obj
 0001:000d8400       ??6@YAAAV?$basic_ostream@DU?$char_traits@D@std@@@std@@AAV01@Vhalf@@@Z 100d9400 f   IlmBase:half.obj
 0001:000d8430       ??5@YAAAV?$basic_istream@DU?$char_traits@D@std@@@std@@AAV01@AAVhalf@@@Z 100d9430 f   IlmBase:half.obj
 0001:000d84c0       ?printBits@@YAXAAV?$basic_ostream@DU?$char_traits@D@std@@@std@@Vhalf@@@Z 100d94c0 f   IlmBase:half.obj
 0001:000d8510       ?printBits@@YAXAAV?$basic_ostream@DU?$char_traits@D@std@@@std@@M@Z 100d9510 f   IlmBase:half.obj
 0001:000d8570       ?printBits@@YAXQADVhalf@@@Z 100d9570 f   IlmBase:half.obj
 0001:000d85b0       ?printBits@@YAXQADM@Z      100d95b0 f   IlmBase:half.obj
 0001:000d8600       ??$?6U?$char_traits@D@std@@@std@@YAAAV?$basic_ostream@DU?$char_traits@D@std@@@0@AAV10@D@Z 100d9600 f i IlmBase:half.obj
 0001:000d8800       ??1_Sentry_base@?$basic_ostream@DU?$char_traits@D@std@@@std@@QAE@XZ 100d9800 f i IlmBase:half.obj
 0001:000d8820       ??1sentry@?$basic_ostream@DU?$char_traits@D@std@@@std@@QAE@XZ 100d9820 f i IlmBase:half.obj
 0001:000d8850       ??1IStream@Imf@@UAE@XZ     100d9850 f   OpenExr:ImfIO.obj
 0001:000d8880       ?isMemoryMapped@IStream@Imf@@UBE_NXZ 100d9880 f   OpenExr:ImfIO.obj
 0001:000d8890       ?readMemoryMapped@IStream@Imf@@UAEPADH@Z 100d9890 f   OpenExr:ImfIO.obj
 0001:000d88d0       ?clear@IStream@Imf@@UAEXXZ 100d98d0 f   OpenExr:ImfIO.obj
 0001:000d88e0       ?fileName@IStream@Imf@@QBEPBDXZ 100d98e0 f   OpenExr:ImfIO.obj
 0001:000d88f0       ??0IStream@Imf@@IAE@QBD@Z  100d98f0 f   OpenExr:ImfIO.obj
 0001:000d8950       ??1OStream@Imf@@UAE@XZ     100d9950 f   OpenExr:ImfIO.obj
 0001:000d8980       ?fileName@OStream@Imf@@QBEPBDXZ 100d9980 f   OpenExr:ImfIO.obj
 0001:000d8990       ??0OStream@Imf@@IAE@QBD@Z  100d9990 f   OpenExr:ImfIO.obj
 0001:000d89f0       ??0InputExc@Iex@@QAE@ABV01@@Z 100d99f0 f i OpenExr:ImfIO.obj
 0001:000d8a10       ??1InputExc@Iex@@UAE@XZ    100d9a10 f i OpenExr:ImfIO.obj
 0001:000d8a20       ??_EIStream@Imf@@UAEPAXI@Z 100d9a20 f i OpenExr:ImfIO.obj
 0001:000d8a20       ??_GIStream@Imf@@UAEPAXI@Z 100d9a20 f i OpenExr:ImfIO.obj
 0001:000d8a70       ??_GInputExc@Iex@@UAEPAXI@Z 100d9a70 f i OpenExr:ImfIO.obj
 0001:000d8a70       ??_EInputExc@Iex@@UAEPAXI@Z 100d9a70 f i OpenExr:ImfIO.obj
 0001:000d8aa0       ??_EOStream@Imf@@UAEPAXI@Z 100d9aa0 f i OpenExr:ImfIO.obj
 0001:000d8aa0       ??_GOStream@Imf@@UAEPAXI@Z 100d9aa0 f i OpenExr:ImfIO.obj
 0001:000d8af0       ?_Myptr@?$_String_val@U?$_Simple_types@D@std@@@std@@QBEPBDXZ 100d9af0 f i il_exr.obj
 0001:000d8af0       ?c_str@?$basic_string@DU?$char_traits@D@std@@V?$allocator@D@2@@std@@QBEPBDXZ 100d9af0 f i OpenExr:ImfIO.obj
 0001:000d8b10       ??0Header@Imf@@QAE@HHMABV?$Vec2@M@Imath@@MW4LineOrder@1@W4Compression@1@@Z 100d9b10 f   OpenExr:ImfHeader.obj
 0001:000d8bc0       ??0Header@Imf@@QAE@HHABV?$Box@V?$Vec2@H@Imath@@@Imath@@MABV?$Vec2@M@3@MW4LineOrder@1@W4Compression@1@@Z 100d9bc0 f   OpenExr:ImfHeader.obj
 0001:000d8c70       ??0Header@Imf@@QAE@ABV?$Box@V?$Vec2@H@Imath@@@Imath@@0MABV?$Vec2@M@3@MW4LineOrder@1@W4Compression@1@@Z 100d9c70 f   OpenExr:ImfHeader.obj
 0001:000d8d00       ??0Header@Imf@@QAE@ABV01@@Z 100d9d00 f   OpenExr:ImfHeader.obj
 0001:000d8dd0       ??1Header@Imf@@QAE@XZ      100d9dd0 f   OpenExr:ImfHeader.obj
 0001:000d8ea0       ??4Header@Imf@@QAEAAV01@ABV01@@Z 100d9ea0 f   OpenExr:ImfHeader.obj
 0001:000d8fa0       ?insert@Header@Imf@@QAEXQBDABVAttribute@2@@Z 100d9fa0 f   OpenExr:ImfHeader.obj
 0001:000d93b0       ?insert@Header@Imf@@QAEXABV?$basic_string@DU?$char_traits@D@std@@V?$allocator@D@2@@std@@ABVAttribute@2@@Z 100da3b0 f   OpenExr:ImfHeader.obj
 0001:000d93d0       ?erase@Header@Imf@@QAEXQBD@Z 100da3d0 f   OpenExr:ImfHeader.obj
 0001:000d95a0       ?erase@Header@Imf@@QAEXABV?$basic_string@DU?$char_traits@D@std@@V?$allocator@D@2@@std@@@Z 100da5a0 f   OpenExr:ImfHeader.obj
 0001:000d95c0       ??AHeader@Imf@@QAEAAVAttribute@1@QBD@Z 100da5c0 f   OpenExr:ImfHeader.obj
 0001:000d97a0       ??AHeader@Imf@@QBEABVAttribute@1@QBD@Z 100da7a0 f   OpenExr:ImfHeader.obj
 0001:000d9980       ??AHeader@Imf@@QAEAAVAttribute@1@ABV?$basic_string@DU?$char_traits@D@std@@V?$allocator@D@2@@std@@@Z 100da980 f   OpenExr:ImfHeader.obj
 0001:000d99a0       ??AHeader@Imf@@QBEABVAttribute@1@ABV?$basic_string@DU?$char_traits@D@std@@V?$allocator@D@2@@std@@@Z 100da9a0 f   OpenExr:ImfHeader.obj
 0001:000d99c0       ?begin@Header@Imf@@QAE?AVIterator@12@XZ 100da9c0 f   OpenExr:ImfHeader.obj
 0001:000d99d0       ?begin@Header@Imf@@QBE?AVConstIterator@12@XZ 100da9d0 f   OpenExr:ImfHeader.obj
 0001:000d99e0       ?end@Header@Imf@@QAE?AVIterator@12@XZ 100da9e0 f   OpenExr:ImfHeader.obj
 0001:000d99f0       ?end@Header@Imf@@QBE?AVConstIterator@12@XZ 100da9f0 f   OpenExr:ImfHeader.obj
 0001:000d9a00       ?find@Header@Imf@@QAE?AVIterator@12@QBD@Z 100daa00 f   OpenExr:ImfHeader.obj
 0001:000d9ab0       ?find@Header@Imf@@QBE?AVConstIterator@12@QBD@Z 100daab0 f   OpenExr:ImfHeader.obj
 0001:000d9b60       ?find@Header@Imf@@QAE?AVIterator@12@ABV?$basic_string@DU?$char_traits@D@std@@V?$allocator@D@2@@std@@@Z 100dab60 f   OpenExr:ImfHeader.obj
 0001:000d9b80       ?find@Header@Imf@@QBE?AVConstIterator@12@ABV?$basic_string@DU?$char_traits@D@std@@V?$allocator@D@2@@std@@@Z 100dab80 f   OpenExr:ImfHeader.obj
 0001:000d9ba0       ?displayWindow@Header@Imf@@QAEAAV?$Box@V?$Vec2@H@Imath@@@Imath@@XZ 100daba0 f   OpenExr:ImfHeader.obj
 0001:000d9bb0       ?displayWindow@Header@Imf@@QBEABV?$Box@V?$Vec2@H@Imath@@@Imath@@XZ 100dabb0 f   OpenExr:ImfHeader.obj
 0001:000d9bc0       ?dataWindow@Header@Imf@@QAEAAV?$Box@V?$Vec2@H@Imath@@@Imath@@XZ 100dabc0 f   OpenExr:ImfHeader.obj
 0001:000d9bd0       ?dataWindow@Header@Imf@@QBEABV?$Box@V?$Vec2@H@Imath@@@Imath@@XZ 100dabd0 f   OpenExr:ImfHeader.obj
 0001:000d9be0       ?pixelAspectRatio@Header@Imf@@QAEAAMXZ 100dabe0 f   OpenExr:ImfHeader.obj
 0001:000d9bf0       ?pixelAspectRatio@Header@Imf@@QBEABMXZ 100dabf0 f   OpenExr:ImfHeader.obj
 0001:000d9c00       ?screenWindowCenter@Header@Imf@@QAEAAV?$Vec2@M@Imath@@XZ 100dac00 f   OpenExr:ImfHeader.obj
 0001:000d9c10       ?screenWindowCenter@Header@Imf@@QBEABV?$Vec2@M@Imath@@XZ 100dac10 f   OpenExr:ImfHeader.obj
 0001:000d9c20       ?screenWindowWidth@Header@Imf@@QAEAAMXZ 100dac20 f   OpenExr:ImfHeader.obj
 0001:000d9c30       ?screenWindowWidth@Header@Imf@@QBEABMXZ 100dac30 f   OpenExr:ImfHeader.obj
 0001:000d9c40       ?channels@Header@Imf@@QAEAAVChannelList@2@XZ 100dac40 f   OpenExr:ImfHeader.obj
 0001:000d9c50       ?channels@Header@Imf@@QBEABVChannelList@2@XZ 100dac50 f   OpenExr:ImfHeader.obj
 0001:000d9c60       ?lineOrder@Header@Imf@@QAEAAW4LineOrder@2@XZ 100dac60 f   OpenExr:ImfHeader.obj
 0001:000d9c70       ?lineOrder@Header@Imf@@QBEABW4LineOrder@2@XZ 100dac70 f   OpenExr:ImfHeader.obj
 0001:000d9c80       ?compression@Header@Imf@@QAEAAW4Compression@2@XZ 100dac80 f   OpenExr:ImfHeader.obj
 0001:000d9c90       ?compression@Header@Imf@@QBEABW4Compression@2@XZ 100dac90 f   OpenExr:ImfHeader.obj
 0001:000d9ca0       ?setName@Header@Imf@@QAEXABV?$basic_string@DU?$char_traits@D@std@@V?$allocator@D@2@@std@@@Z 100daca0 f   OpenExr:ImfHeader.obj
 0001:000d9d80       ?name@Header@Imf@@QAEAAV?$basic_string@DU?$char_traits@D@std@@V?$allocator@D@2@@std@@XZ 100dad80 f   OpenExr:ImfHeader.obj
 0001:000d9df0       ?name@Header@Imf@@QBEABV?$basic_string@DU?$char_traits@D@std@@V?$allocator@D@2@@std@@XZ 100dadf0 f   OpenExr:ImfHeader.obj
 0001:000d9e60       ?hasName@Header@Imf@@QBE_NXZ 100dae60 f   OpenExr:ImfHeader.obj
 0001:000d9e80       ?setType@Header@Imf@@QAEXABV?$basic_string@DU?$char_traits@D@std@@V?$allocator@D@2@@std@@@Z 100dae80 f   OpenExr:ImfHeader.obj
 0001:000da090       ?type@Header@Imf@@QAEAAV?$basic_string@DU?$char_traits@D@std@@V?$allocator@D@2@@std@@XZ 100db090 f   OpenExr:ImfHeader.obj
 0001:000da100       ?type@Header@Imf@@QBEABV?$basic_string@DU?$char_traits@D@std@@V?$allocator@D@2@@std@@XZ 100db100 f   OpenExr:ImfHeader.obj
 0001:000da170       ?hasType@Header@Imf@@QBE_NXZ 100db170 f   OpenExr:ImfHeader.obj
 0001:000da190       ?setVersion@Header@Imf@@QAEXH@Z 100db190 f   OpenExr:ImfHeader.obj
 0001:000da250       ?version@Header@Imf@@QAEAAHXZ 100db250 f   OpenExr:ImfHeader.obj
 0001:000da2c0       ?version@Header@Imf@@QBEABHXZ 100db2c0 f   OpenExr:ImfHeader.obj
 0001:000da330       ?hasVersion@Header@Imf@@QBE_NXZ 100db330 f   OpenExr:ImfHeader.obj
 0001:000da350       ?setChunkCount@Header@Imf@@QAEXH@Z 100db350 f   OpenExr:ImfHeader.obj
 0001:000da3d0       ?hasChunkCount@Header@Imf@@QBE_NXZ 100db3d0 f   OpenExr:ImfHeader.obj
 0001:000da3f0       ?chunkCount@Header@Imf@@QBEABHXZ 100db3f0 f   OpenExr:ImfHeader.obj
 0001:000da460       ?chunkCount@Header@Imf@@QAEAAHXZ 100db460 f   OpenExr:ImfHeader.obj
 0001:000da4d0       ?setView@Header@Imf@@QAEXABV?$basic_string@DU?$char_traits@D@std@@V?$allocator@D@2@@std@@@Z 100db4d0 f   OpenExr:ImfHeader.obj
 0001:000da5b0       ?hasView@Header@Imf@@QBE_NXZ 100db5b0 f   OpenExr:ImfHeader.obj
 0001:000da5d0       ?view@Header@Imf@@QAEAAV?$basic_string@DU?$char_traits@D@std@@V?$allocator@D@2@@std@@XZ 100db5d0 f   OpenExr:ImfHeader.obj
 0001:000da640       ?view@Header@Imf@@QBEABV?$basic_string@DU?$char_traits@D@std@@V?$allocator@D@2@@std@@XZ 100db640 f   OpenExr:ImfHeader.obj
 0001:000da6b0       ?setTileDescription@Header@Imf@@QAEXABVTileDescription@2@@Z 100db6b0 f   OpenExr:ImfHeader.obj
 0001:000da740       ?tileDescription@Header@Imf@@QAEAAVTileDescription@2@XZ 100db740 f   OpenExr:ImfHeader.obj
 0001:000da7b0       ?tileDescription@Header@Imf@@QBEABVTileDescription@2@XZ 100db7b0 f   OpenExr:ImfHeader.obj
 0001:000da820       ?hasTileDescription@Header@Imf@@QBE_NXZ 100db820 f   OpenExr:ImfHeader.obj
 0001:000da840       ?setPreviewImage@Header@Imf@@QAEXABVPreviewImage@2@@Z 100db840 f   OpenExr:ImfHeader.obj
 0001:000da8e0       ?previewImage@Header@Imf@@QAEAAVPreviewImage@2@XZ 100db8e0 f   OpenExr:ImfHeader.obj
 0001:000da950       ?previewImage@Header@Imf@@QBEABVPreviewImage@2@XZ 100db950 f   OpenExr:ImfHeader.obj
 0001:000da9c0       ?hasPreviewImage@Header@Imf@@QBE_NXZ 100db9c0 f   OpenExr:ImfHeader.obj
 0001:000da9e0       ?sanityCheck@Header@Imf@@QBEX_N0@Z 100db9e0 f   OpenExr:ImfHeader.obj
 0001:000dbdc0       ?setMaxImageSize@Header@Imf@@SAXHH@Z 100dcdc0 f   OpenExr:ImfHeader.obj
 0001:000dbde0       ?setMaxTileSize@Header@Imf@@SAXHH@Z 100dcde0 f   OpenExr:ImfHeader.obj
 0001:000dbe00       ?readsNothing@Header@Imf@@QAE_NXZ 100dce00 f   OpenExr:ImfHeader.obj
 0001:000dbe10       ?writeTo@Header@Imf@@QBE_KAAVOStream@2@_N@Z 100dce10 f   OpenExr:ImfHeader.obj
 0001:000dc110       ?readFrom@Header@Imf@@QAEXAAVIStream@2@AAH@Z 100dd110 f   OpenExr:ImfHeader.obj
 0001:000dc510       ?staticInitialize@Imf@@YAXXZ 100dd510 f   OpenExr:ImfHeader.obj
 0001:000dc7f0       ?initialize@?A0x95c1cadf@Imf@@YAXAAVHeader@2@ABV?$Box@V?$Vec2@H@Imath@@@Imath@@1MABV?$Vec2@M@5@MW4LineOrder@2@W4Compression@2@@Z 100dd7f0 f   OpenExr:ImfHeader.obj
 0001:000dcab0       ??$?6U?$char_traits@D@std@@@std@@YAAAV?$basic_ostream@DU?$char_traits@D@std@@@0@AAV10@PBD@Z 100ddab0 f i OpenExr:ImfHeader.obj
 0001:000dcce0       ??$?9DU?$char_traits@D@std@@V?$allocator@D@1@@std@@YA_NABV?$basic_string@DU?$char_traits@D@std@@V?$allocator@D@2@@0@PBD@Z 100ddce0 f i OpenExr:ImfHeader.obj
 0001:000dcd20       ??$?HDU?$char_traits@D@std@@V?$allocator@D@1@@std@@YA?AV?$basic_string@DU?$char_traits@D@std@@V?$allocator@D@2@@0@$$QAV10@ABV10@@Z 100ddd20 f i OpenExr:ImfHeader.obj
 0001:000dcda0       ??$?HDU?$char_traits@D@std@@V?$allocator@D@1@@std@@YA?AV?$basic_string@DU?$char_traits@D@std@@V?$allocator@D@2@@0@$$QAV10@PBD@Z 100ddda0 f i OpenExr:ImfHeader.obj
 0001:000dce40       ??$?HDU?$char_traits@D@std@@V?$allocator@D@1@@std@@YA?AV?$basic_string@DU?$char_traits@D@std@@V?$allocator@D@2@@0@ABV10@PBD@Z 100dde40 f i OpenExr:ImfHeader.obj
 0001:000dcf30       ??$_Buynode@AAU?$pair@$$CBVName@Imf@@UChannel@2@@std@@@?$_Tree_buy@U?$pair@$$CBVName@Imf@@UChannel@2@@std@@V?$allocator@U?$pair@$$CBVName@Imf@@UChannel@2@@std@@@2@@std@@QAEPAU?$_Tree_node@U?$pair@$$CBVName@Imf@@UChannel@2@@std@@PAX@1@AAU?$pair@$$CBVName@Imf@@UChannel@2@@1@@Z 100ddf30 f i OpenExr:ImfHeader.obj
 0001:000dcf60       ??$_Buynode@ABUpiecewise_construct_t@std@@V?$tuple@$$QAVName@Imf@@@2@V?$tuple@$$$V@2@@?$_Tree_buy@U?$pair@$$CBVName@Imf@@PAVAttribute@2@@std@@V?$allocator@U?$pair@$$CBVName@Imf@@PAVAttribute@2@@std@@@2@@std@@QAEPAU?$_Tree_node@U?$pair@$$CBVName@Imf@@PAVAttribute@2@@std@@PAX@1@ABUpiecewise_construct_t@1@$$QAV?$tuple@$$QAVName@Imf@@@1@$$QAV?$tuple@$$$V@1@@Z 100ddf60 f i OpenExr:ImfHeader.obj
 0001:000dcfa0       ??$_Copy@U?$integral_constant@_N$0A@@std@@@?$_Tree@V?$_Tmap_traits@VName@Imf@@UChannel@2@U?$less@VName@Imf@@@std@@V?$allocator@U?$pair@$$CBVName@Imf@@UChannel@2@@std@@@5@$0A@@std@@@std@@IAEXABV01@U?$integral_constant@_N$0A@@1@@Z 100ddfa0 f i OpenExr:ImfHeader.obj
 0001:000dd020       ??$_Copy_impl@PAV?$basic_string@DU?$char_traits@D@std@@V?$allocator@D@2@@std@@PAV12@@std@@YAPAV?$basic_string@DU?$char_traits@D@std@@V?$allocator@D@2@@0@PAV10@00@Z 100de020 f i OpenExr:ImfHeader.obj
 0001:000dd060       ??$_Copy_nodes@U?$integral_constant@_N$0A@@std@@@?$_Tree@V?$_Tmap_traits@VName@Imf@@UChannel@2@U?$less@VName@Imf@@@std@@V?$allocator@U?$pair@$$CBVName@Imf@@UChannel@2@@std@@@5@$0A@@std@@@std@@IAEPAU?$_Tree_node@U?$pair@$$CBVName@Imf@@UChannel@2@@std@@PAX@1@PAU21@0U?$integral_constant@_N$0A@@1@@Z 100de060 f i OpenExr:ImfHeader.obj
 0001:000dd120       ??$_Insert_at@AAU?$pair@$$CBVName@Imf@@PAVAttribute@2@@std@@PAU?$_Tree_node@U?$pair@$$CBVName@Imf@@PAVAttribute@2@@std@@PAX@2@@?$_Tree@V?$_Tmap_traits@VName@Imf@@PAVAttribute@2@U?$less@VName@Imf@@@std@@V?$allocator@U?$pair@$$CBVName@Imf@@PAVAttribute@2@@std@@@5@$0A@@std@@@std@@IAE?AV?$_Tree_iterator@V?$_Tree_val@U?$_Tree_simple_types@U?$pair@$$CBVName@Imf@@PAVAttribute@2@@std@@@std@@@std@@@1@_NPAU?$_Tree_node@U?$pair@$$CBVName@Imf@@PAVAttribute@2@@std@@PAX@1@AAU?$pair@$$CBVName@Imf@@PAVAttribute@2@@1@1@Z 100de120 f i OpenExr:ImfHeader.obj
 0001:000dd330       ??$_Insert_hint@AAU?$pair@$$CBVName@Imf@@PAVAttribute@2@@std@@PAU?$_Tree_node@U?$pair@$$CBVName@Imf@@PAVAttribute@2@@std@@PAX@2@@?$_Tree@V?$_Tmap_traits@VName@Imf@@PAVAttribute@2@U?$less@VName@Imf@@@std@@V?$allocator@U?$pair@$$CBVName@Imf@@PAVAttribute@2@@std@@@5@$0A@@std@@@std@@IAE?AV?$_Tree_iterator@V?$_Tree_val@U?$_Tree_simple_types@U?$pair@$$CBVName@Imf@@PAVAttribute@2@@std@@@std@@@std@@@1@V?$_Tree_const_iterator@V?$_Tree_val@U?$_Tree_simple_types@U?$pair@$$CBVName@Imf@@PAVAttribute@2@@std@@@std@@@std@@@1@AAU?$pair@$$CBVName@Imf@@PAVAttribute@2@@1@PAU?$_Tree_node@U?$pair@$$CBVName@Imf@@PAVAttribute@2@@std@@PAX@1@@Z 100de330 f i OpenExr:ImfHeader.obj
 0001:000dd590       ??$_Insert_nohint@AAU?$pair@$$CBVName@Imf@@PAVAttribute@2@@std@@PAU?$_Tree_node@U?$pair@$$CBVName@Imf@@PAVAttribute@2@@std@@PAX@2@@?$_Tree@V?$_Tmap_traits@VName@Imf@@PAVAttribute@2@U?$less@VName@Imf@@@std@@V?$allocator@U?$pair@$$CBVName@Imf@@PAVAttribute@2@@std@@@5@$0A@@std@@@std@@IAE?AU?$pair@V?$_Tree_iterator@V?$_Tree_val@U?$_Tree_simple_types@U?$pair@$$CBVName@Imf@@PAVAttribute@2@@std@@@std@@@std@@@std@@_N@1@_NAAU?$pair@$$CBVName@Imf@@PAVAttribute@2@@1@PAU?$_Tree_node@U?$pair@$$CBVName@Imf@@PAVAttribute@2@@std@@PAX@1@@Z 100de590 f i OpenExr:ImfHeader.obj
 0001:000dd730       ??$_Uninit_copy@PBV?$basic_string@DU?$char_traits@D@std@@V?$allocator@D@2@@std@@PAV12@V?$allocator@V?$basic_string@DU?$char_traits@D@std@@V?$allocator@D@2@@std@@@2@@std@@YAPAV?$basic_string@DU?$char_traits@D@std@@V?$allocator@D@2@@0@PBV10@0PAV10@AAU?$_Wrap_alloc@V?$allocator@V?$basic_string@DU?$char_traits@D@std@@V?$allocator@D@2@@std@@@std@@@0@U_Nonscalar_ptr_iterator_tag@0@@Z 100de730 f i OpenExr:ImfStandardAttributes.obj
 0001:000dd730       ??$_Uninit_copy@PAV?$basic_string@DU?$char_traits@D@std@@V?$allocator@D@2@@std@@PAV12@V?$allocator@V?$basic_string@DU?$char_traits@D@std@@V?$allocator@D@2@@std@@@2@@std@@YAPAV?$basic_string@DU?$char_traits@D@std@@V?$allocator@D@2@@0@PAV10@00AAU?$_Wrap_alloc@V?$allocator@V?$basic_string@DU?$char_traits@D@std@@V?$allocator@D@2@@std@@@std@@@0@U_Nonscalar_ptr_iterator_tag@0@@Z 100de730 f i OpenExr:ImfHeader.obj
 0001:000dd7f0       ??$findTypedAttribute@V?$TypedAttribute@H@Imf@@@Header@Imf@@QBEPBV?$TypedAttribute@H@1@QBD@Z 100de7f0 f i OpenExr:ImfHeader.obj
 0001:000dd8d0       ??$findTypedAttribute@V?$TypedAttribute@V?$basic_string@DU?$char_traits@D@std@@V?$allocator@D@2@@std@@@Imf@@@Header@Imf@@QBEPBV?$TypedAttribute@V?$basic_string@DU?$char_traits@D@std@@V?$allocator@D@2@@std@@@1@QBD@Z 100de8d0 f i OpenExr:ImfHeader.obj
 0001:000dd9b0       ??$findTypedAttribute@V?$TypedAttribute@VPreviewImage@Imf@@@Imf@@@Header@Imf@@QBEPBV?$TypedAttribute@VPreviewImage@Imf@@@1@QBD@Z 100de9b0 f i OpenExr:ImfHeader.obj
 0001:000dda90       ??$findTypedAttribute@V?$TypedAttribute@VTileDescription@Imf@@@Imf@@@Header@Imf@@QBEPBV?$TypedAttribute@VTileDescription@Imf@@@1@QBD@Z 100dea90 f i OpenExr:ImfHeader.obj
 0001:000ddb70       ??$read@UStreamIO@Imf@@VIStream@2@@Xdr@Imf@@YAXAAVIStream@1@AAH@Z 100deb70 f i OpenExr:ImfHeader.obj
 0001:000ddbb0       ??$typedAttribute@V?$TypedAttribute@VPreviewImage@Imf@@@Imf@@@Header@Imf@@QAEAAV?$TypedAttribute@VPreviewImage@Imf@@@1@QBD@Z 100debb0 f i OpenExr:ImfHeader.obj
 0001:000ddc20       ??0?$TypedAttribute@UChromaticities@Imf@@@Imf@@QAE@XZ 100dec20 f i OpenExr:ImfHeader.obj
 0001:000ddcc0       ??0?$basic_string@DU?$char_traits@D@std@@V?$allocator@D@2@@std@@QAE@$$QAV01@@Z 100decc0 f i OpenExr:ImfHeader.obj
 0001:000ddd30       ??0ArgExc@Iex@@QAE@ABV01@@Z 100ded30 f i OpenExr:ImfHeader.obj
 0001:000ddd50       ??0TypeExc@Iex@@QAE@ABV01@@Z 100ded50 f i OpenExr:ImfHeader.obj
 0001:000ddd70       ??1?$TypedAttribute@H@Imf@@UAE@XZ 100ded70 f i OpenExr:ImfHeader.obj
 0001:000ddd80       ??1?$TypedAttribute@M@Imf@@UAE@XZ 100ded80 f i OpenExr:ImfHeader.obj
 0001:000ddd90       ??1?$TypedAttribute@UChromaticities@Imf@@@Imf@@UAE@XZ 100ded90 f i OpenExr:ImfHeader.obj
 0001:000ddda0       ??1?$TypedAttribute@V?$Box@V?$Vec2@H@Imath@@@Imath@@@Imf@@UAE@XZ 100deda0 f i OpenExr:ImfHeader.obj
 0001:000dddb0       ??1?$TypedAttribute@V?$Matrix44@M@Imath@@@Imf@@UAE@XZ 100dedb0 f i OpenExr:ImfHeader.obj
 0001:000dddc0       ??1?$TypedAttribute@V?$Vec2@M@Imath@@@Imf@@UAE@XZ 100dedc0 f i OpenExr:ImfHeader.obj
 0001:000dddd0       ??1?$TypedAttribute@V?$basic_string@DU?$char_traits@D@std@@V?$allocator@D@2@@std@@@Imf@@UAE@XZ 100dedd0 f i OpenExr:ImfHeader.obj
 0001:000dde10       ??1?$TypedAttribute@V?$vector@V?$basic_string@DU?$char_traits@D@std@@V?$allocator@D@2@@std@@V?$allocator@V?$basic_string@DU?$char_traits@D@std@@V?$allocator@D@2@@std@@@2@@std@@@Imf@@UAE@XZ 100dee10 f i OpenExr:ImfHeader.obj
 0001:000dde60       ??1?$TypedAttribute@VChannelList@Imf@@@Imf@@UAE@XZ 100dee60 f i OpenExr:ImfHeader.obj
 0001:000ddea0       ??1?$TypedAttribute@VKeyCode@Imf@@@Imf@@UAE@XZ 100deea0 f i OpenExr:ImfHeader.obj
 0001:000ddeb0       ??1?$TypedAttribute@VPreviewImage@Imf@@@Imf@@UAE@XZ 100deeb0 f i OpenExr:ImfHeader.obj
 0001:000ddf10       ??1?$TypedAttribute@VRational@Imf@@@Imf@@UAE@XZ 100def10 f i OpenExr:ImfHeader.obj
 0001:000ddf20       ??1?$TypedAttribute@VTileDescription@Imf@@@Imf@@UAE@XZ 100def20 f i OpenExr:ImfHeader.obj
 0001:000ddf30       ??1?$TypedAttribute@VTimeCode@Imf@@@Imf@@UAE@XZ 100def30 f i OpenExr:ImfHeader.obj
 0001:000ddf40       ??1?$TypedAttribute@W4Compression@Imf@@@Imf@@UAE@XZ 100def40 f i OpenExr:ImfHeader.obj
 0001:000ddf50       ??1?$TypedAttribute@W4DeepImageState@Imf@@@Imf@@UAE@XZ 100def50 f i OpenExr:ImfHeader.obj
 0001:000ddf60       ??1?$TypedAttribute@W4Envmap@Imf@@@Imf@@UAE@XZ 100def60 f i OpenExr:ImfHeader.obj
 0001:000ddf70       ??1?$TypedAttribute@W4LineOrder@Imf@@@Imf@@UAE@XZ 100def70 f i OpenExr:ImfHeader.obj
 0001:000ddf80       ??1?$_Tree_comp@$0A@V?$_Tmap_traits@VName@Imf@@UChannel@2@U?$less@VName@Imf@@@std@@V?$allocator@U?$pair@$$CBVName@Imf@@UChannel@2@@std@@@5@$0A@@std@@@std@@QAE@XZ 100def80 f i OpenExr:ImfHeader.obj
 0001:000ddf90       ??1?$vector@V?$basic_string@DU?$char_traits@D@std@@V?$allocator@D@2@@std@@V?$allocator@V?$basic_string@DU?$char_traits@D@std@@V?$allocator@D@2@@std@@@2@@std@@QAE@XZ 100def90 f i OpenExr:ImfHeader.obj
 0001:000ddf90       ?_Tidy@?$vector@V?$basic_string@DU?$char_traits@D@std@@V?$allocator@D@2@@std@@V?$allocator@V?$basic_string@DU?$char_traits@D@std@@V?$allocator@D@2@@std@@@2@@std@@IAEXXZ 100def90 f i OpenExr:ImfHeader.obj
 0001:000ddfd0       ??1ArgExc@Iex@@UAE@XZ      100defd0 f i OpenExr:ImfHeader.obj
 0001:000ddfe0       ??1Lock@IlmThread@@QAE@XZ  100defe0 f i OpenExr:ImfHeader.obj
 0001:000ddff0       ??1StdOSStream@Imf@@UAE@XZ 100deff0 f i OpenExr:ImfHeader.obj
 0001:000de010       ??1TypeExc@Iex@@UAE@XZ     100df010 f i OpenExr:ImfHeader.obj
 0001:000de020       ??0?$Matrix44@M@Imath@@QAE@ABV01@@Z 100df020 f i OpenExr:ImfChromaticities.obj
 0001:000de020       ??4?$Matrix44@M@Imath@@QAEABV01@ABV01@@Z 100df020 f i OpenExr:ImfHeader.obj
 0001:000de090       ??4?$basic_string@DU?$char_traits@D@std@@V?$allocator@D@2@@std@@QAEAAV01@ABV01@@Z 100df090 f i OpenExr:ImfHeader.obj
 0001:000de0b0       ??4?$vector@V?$basic_string@DU?$char_traits@D@std@@V?$allocator@D@2@@std@@V?$allocator@V?$basic_string@DU?$char_traits@D@std@@V?$allocator@D@2@@std@@@2@@std@@QAEAAV01@ABV01@@Z 100df0b0 f i OpenExr:ImfHeader.obj
 0001:000de250       ??A?$map@VName@Imf@@PAVAttribute@2@U?$less@VName@Imf@@@std@@V?$allocator@U?$pair@$$CBVName@Imf@@PAVAttribute@2@@std@@@5@@std@@QAEAAPAVAttribute@Imf@@$$QAVName@3@@Z 100df250 f i OpenExr:ImfHeader.obj
 0001:000de2f0       ??F?$_Tree_unchecked_const_iterator@V?$_Tree_val@U?$_Tree_simple_types@V?$basic_string@DU?$char_traits@D@std@@V?$allocator@D@2@@std@@@std@@@std@@U_Iterator_base0@2@@std@@QAEAAV01@XZ 100df2f0 f i OpenExr:ImfChannelList.obj
 0001:000de2f0       ??F?$_Tree_unchecked_const_iterator@V?$_Tree_val@U?$_Tree_simple_types@U?$pair@$$CBV?$basic_string@DU?$char_traits@D@std@@V?$allocator@D@2@@std@@UCscChannelSet@DwaCompressor@Imf@@@std@@@std@@@std@@U_Iterator_base0@2@@std@@QAEAAV01@XZ 100df2f0 f i OpenExr:ImfDwaCompressor.obj
 0001:000de2f0       ??F?$_Tree_unchecked_const_iterator@V?$_Tree_val@U?$_Tree_simple_types@U?$pair@$$CBVName@Imf@@UDeepSlice@2@@std@@@std@@@std@@U_Iterator_base0@2@@std@@QAEAAV01@XZ 100df2f0 f i OpenExr:ImfDeepFrameBuffer.obj
 0001:000de2f0       ??F?$_Tree_unchecked_const_iterator@V?$_Tree_val@U?$_Tree_simple_types@U?$pair@$$CBHPAVGenericInputFile@Imf@@@std@@@std@@@std@@U_Iterator_base0@2@@std@@QAEAAV01@XZ 100df2f0 f i OpenExr:ImfMultiPartInputFile.obj
 0001:000de2f0       ??F?$_Tree_unchecked_const_iterator@V?$_Tree_val@U?$_Tree_simple_types@U?$pair@$$CBVName@Imf@@PAVAttribute@2@@std@@@std@@@std@@U_Iterator_base0@2@@std@@QAEAAV01@XZ 100df2f0 f i OpenExr:ImfHeader.obj
 0001:000de2f0       ??F?$_Tree_unchecked_const_iterator@V?$_Tree_val@U?$_Tree_simple_types@U?$pair@$$CBVName@Imf@@USlice@2@@std@@@std@@@std@@U_Iterator_base0@2@@std@@QAEAAV01@XZ 100df2f0 f i OpenExr:ImfFrameBuffer.obj
 0001:000de2f0       ??F?$_Tree_unchecked_const_iterator@V?$_Tree_val@U?$_Tree_simple_types@U?$pair@QBDP6APAVAttribute@Imf@@XZ@std@@@std@@@std@@U_Iterator_base0@2@@std@@QAEAAV01@XZ 100df2f0 f i OpenExr:ImfAttribute.obj
 0001:000de2f0       ??F?$_Tree_unchecked_const_iterator@V?$_Tree_val@U?$_Tree_simple_types@U?$pair@$$CBVName@Imf@@UChannel@2@@std@@@std@@@std@@U_Iterator_base0@2@@std@@QAEAAV01@XZ 100df2f0 f i OpenExr:ImfChannelList.obj
 0001:000de350       ??R?$less@VName@Imf@@@std@@QBE_NABVName@Imf@@0@Z 100df350 f i OpenExr:ImfHeader.obj
 0001:000de3a0       ??_D?$basic_ostringstream@DU?$char_traits@D@std@@V?$allocator@D@2@@std@@QAEXXZ 100df3a0 f i OpenExr:ImfHeader.obj
 0001:000de400       ??_D?$basic_stringstream@DU?$char_traits@D@std@@V?$allocator@D@2@@std@@QAEXXZ 100df400 f i OpenExr:ImfHeader.obj
 0001:000de45b       ??_E?$basic_ostringstream@DU?$char_traits@D@std@@V?$allocator@D@2@@std@@$4PPPPPPPM@A@AEPAXI@Z 100df45b f i OpenExr:ImfHeader.obj
 0001:000de463       ??_E?$basic_stringstream@DU?$char_traits@D@std@@V?$allocator@D@2@@std@@$4PPPPPPPM@A@AEPAXI@Z 100df463 f i OpenExr:ImfHeader.obj
 0001:000de470       ??_E?$TypedAttribute@H@Imf@@UAEPAXI@Z 100df470 f i OpenExr:ImfHeader.obj
 0001:000de470       ??_G?$TypedAttribute@H@Imf@@UAEPAXI@Z 100df470 f i OpenExr:ImfHeader.obj
 0001:000de4a0       ??_E?$TypedAttribute@M@Imf@@UAEPAXI@Z 100df4a0 f i OpenExr:ImfHeader.obj
 0001:000de4a0       ??_G?$TypedAttribute@M@Imf@@UAEPAXI@Z 100df4a0 f i OpenExr:ImfHeader.obj
 0001:000de4d0       ??_G?$TypedAttribute@N@Imf@@UAEPAXI@Z 100df4d0 f i OpenExr:ImfHeader.obj
 0001:000de4d0       ??_E?$TypedAttribute@N@Imf@@UAEPAXI@Z 100df4d0 f i OpenExr:ImfHeader.obj
 0001:000de500       ??_E?$TypedAttribute@UChromaticities@Imf@@@Imf@@UAEPAXI@Z 100df500 f i OpenExr:ImfHeader.obj
 0001:000de500       ??_G?$TypedAttribute@UChromaticities@Imf@@@Imf@@UAEPAXI@Z 100df500 f i OpenExr:ImfHeader.obj
 0001:000de530       ??_E?$TypedAttribute@V?$Box@V?$Vec2@H@Imath@@@Imath@@@Imf@@UAEPAXI@Z 100df530 f i OpenExr:ImfHeader.obj
 0001:000de530       ??_G?$TypedAttribute@V?$Box@V?$Vec2@H@Imath@@@Imath@@@Imf@@UAEPAXI@Z 100df530 f i OpenExr:ImfHeader.obj
 0001:000de560       ??_E?$TypedAttribute@V?$Box@V?$Vec2@M@Imath@@@Imath@@@Imf@@UAEPAXI@Z 100df560 f i OpenExr:ImfHeader.obj
 0001:000de560       ??_G?$TypedAttribute@V?$Box@V?$Vec2@M@Imath@@@Imath@@@Imf@@UAEPAXI@Z 100df560 f i OpenExr:ImfHeader.obj
 0001:000de590       ??_E?$TypedAttribute@V?$Matrix33@M@Imath@@@Imf@@UAEPAXI@Z 100df590 f i OpenExr:ImfHeader.obj
 0001:000de590       ??_G?$TypedAttribute@V?$Matrix33@M@Imath@@@Imf@@UAEPAXI@Z 100df590 f i OpenExr:ImfHeader.obj
 0001:000de5c0       ??_E?$TypedAttribute@V?$Matrix33@N@Imath@@@Imf@@UAEPAXI@Z 100df5c0 f i OpenExr:ImfHeader.obj
 0001:000de5c0       ??_G?$TypedAttribute@V?$Matrix33@N@Imath@@@Imf@@UAEPAXI@Z 100df5c0 f i OpenExr:ImfHeader.obj
 0001:000de5f0       ??_E?$TypedAttribute@V?$Matrix44@M@Imath@@@Imf@@UAEPAXI@Z 100df5f0 f i OpenExr:ImfHeader.obj
 0001:000de5f0       ??_G?$TypedAttribute@V?$Matrix44@M@Imath@@@Imf@@UAEPAXI@Z 100df5f0 f i OpenExr:ImfHeader.obj
 0001:000de620       ??_G?$TypedAttribute@V?$Matrix44@N@Imath@@@Imf@@UAEPAXI@Z 100df620 f i OpenExr:ImfHeader.obj
 0001:000de620       ??_E?$TypedAttribute@V?$Matrix44@N@Imath@@@Imf@@UAEPAXI@Z 100df620 f i OpenExr:ImfHeader.obj
 0001:000de650       ??_E?$TypedAttribute@V?$Vec2@H@Imath@@@Imf@@UAEPAXI@Z 100df650 f i OpenExr:ImfHeader.obj
 0001:000de650       ??_G?$TypedAttribute@V?$Vec2@H@Imath@@@Imf@@UAEPAXI@Z 100df650 f i OpenExr:ImfHeader.obj
 0001:000de680       ??_G?$TypedAttribute@V?$Vec2@M@Imath@@@Imf@@UAEPAXI@Z 100df680 f i OpenExr:ImfHeader.obj
 0001:000de680       ??_E?$TypedAttribute@V?$Vec2@M@Imath@@@Imf@@UAEPAXI@Z 100df680 f i OpenExr:ImfHeader.obj
 0001:000de6b0       ??_E?$TypedAttribute@V?$Vec2@N@Imath@@@Imf@@UAEPAXI@Z 100df6b0 f i OpenExr:ImfHeader.obj
 0001:000de6b0       ??_G?$TypedAttribute@V?$Vec2@N@Imath@@@Imf@@UAEPAXI@Z 100df6b0 f i OpenExr:ImfHeader.obj
 0001:000de6e0       ??_G?$TypedAttribute@V?$Vec3@H@Imath@@@Imf@@UAEPAXI@Z 100df6e0 f i OpenExr:ImfHeader.obj
 0001:000de6e0       ??_E?$TypedAttribute@V?$Vec3@H@Imath@@@Imf@@UAEPAXI@Z 100df6e0 f i OpenExr:ImfHeader.obj
 0001:000de710       ??_G?$TypedAttribute@V?$Vec3@M@Imath@@@Imf@@UAEPAXI@Z 100df710 f i OpenExr:ImfHeader.obj
 0001:000de710       ??_E?$TypedAttribute@V?$Vec3@M@Imath@@@Imf@@UAEPAXI@Z 100df710 f i OpenExr:ImfHeader.obj
 0001:000de740       ??_G?$TypedAttribute@V?$Vec3@N@Imath@@@Imf@@UAEPAXI@Z 100df740 f i OpenExr:ImfHeader.obj
 0001:000de740       ??_E?$TypedAttribute@V?$Vec3@N@Imath@@@Imf@@UAEPAXI@Z 100df740 f i OpenExr:ImfHeader.obj
 0001:000de770       ??_E?$TypedAttribute@V?$basic_string@DU?$char_traits@D@std@@V?$allocator@D@2@@std@@@Imf@@UAEPAXI@Z 100df770 f i OpenExr:ImfHeader.obj
 0001:000de770       ??_G?$TypedAttribute@V?$basic_string@DU?$char_traits@D@std@@V?$allocator@D@2@@std@@@Imf@@UAEPAXI@Z 100df770 f i OpenExr:ImfHeader.obj
 0001:000de7c0       ??_E?$TypedAttribute@V?$vector@MV?$allocator@M@std@@@std@@@Imf@@UAEPAXI@Z 100df7c0 f i OpenExr:ImfHeader.obj
 0001:000de7c0       ??_G?$TypedAttribute@V?$vector@MV?$allocator@M@std@@@std@@@Imf@@UAEPAXI@Z 100df7c0 f i OpenExr:ImfHeader.obj
 0001:000de810       ??_E?$TypedAttribute@V?$vector@V?$basic_string@DU?$char_traits@D@std@@V?$allocator@D@2@@std@@V?$allocator@V?$basic_string@DU?$char_traits@D@std@@V?$allocator@D@2@@std@@@2@@std@@@Imf@@UAEPAXI@Z 100df810 f i OpenExr:ImfHeader.obj
 0001:000de810       ??_G?$TypedAttribute@V?$vector@V?$basic_string@DU?$char_traits@D@std@@V?$allocator@D@2@@std@@V?$allocator@V?$basic_string@DU?$char_traits@D@std@@V?$allocator@D@2@@std@@@2@@std@@@Imf@@UAEPAXI@Z 100df810 f i OpenExr:ImfHeader.obj
 0001:000de870       ??_G?$TypedAttribute@VChannelList@Imf@@@Imf@@UAEPAXI@Z 100df870 f i OpenExr:ImfHeader.obj
 0001:000de870       ??_E?$TypedAttribute@VChannelList@Imf@@@Imf@@UAEPAXI@Z 100df870 f i OpenExr:ImfHeader.obj
 0001:000de8c0       ??_G?$TypedAttribute@VKeyCode@Imf@@@Imf@@UAEPAXI@Z 100df8c0 f i OpenExr:ImfHeader.obj
 0001:000de8c0       ??_E?$TypedAttribute@VKeyCode@Imf@@@Imf@@UAEPAXI@Z 100df8c0 f i OpenExr:ImfHeader.obj
 0001:000de8f0       ??_E?$TypedAttribute@VPreviewImage@Imf@@@Imf@@UAEPAXI@Z 100df8f0 f i OpenExr:ImfHeader.obj
 0001:000de8f0       ??_G?$TypedAttribute@VPreviewImage@Imf@@@Imf@@UAEPAXI@Z 100df8f0 f i OpenExr:ImfHeader.obj
 0001:000de960       ??_G?$TypedAttribute@VRational@Imf@@@Imf@@UAEPAXI@Z 100df960 f i OpenExr:ImfHeader.obj
 0001:000de960       ??_E?$TypedAttribute@VRational@Imf@@@Imf@@UAEPAXI@Z 100df960 f i OpenExr:ImfHeader.obj
 0001:000de990       ??_E?$TypedAttribute@VTileDescription@Imf@@@Imf@@UAEPAXI@Z 100df990 f i OpenExr:ImfHeader.obj
 0001:000de990       ??_G?$TypedAttribute@VTileDescription@Imf@@@Imf@@UAEPAXI@Z 100df990 f i OpenExr:ImfHeader.obj
 0001:000de9c0       ??_E?$TypedAttribute@VTimeCode@Imf@@@Imf@@UAEPAXI@Z 100df9c0 f i OpenExr:ImfHeader.obj
 0001:000de9c0       ??_G?$TypedAttribute@VTimeCode@Imf@@@Imf@@UAEPAXI@Z 100df9c0 f i OpenExr:ImfHeader.obj
 0001:000de9f0       ??_E?$TypedAttribute@W4Compression@Imf@@@Imf@@UAEPAXI@Z 100df9f0 f i OpenExr:ImfHeader.obj
 0001:000de9f0       ??_G?$TypedAttribute@W4Compression@Imf@@@Imf@@UAEPAXI@Z 100df9f0 f i OpenExr:ImfHeader.obj
 0001:000dea20       ??_G?$TypedAttribute@W4DeepImageState@Imf@@@Imf@@UAEPAXI@Z 100dfa20 f i OpenExr:ImfHeader.obj
 0001:000dea20       ??_E?$TypedAttribute@W4DeepImageState@Imf@@@Imf@@UAEPAXI@Z 100dfa20 f i OpenExr:ImfHeader.obj
 0001:000dea50       ??_G?$TypedAttribute@W4Envmap@Imf@@@Imf@@UAEPAXI@Z 100dfa50 f i OpenExr:ImfHeader.obj
 0001:000dea50       ??_E?$TypedAttribute@W4Envmap@Imf@@@Imf@@UAEPAXI@Z 100dfa50 f i OpenExr:ImfHeader.obj
 0001:000dea80       ??_G?$TypedAttribute@W4LineOrder@Imf@@@Imf@@UAEPAXI@Z 100dfa80 f i OpenExr:ImfHeader.obj
 0001:000dea80       ??_E?$TypedAttribute@W4LineOrder@Imf@@@Imf@@UAEPAXI@Z 100dfa80 f i OpenExr:ImfHeader.obj
 0001:000deab0       ??_G?$basic_ostringstream@DU?$char_traits@D@std@@V?$allocator@D@2@@std@@UAEPAXI@Z 100dfab0 f i OpenExr:ImfHeader.obj
 0001:000deab0       ??_E?$basic_ostringstream@DU?$char_traits@D@std@@V?$allocator@D@2@@std@@UAEPAXI@Z 100dfab0 f i OpenExr:ImfHeader.obj
 0001:000deae0       ??_E?$basic_stringbuf@DU?$char_traits@D@std@@V?$allocator@D@2@@std@@UAEPAXI@Z 100dfae0 f i OpenExr:ImfHeader.obj
 0001:000deae0       ??_G?$basic_stringbuf@DU?$char_traits@D@std@@V?$allocator@D@2@@std@@UAEPAXI@Z 100dfae0 f i OpenExr:ImfHeader.obj
 0001:000deb10       ??_E?$basic_stringstream@DU?$char_traits@D@std@@V?$allocator@D@2@@std@@UAEPAXI@Z 100dfb10 f i OpenExr:ImfHeader.obj
 0001:000deb10       ??_G?$basic_stringstream@DU?$char_traits@D@std@@V?$allocator@D@2@@std@@UAEPAXI@Z 100dfb10 f i OpenExr:ImfHeader.obj
 0001:000deb40       ??_EArgExc@Iex@@UAEPAXI@Z  100dfb40 f i OpenExr:ImfHeader.obj
 0001:000deb40       ??_GArgExc@Iex@@UAEPAXI@Z  100dfb40 f i OpenExr:ImfHeader.obj
 0001:000deb70       ??_ETypeExc@Iex@@UAEPAXI@Z 100dfb70 f i OpenExr:ImfHeader.obj
 0001:000deb70       ??_GTypeExc@Iex@@UAEPAXI@Z 100dfb70 f i OpenExr:ImfHeader.obj
 0001:000deba0       ?_Buyheadnode@?$_Tree_alloc@$0A@U?$_Tree_base_types@U?$pair@$$CBVName@Imf@@PAVAttribute@2@@std@@V?$allocator@U?$pair@$$CBVName@Imf@@PAVAttribute@2@@std@@@2@@std@@@std@@QAEPAU?$_Tree_node@U?$pair@$$CBVName@Imf@@PAVAttribute@2@@std@@PAX@2@XZ 100dfba0 f i OpenExr:ImfHeader.obj
 0001:000debe0       ?_Buyheadnode@?$_Tree_alloc@$0A@U?$_Tree_base_types@U?$pair@$$CBVName@Imf@@UChannel@2@@std@@V?$allocator@U?$pair@$$CBVName@Imf@@UChannel@2@@std@@@2@@std@@@std@@QAEPAU?$_Tree_node@U?$pair@$$CBVName@Imf@@UChannel@2@@std@@PAX@2@XZ 100dfbe0 f i OpenExr:ImfHeader.obj
 0001:000dec20       ?_Buynode0@?$_Tree_buy@U?$pair@$$CBVName@Imf@@PAVAttribute@2@@std@@V?$allocator@U?$pair@$$CBVName@Imf@@PAVAttribute@2@@std@@@2@@std@@QAEPAU?$_Tree_node@U?$pair@$$CBVName@Imf@@PAVAttribute@2@@std@@PAX@2@XZ 100dfc20 f i OpenExr:ImfHeader.obj
 0001:000dec60       ?_Buynode0@?$_Tree_buy@U?$pair@$$CBVName@Imf@@UChannel@2@@std@@V?$allocator@U?$pair@$$CBVName@Imf@@UChannel@2@@std@@@2@@std@@QAEPAU?$_Tree_node@U?$pair@$$CBVName@Imf@@UChannel@2@@std@@PAX@2@XZ 100dfc60 f i OpenExr:ImfHeader.obj
 0001:000deca0       ?_Destroy@?$vector@V?$basic_string@DU?$char_traits@D@std@@V?$allocator@D@2@@std@@V?$allocator@V?$basic_string@DU?$char_traits@D@std@@V?$allocator@D@2@@std@@@2@@std@@IAEXPAV?$basic_string@DU?$char_traits@D@std@@V?$allocator@D@2@@2@0@Z 100dfca0 f i OpenExr:ImfHeader.obj
 0001:000dece0       ?_Tidy@?$basic_stringbuf@DU?$char_traits@D@std@@V?$allocator@D@2@@std@@IAEXXZ 100dfce0 f i OpenExr:ImfHeader.obj
 0001:000ded40       ?append@?$basic_string@DU?$char_traits@D@std@@V?$allocator@D@2@@std@@QAEAAV12@ABV12@@Z 100dfd40 f i OpenExr:ImfHeader.obj
 0001:000ded60       ?append@?$basic_string@DU?$char_traits@D@std@@V?$allocator@D@2@@std@@QAEAAV12@ABV12@II@Z 100dfd60 f i OpenExr:ImfHeader.obj
 0001:000dee20       ?append@?$basic_string@DU?$char_traits@D@std@@V?$allocator@D@2@@std@@QAEAAV12@PBDI@Z 100dfe20 f i OpenExr:ImfHeader.obj
 0001:000def10       ?copy@?$TypedAttribute@H@Imf@@UBEPAVAttribute@2@XZ 100dff10 f i OpenExr:ImfHeader.obj
 0001:000def90       ?copy@?$TypedAttribute@M@Imf@@UBEPAVAttribute@2@XZ 100dff90 f i OpenExr:ImfHeader.obj
 0001:000df010       ?copy@?$TypedAttribute@N@Imf@@UBEPAVAttribute@2@XZ 100e0010 f i OpenExr:ImfHeader.obj
 0001:000df090       ?copy@?$TypedAttribute@UChromaticities@Imf@@@Imf@@UBEPAVAttribute@2@XZ 100e0090 f i OpenExr:ImfHeader.obj
 0001:000df100       ?copy@?$TypedAttribute@V?$Box@V?$Vec2@H@Imath@@@Imath@@@Imf@@UBEPAVAttribute@2@XZ 100e0100 f i OpenExr:ImfHeader.obj
 0001:000df190       ?copy@?$TypedAttribute@V?$Box@V?$Vec2@M@Imath@@@Imath@@@Imf@@UBEPAVAttribute@2@XZ 100e0190 f i OpenExr:ImfHeader.obj
 0001:000df220       ?copy@?$TypedAttribute@V?$Matrix33@M@Imath@@@Imf@@UBEPAVAttribute@2@XZ 100e0220 f i OpenExr:ImfHeader.obj
 0001:000df2c0       ?copy@?$TypedAttribute@V?$Matrix33@N@Imath@@@Imf@@UBEPAVAttribute@2@XZ 100e02c0 f i OpenExr:ImfHeader.obj
 0001:000df360       ?copy@?$TypedAttribute@V?$Matrix44@M@Imath@@@Imf@@UBEPAVAttribute@2@XZ 100e0360 f i OpenExr:ImfHeader.obj
 0001:000df410       ?copy@?$TypedAttribute@V?$Matrix44@N@Imath@@@Imf@@UBEPAVAttribute@2@XZ 100e0410 f i OpenExr:ImfHeader.obj
 0001:000df4c0       ?copy@?$TypedAttribute@V?$Vec2@H@Imath@@@Imf@@UBEPAVAttribute@2@XZ 100e04c0 f i OpenExr:ImfHeader.obj
 0001:000df540       ?copy@?$TypedAttribute@V?$Vec2@M@Imath@@@Imf@@UBEPAVAttribute@2@XZ 100e0540 f i OpenExr:ImfHeader.obj
 0001:000df5c0       ?copy@?$TypedAttribute@V?$Vec2@N@Imath@@@Imf@@UBEPAVAttribute@2@XZ 100e05c0 f i OpenExr:ImfHeader.obj
 0001:000df640       ?copy@?$TypedAttribute@V?$Vec3@H@Imath@@@Imf@@UBEPAVAttribute@2@XZ 100e0640 f i OpenExr:ImfHeader.obj
 0001:000df6c0       ?copy@?$TypedAttribute@V?$Vec3@M@Imath@@@Imf@@UBEPAVAttribute@2@XZ 100e06c0 f i OpenExr:ImfHeader.obj
 0001:000df740       ?copy@?$TypedAttribute@V?$Vec3@N@Imath@@@Imf@@UBEPAVAttribute@2@XZ 100e0740 f i OpenExr:ImfHeader.obj
 0001:000df7c0       ?copy@?$TypedAttribute@V?$basic_string@DU?$char_traits@D@std@@V?$allocator@D@2@@std@@@Imf@@UBEPAVAttribute@2@XZ 100e07c0 f i OpenExr:ImfHeader.obj
 0001:000df850       ?copy@?$TypedAttribute@V?$vector@MV?$allocator@M@std@@@std@@@Imf@@UBEPAVAttribute@2@XZ 100e0850 f i OpenExr:ImfHeader.obj
 0001:000df8e0       ?copy@?$TypedAttribute@V?$vector@V?$basic_string@DU?$char_traits@D@std@@V?$allocator@D@2@@std@@V?$allocator@V?$basic_string@DU?$char_traits@D@std@@V?$allocator@D@2@@std@@@2@@std@@@Imf@@UBEPAVAttribute@2@XZ 100e08e0 f i OpenExr:ImfHeader.obj
 0001:000df970       ?copy@?$TypedAttribute@VChannelList@Imf@@@Imf@@UBEPAVAttribute@2@XZ 100e0970 f i OpenExr:ImfHeader.obj
 0001:000dfa10       ?copy@?$TypedAttribute@VKeyCode@Imf@@@Imf@@UBEPAVAttribute@2@XZ 100e0a10 f i OpenExr:ImfHeader.obj
 0001:000dfaa0       ?copy@?$TypedAttribute@VPreviewImage@Imf@@@Imf@@UBEPAVAttribute@2@XZ 100e0aa0 f i OpenExr:ImfHeader.obj
 0001:000dfb30       ?copy@?$TypedAttribute@VRational@Imf@@@Imf@@UBEPAVAttribute@2@XZ 100e0b30 f i OpenExr:ImfHeader.obj
 0001:000dfbc0       ?copy@?$TypedAttribute@VTileDescription@Imf@@@Imf@@UBEPAVAttribute@2@XZ 100e0bc0 f i OpenExr:ImfHeader.obj
 0001:000dfc50       ?copy@?$TypedAttribute@VTimeCode@Imf@@@Imf@@UBEPAVAttribute@2@XZ 100e0c50 f i OpenExr:ImfHeader.obj
 0001:000dfcd0       ?copy@?$TypedAttribute@W4Compression@Imf@@@Imf@@UBEPAVAttribute@2@XZ 100e0cd0 f i OpenExr:ImfHeader.obj
 0001:000dfd50       ?copy@?$TypedAttribute@W4DeepImageState@Imf@@@Imf@@UBEPAVAttribute@2@XZ 100e0d50 f i OpenExr:ImfHeader.obj
 0001:000dfdd0       ?copy@?$TypedAttribute@W4Envmap@Imf@@@Imf@@UBEPAVAttribute@2@XZ 100e0dd0 f i OpenExr:ImfHeader.obj
 0001:000dfe50       ?copy@?$TypedAttribute@W4LineOrder@Imf@@@Imf@@UBEPAVAttribute@2@XZ 100e0e50 f i OpenExr:ImfHeader.obj
 0001:000dfed0       ?copyValueFrom@?$TypedAttribute@H@Imf@@UAEXABVAttribute@2@@Z 100e0ed0 f i OpenExr:ImfHeader.obj
 0001:000dff40       ?copyValueFrom@?$TypedAttribute@M@Imf@@UAEXABVAttribute@2@@Z 100e0f40 f i OpenExr:ImfHeader.obj
 0001:000dffc0       ?copyValueFrom@?$TypedAttribute@N@Imf@@UAEXABVAttribute@2@@Z 100e0fc0 f i OpenExr:ImfHeader.obj
 0001:000e0030       ?copyValueFrom@?$TypedAttribute@UChromaticities@Imf@@@Imf@@UAEXABVAttribute@2@@Z 100e1030 f i OpenExr:ImfHeader.obj
 0001:000e00d0       ?copyValueFrom@?$TypedAttribute@V?$Box@V?$Vec2@H@Imath@@@Imath@@@Imf@@UAEXABVAttribute@2@@Z 100e10d0 f i OpenExr:ImfHeader.obj
 0001:000e0150       ?copyValueFrom@?$TypedAttribute@V?$Box@V?$Vec2@M@Imath@@@Imath@@@Imf@@UAEXABVAttribute@2@@Z 100e1150 f i OpenExr:ImfHeader.obj
 0001:000e01d0       ?copyValueFrom@?$TypedAttribute@V?$Matrix33@M@Imath@@@Imf@@UAEXABVAttribute@2@@Z 100e11d0 f i OpenExr:ImfHeader.obj
 0001:000e0250       ?copyValueFrom@?$TypedAttribute@V?$Matrix33@N@Imath@@@Imf@@UAEXABVAttribute@2@@Z 100e1250 f i OpenExr:ImfHeader.obj
 0001:000e02f0       ?copyValueFrom@?$TypedAttribute@V?$Matrix44@M@Imath@@@Imf@@UAEXABVAttribute@2@@Z 100e12f0 f i OpenExr:ImfHeader.obj
 0001:000e0370       ?copyValueFrom@?$TypedAttribute@V?$Matrix44@N@Imath@@@Imf@@UAEXABVAttribute@2@@Z 100e1370 f i OpenExr:ImfHeader.obj
 0001:000e0480       ?copyValueFrom@?$TypedAttribute@V?$Vec2@H@Imath@@@Imf@@UAEXABVAttribute@2@@Z 100e1480 f i OpenExr:ImfHeader.obj
 0001:000e0500       ?copyValueFrom@?$TypedAttribute@V?$Vec2@M@Imath@@@Imf@@UAEXABVAttribute@2@@Z 100e1500 f i OpenExr:ImfHeader.obj
 0001:000e0580       ?copyValueFrom@?$TypedAttribute@V?$Vec2@N@Imath@@@Imf@@UAEXABVAttribute@2@@Z 100e1580 f i OpenExr:ImfHeader.obj
 0001:000e0600       ?copyValueFrom@?$TypedAttribute@V?$Vec3@H@Imath@@@Imf@@UAEXABVAttribute@2@@Z 100e1600 f i OpenExr:ImfHeader.obj
 0001:000e0680       ?copyValueFrom@?$TypedAttribute@V?$Vec3@M@Imath@@@Imf@@UAEXABVAttribute@2@@Z 100e1680 f i OpenExr:ImfHeader.obj
 0001:000e0700       ?copyValueFrom@?$TypedAttribute@V?$Vec3@N@Imath@@@Imf@@UAEXABVAttribute@2@@Z 100e1700 f i OpenExr:ImfHeader.obj
 0001:000e0790       ?copyValueFrom@?$TypedAttribute@V?$basic_string@DU?$char_traits@D@std@@V?$allocator@D@2@@std@@@Imf@@UAEXABVAttribute@2@@Z 100e1790 f i OpenExr:ImfHeader.obj
 0001:000e0810       ?copyValueFrom@?$TypedAttribute@V?$vector@MV?$allocator@M@std@@@std@@@Imf@@UAEXABVAttribute@2@@Z 100e1810 f i OpenExr:ImfHeader.obj
 0001:000e0890       ?copyValueFrom@?$TypedAttribute@V?$vector@V?$basic_string@DU?$char_traits@D@std@@V?$allocator@D@2@@std@@V?$allocator@V?$basic_string@DU?$char_traits@D@std@@V?$allocator@D@2@@std@@@2@@std@@@Imf@@UAEXABVAttribute@2@@Z 100e1890 f i OpenExr:ImfHeader.obj
 0001:000e0910       ?copyValueFrom@?$TypedAttribute@VChannelList@Imf@@@Imf@@UAEXABVAttribute@2@@Z 100e1910 f i OpenExr:ImfHeader.obj
 0001:000e09a0       ?copyValueFrom@?$TypedAttribute@VKeyCode@Imf@@@Imf@@UAEXABVAttribute@2@@Z 100e19a0 f i OpenExr:ImfHeader.obj
 0001:000e0a20       ?copyValueFrom@?$TypedAttribute@VPreviewImage@Imf@@@Imf@@UAEXABVAttribute@2@@Z 100e1a20 f i OpenExr:ImfHeader.obj
 0001:000e0aa0       ?copyValueFrom@?$TypedAttribute@VRational@Imf@@@Imf@@UAEXABVAttribute@2@@Z 100e1aa0 f i OpenExr:ImfHeader.obj
 0001:000e0b20       ?copyValueFrom@?$TypedAttribute@VTileDescription@Imf@@@Imf@@UAEXABVAttribute@2@@Z 100e1b20 f i OpenExr:ImfHeader.obj
 0001:000e0b90       ?copyValueFrom@?$TypedAttribute@VTimeCode@Imf@@@Imf@@UAEXABVAttribute@2@@Z 100e1b90 f i OpenExr:ImfHeader.obj
 0001:000e0c10       ?copyValueFrom@?$TypedAttribute@W4Compression@Imf@@@Imf@@UAEXABVAttribute@2@@Z 100e1c10 f i OpenExr:ImfHeader.obj
 0001:000e0c80       ?copyValueFrom@?$TypedAttribute@W4DeepImageState@Imf@@@Imf@@UAEXABVAttribute@2@@Z 100e1c80 f i OpenExr:ImfHeader.obj
 0001:000e0cf0       ?copyValueFrom@?$TypedAttribute@W4Envmap@Imf@@@Imf@@UAEXABVAttribute@2@@Z 100e1cf0 f i OpenExr:ImfHeader.obj
 0001:000e0d60       ?copyValueFrom@?$TypedAttribute@W4LineOrder@Imf@@@Imf@@UAEXABVAttribute@2@@Z 100e1d60 f i OpenExr:ImfHeader.obj
 0001:000e0dd0       ?makeNewAttribute@?$TypedAttribute@H@Imf@@SAPAVAttribute@2@XZ 100e1dd0 f i OpenExr:ImfHeader.obj
 0001:000e0e50       ?makeNewAttribute@?$TypedAttribute@M@Imf@@SAPAVAttribute@2@XZ 100e1e50 f i OpenExr:ImfHeader.obj
 0001:000e0ed0       ?makeNewAttribute@?$TypedAttribute@N@Imf@@SAPAVAttribute@2@XZ 100e1ed0 f i OpenExr:ImfHeader.obj
 0001:000e0f50       ?makeNewAttribute@?$TypedAttribute@UChromaticities@Imf@@@Imf@@SAPAVAttribute@2@XZ 100e1f50 f i OpenExr:ImfHeader.obj
 0001:000e0fc0       ?makeNewAttribute@?$TypedAttribute@V?$Box@V?$Vec2@H@Imath@@@Imath@@@Imf@@SAPAVAttribute@2@XZ 100e1fc0 f i OpenExr:ImfHeader.obj
 0001:000e1050       ?makeNewAttribute@?$TypedAttribute@V?$Box@V?$Vec2@M@Imath@@@Imath@@@Imf@@SAPAVAttribute@2@XZ 100e2050 f i OpenExr:ImfHeader.obj
 0001:000e10e0       ?makeNewAttribute@?$TypedAttribute@V?$Matrix33@M@Imath@@@Imf@@SAPAVAttribute@2@XZ 100e20e0 f i OpenExr:ImfHeader.obj
 0001:000e1180       ?makeNewAttribute@?$TypedAttribute@V?$Matrix33@N@Imath@@@Imf@@SAPAVAttribute@2@XZ 100e2180 f i OpenExr:ImfHeader.obj
 0001:000e1220       ?makeNewAttribute@?$TypedAttribute@V?$Matrix44@M@Imath@@@Imf@@SAPAVAttribute@2@XZ 100e2220 f i OpenExr:ImfHeader.obj
 0001:000e12c0       ?makeNewAttribute@?$TypedAttribute@V?$Matrix44@N@Imath@@@Imf@@SAPAVAttribute@2@XZ 100e22c0 f i OpenExr:ImfHeader.obj
 0001:000e1370       ?makeNewAttribute@?$TypedAttribute@V?$Vec2@H@Imath@@@Imf@@SAPAVAttribute@2@XZ 100e2370 f i OpenExr:ImfHeader.obj
 0001:000e13e0       ?makeNewAttribute@?$TypedAttribute@V?$Vec2@M@Imath@@@Imf@@SAPAVAttribute@2@XZ 100e23e0 f i OpenExr:ImfHeader.obj
 0001:000e1450       ?makeNewAttribute@?$TypedAttribute@V?$Vec2@N@Imath@@@Imf@@SAPAVAttribute@2@XZ 100e2450 f i OpenExr:ImfHeader.obj
 0001:000e14c0       ?makeNewAttribute@?$TypedAttribute@V?$Vec3@H@Imath@@@Imf@@SAPAVAttribute@2@XZ 100e24c0 f i OpenExr:ImfHeader.obj
 0001:000e1530       ?makeNewAttribute@?$TypedAttribute@V?$Vec3@M@Imath@@@Imf@@SAPAVAttribute@2@XZ 100e2530 f i OpenExr:ImfHeader.obj
 0001:000e15a0       ?makeNewAttribute@?$TypedAttribute@V?$Vec3@N@Imath@@@Imf@@SAPAVAttribute@2@XZ 100e25a0 f i OpenExr:ImfHeader.obj
 0001:000e1610       ?makeNewAttribute@?$TypedAttribute@V?$basic_string@DU?$char_traits@D@std@@V?$allocator@D@2@@std@@@Imf@@SAPAVAttribute@2@XZ 100e2610 f i OpenExr:ImfHeader.obj
 0001:000e16a0       ?makeNewAttribute@?$TypedAttribute@V?$vector@MV?$allocator@M@std@@@std@@@Imf@@SAPAVAttribute@2@XZ 100e26a0 f i OpenExr:ImfHeader.obj
 0001:000e1730       ?makeNewAttribute@?$TypedAttribute@V?$vector@V?$basic_string@DU?$char_traits@D@std@@V?$allocator@D@2@@std@@V?$allocator@V?$basic_string@DU?$char_traits@D@std@@V?$allocator@D@2@@std@@@2@@std@@@Imf@@SAPAVAttribute@2@XZ 100e2730 f i OpenExr:ImfHeader.obj
 0001:000e17c0       ?makeNewAttribute@?$TypedAttribute@VChannelList@Imf@@@Imf@@SAPAVAttribute@2@XZ 100e27c0 f i OpenExr:ImfHeader.obj
 0001:000e1850       ?makeNewAttribute@?$TypedAttribute@VKeyCode@Imf@@@Imf@@SAPAVAttribute@2@XZ 100e2850 f i OpenExr:ImfHeader.obj
 0001:000e18e0       ?makeNewAttribute@?$TypedAttribute@VPreviewImage@Imf@@@Imf@@SAPAVAttribute@2@XZ 100e28e0 f i OpenExr:ImfHeader.obj
 0001:000e1970       ?makeNewAttribute@?$TypedAttribute@VRational@Imf@@@Imf@@SAPAVAttribute@2@XZ 100e2970 f i OpenExr:ImfHeader.obj
 0001:000e19f0       ?makeNewAttribute@?$TypedAttribute@VTileDescription@Imf@@@Imf@@SAPAVAttribute@2@XZ 100e29f0 f i OpenExr:ImfHeader.obj
 0001:000e1a80       ?makeNewAttribute@?$TypedAttribute@VTimeCode@Imf@@@Imf@@SAPAVAttribute@2@XZ 100e2a80 f i OpenExr:ImfHeader.obj
 0001:000e1b00       ?makeNewAttribute@?$TypedAttribute@W4Compression@Imf@@@Imf@@SAPAVAttribute@2@XZ 100e2b00 f i OpenExr:ImfHeader.obj
 0001:000e1b80       ?makeNewAttribute@?$TypedAttribute@W4DeepImageState@Imf@@@Imf@@SAPAVAttribute@2@XZ 100e2b80 f i OpenExr:ImfHeader.obj
 0001:000e1c00       ?makeNewAttribute@?$TypedAttribute@W4Envmap@Imf@@@Imf@@SAPAVAttribute@2@XZ 100e2c00 f i OpenExr:ImfHeader.obj
 0001:000e1c80       ?makeNewAttribute@?$TypedAttribute@W4LineOrder@Imf@@@Imf@@SAPAVAttribute@2@XZ 100e2c80 f i OpenExr:ImfHeader.obj
 0001:000e1d00       ?overflow@?$basic_stringbuf@DU?$char_traits@D@std@@V?$allocator@D@2@@std@@MAEHH@Z 100e2d00 f i OpenExr:ImfHeader.obj
 0001:000e1ed0       ?pbackfail@?$basic_stringbuf@DU?$char_traits@D@std@@V?$allocator@D@2@@std@@MAEHH@Z 100e2ed0 f i OpenExr:ImfHeader.obj
 0001:000e1f30       ?readValueFrom@?$TypedAttribute@H@Imf@@UAEXAAVIStream@2@HH@Z 100e2f30 f i OpenExr:ImfHeader.obj
 0001:000e1f70       ?readValueFrom@?$TypedAttribute@M@Imf@@UAEXAAVIStream@2@HH@Z 100e2f70 f i OpenExr:ImfHeader.obj
 0001:000e1fc0       ?readValueFrom@?$TypedAttribute@N@Imf@@UAEXAAVIStream@2@HH@Z 100e2fc0 f i OpenExr:ImfHeader.obj
 0001:000e1fe0       ?seekoff@?$basic_stringbuf@DU?$char_traits@D@std@@V?$allocator@D@2@@std@@MAE?AV?$fpos@H@2@_JHH@Z 100e2fe0 f i OpenExr:ImfHeader.obj
 0001:000e21b0       ?seekpos@?$basic_stringbuf@DU?$char_traits@D@std@@V?$allocator@D@2@@std@@MAE?AV?$fpos@H@2@V32@H@Z 100e31b0 f i OpenExr:ImfHeader.obj
 0001:000e22d0       ?str@?$basic_ostringstream@DU?$char_traits@D@std@@V?$allocator@D@2@@std@@QBE?AV?$basic_string@DU?$char_traits@D@std@@V?$allocator@D@2@@2@XZ 100e32d0 f i OpenExr:ImfHeader.obj
 0001:000e22f0       ?str@?$basic_stringbuf@DU?$char_traits@D@std@@V?$allocator@D@2@@std@@QBE?AV?$basic_string@DU?$char_traits@D@std@@V?$allocator@D@2@@2@XZ 100e32f0 f i OpenExr:ImfHeader.obj
 0001:000e2400       ?str@StdOSStream@Imf@@QBE?AV?$basic_string@DU?$char_traits@D@std@@V?$allocator@D@2@@std@@XZ 100e3400 f i OpenExr:ImfHeader.obj
 0001:000e2420       ?typeName@?$TypedAttribute@H@Imf@@UBEPBDXZ 100e3420 f i OpenExr:ImfHeader.obj
 0001:000e2430       ?typeName@?$TypedAttribute@M@Imf@@UBEPBDXZ 100e3430 f i OpenExr:ImfHeader.obj
 0001:000e2440       ?typeName@?$TypedAttribute@N@Imf@@UBEPBDXZ 100e3440 f i OpenExr:ImfHeader.obj
 0001:000e2450       ?typeName@?$TypedAttribute@UChromaticities@Imf@@@Imf@@UBEPBDXZ 100e3450 f i OpenExr:ImfHeader.obj
 0001:000e2460       ?typeName@?$TypedAttribute@V?$Box@V?$Vec2@H@Imath@@@Imath@@@Imf@@UBEPBDXZ 100e3460 f i OpenExr:ImfHeader.obj
 0001:000e2470       ?typeName@?$TypedAttribute@V?$Box@V?$Vec2@M@Imath@@@Imath@@@Imf@@UBEPBDXZ 100e3470 f i OpenExr:ImfHeader.obj
 0001:000e2480       ?typeName@?$TypedAttribute@V?$Matrix33@M@Imath@@@Imf@@UBEPBDXZ 100e3480 f i OpenExr:ImfHeader.obj
 0001:000e2490       ?typeName@?$TypedAttribute@V?$Matrix33@N@Imath@@@Imf@@UBEPBDXZ 100e3490 f i OpenExr:ImfHeader.obj
 0001:000e24a0       ?typeName@?$TypedAttribute@V?$Matrix44@M@Imath@@@Imf@@UBEPBDXZ 100e34a0 f i OpenExr:ImfHeader.obj
 0001:000e24b0       ?typeName@?$TypedAttribute@V?$Matrix44@N@Imath@@@Imf@@UBEPBDXZ 100e34b0 f i OpenExr:ImfHeader.obj
 0001:000e24c0       ?typeName@?$TypedAttribute@V?$Vec2@H@Imath@@@Imf@@UBEPBDXZ 100e34c0 f i OpenExr:ImfHeader.obj
 0001:000e24d0       ?typeName@?$TypedAttribute@V?$Vec2@M@Imath@@@Imf@@UBEPBDXZ 100e34d0 f i OpenExr:ImfHeader.obj
 0001:000e24e0       ?typeName@?$TypedAttribute@V?$Vec2@N@Imath@@@Imf@@UBEPBDXZ 100e34e0 f i OpenExr:ImfHeader.obj
 0001:000e24f0       ?typeName@?$TypedAttribute@V?$Vec3@H@Imath@@@Imf@@UBEPBDXZ 100e34f0 f i OpenExr:ImfHeader.obj
 0001:000e2500       ?typeName@?$TypedAttribute@V?$Vec3@M@Imath@@@Imf@@UBEPBDXZ 100e3500 f i OpenExr:ImfHeader.obj
 0001:000e2510       ?typeName@?$TypedAttribute@V?$Vec3@N@Imath@@@Imf@@UBEPBDXZ 100e3510 f i OpenExr:ImfHeader.obj
 0001:000e2520       ?typeName@?$TypedAttribute@V?$basic_string@DU?$char_traits@D@std@@V?$allocator@D@2@@std@@@Imf@@UBEPBDXZ 100e3520 f i OpenExr:ImfHeader.obj
 0001:000e2530       ?typeName@?$TypedAttribute@V?$vector@MV?$allocator@M@std@@@std@@@Imf@@UBEPBDXZ 100e3530 f i OpenExr:ImfHeader.obj
 0001:000e2540       ?typeName@?$TypedAttribute@V?$vector@V?$basic_string@DU?$char_traits@D@std@@V?$allocator@D@2@@std@@V?$allocator@V?$basic_string@DU?$char_traits@D@std@@V?$allocator@D@2@@std@@@2@@std@@@Imf@@UBEPBDXZ 100e3540 f i OpenExr:ImfHeader.obj
 0001:000e2550       ?typeName@?$TypedAttribute@VChannelList@Imf@@@Imf@@UBEPBDXZ 100e3550 f i OpenExr:ImfHeader.obj
 0001:000e2560       ?typeName@?$TypedAttribute@VKeyCode@Imf@@@Imf@@UBEPBDXZ 100e3560 f i OpenExr:ImfHeader.obj
 0001:000e2570       ?typeName@?$TypedAttribute@VPreviewImage@Imf@@@Imf@@UBEPBDXZ 100e3570 f i OpenExr:ImfHeader.obj
 0001:000e2580       ?typeName@?$TypedAttribute@VRational@Imf@@@Imf@@UBEPBDXZ 100e3580 f i OpenExr:ImfHeader.obj
 0001:000e2590       ?typeName@?$TypedAttribute@VTileDescription@Imf@@@Imf@@UBEPBDXZ 100e3590 f i OpenExr:ImfHeader.obj
 0001:000e25a0       ?typeName@?$TypedAttribute@VTimeCode@Imf@@@Imf@@UBEPBDXZ 100e35a0 f i OpenExr:ImfHeader.obj
 0001:000e25b0       ?typeName@?$TypedAttribute@W4Compression@Imf@@@Imf@@UBEPBDXZ 100e35b0 f i OpenExr:ImfHeader.obj
 0001:000e25c0       ?typeName@?$TypedAttribute@W4DeepImageState@Imf@@@Imf@@UBEPBDXZ 100e35c0 f i OpenExr:ImfHeader.obj
 0001:000e25d0       ?typeName@?$TypedAttribute@W4Envmap@Imf@@@Imf@@UBEPBDXZ 100e35d0 f i OpenExr:ImfHeader.obj
 0001:000e25e0       ?typeName@?$TypedAttribute@W4LineOrder@Imf@@@Imf@@UBEPBDXZ 100e35e0 f i OpenExr:ImfHeader.obj
 0001:000e25f0       ?underflow@?$basic_stringbuf@DU?$char_traits@D@std@@V?$allocator@D@2@@std@@MAEHXZ 100e35f0 f i OpenExr:ImfHeader.obj
 0001:000e2650       ?writeValueTo@?$TypedAttribute@H@Imf@@UBEXAAVOStream@2@H@Z 100e3650 f i OpenExr:ImfHeader.obj
 0001:000e2690       ?writeValueTo@?$TypedAttribute@M@Imf@@UBEXAAVOStream@2@H@Z 100e3690 f i OpenExr:ImfHeader.obj
 0001:000e26d0       ?writeValueTo@?$TypedAttribute@N@Imf@@UBEXAAVOStream@2@H@Z 100e36d0 f i OpenExr:ImfHeader.obj
 0001:000e2760       ?globalThreadCount@Imf@@YAHXZ 100e3760 f   OpenExr:ImfThreading.obj
 0001:000e2770       ?setGlobalThreadCount@Imf@@YAXH@Z 100e3770 f   OpenExr:ImfThreading.obj
 0001:000e2790       ??0RgbaOutputFile@Imf@@QAE@QBDABVHeader@1@W4RgbaChannels@1@H@Z 100e3790 f   OpenExr:ImfRgbaFile.obj
 0001:000e2870       ??0RgbaOutputFile@Imf@@QAE@AAVOStream@1@ABVHeader@1@W4RgbaChannels@1@H@Z 100e3870 f   OpenExr:ImfRgbaFile.obj
 0001:000e2950       ??0RgbaOutputFile@Imf@@QAE@QBDABV?$Box@V?$Vec2@H@Imath@@@Imath@@1W4RgbaChannels@1@MV?$Vec2@M@3@MW4LineOrder@1@W4Compression@1@H@Z 100e3950 f   OpenExr:ImfRgbaFile.obj
 0001:000e2a70       ??0RgbaOutputFile@Imf@@QAE@QBDHHW4RgbaChannels@1@MV?$Vec2@M@Imath@@MW4LineOrder@1@W4Compression@1@H@Z 100e3a70 f   OpenExr:ImfRgbaFile.obj
 0001:000e2b80       ??1RgbaOutputFile@Imf@@UAE@XZ 100e3b80 f   OpenExr:ImfRgbaFile.obj
 0001:000e2bb0       ?setFrameBuffer@RgbaOutputFile@Imf@@QAEXPBURgba@2@II@Z 100e3bb0 f   OpenExr:ImfRgbaFile.obj
 0001:000e2d70       ?writePixels@RgbaOutputFile@Imf@@QAEXH@Z 100e3d70 f   OpenExr:ImfRgbaFile.obj
 0001:000e2e00       ?currentScanLine@RgbaOutputFile@Imf@@QBEHXZ 100e3e00 f   OpenExr:ImfRgbaFile.obj
 0001:000e2e30       ?header@RgbaOutputFile@Imf@@QBEABVHeader@2@XZ 100e3e30 f   OpenExr:ImfRgbaFile.obj
 0001:000e2e40       ?frameBuffer@RgbaOutputFile@Imf@@QBEABVFrameBuffer@2@XZ 100e3e40 f   OpenExr:ImfRgbaFile.obj
 0001:000e2e50       ?displayWindow@RgbaOutputFile@Imf@@QBEABV?$Box@V?$Vec2@H@Imath@@@Imath@@XZ 100e3e50 f   OpenExr:ImfRgbaFile.obj
 0001:000e2e60       ?dataWindow@RgbaOutputFile@Imf@@QBEABV?$Box@V?$Vec2@H@Imath@@@Imath@@XZ 100e3e60 f   OpenExr:ImfRgbaFile.obj
 0001:000e2e70       ?pixelAspectRatio@RgbaOutputFile@Imf@@QBEMXZ 100e3e70 f   OpenExr:ImfRgbaFile.obj
 0001:000e2e90       ?screenWindowCenter@RgbaOutputFile@Imf@@QBE?BV?$Vec2@M@Imath@@XZ 100e3e90 f   OpenExr:ImfRgbaFile.obj
 0001:000e2ec0       ?screenWindowWidth@RgbaOutputFile@Imf@@QBEMXZ 100e3ec0 f   OpenExr:ImfRgbaFile.obj
 0001:000e2ee0       ?lineOrder@RgbaOutputFile@Imf@@QBE?AW4LineOrder@2@XZ 100e3ee0 f   OpenExr:ImfRgbaFile.obj
 0001:000e2f00       ?compression@RgbaOutputFile@Imf@@QBE?AW4Compression@2@XZ 100e3f00 f   OpenExr:ImfRgbaFile.obj
 0001:000e2f20       ?channels@RgbaOutputFile@Imf@@QBE?AW4RgbaChannels@2@XZ 100e3f20 f   OpenExr:ImfRgbaFile.obj
 0001:000e2fc0       ?updatePreviewImage@RgbaOutputFile@Imf@@QAEXQBUPreviewRgba@2@@Z 100e3fc0 f   OpenExr:ImfRgbaFile.obj
 0001:000e2fd0       ?setYCRounding@RgbaOutputFile@Imf@@QAEXII@Z 100e3fd0 f   OpenExr:ImfRgbaFile.obj
 0001:000e3010       ?breakScanLine@RgbaOutputFile@Imf@@QAEXHHHD@Z 100e4010 f   OpenExr:ImfRgbaFile.obj
 0001:000e3020       ??0RgbaInputFile@Imf@@QAE@QBDH@Z 100e4020 f   OpenExr:ImfRgbaFile.obj
 0001:000e3120       ??0RgbaInputFile@Imf@@QAE@AAVIStream@1@H@Z 100e4120 f   OpenExr:ImfRgbaFile.obj
 0001:000e3220       ??0RgbaInputFile@Imf@@QAE@QBDABV?$basic_string@DU?$char_traits@D@std@@V?$allocator@D@2@@std@@H@Z 100e4220 f   OpenExr:ImfRgbaFile.obj
 0001:000e3310       ??0RgbaInputFile@Imf@@QAE@AAVIStream@1@ABV?$basic_string@DU?$char_traits@D@std@@V?$allocator@D@2@@std@@H@Z 100e4310 f   OpenExr:ImfRgbaFile.obj
 0001:000e3400       ??1RgbaInputFile@Imf@@UAE@XZ 100e4400 f   OpenExr:ImfRgbaFile.obj
 0001:000e3490       ?setFrameBuffer@RgbaInputFile@Imf@@QAEXPAURgba@2@II@Z 100e4490 f   OpenExr:ImfRgbaFile.obj
 0001:000e3710       ?setLayerName@RgbaInputFile@Imf@@QAEXABV?$basic_string@DU?$char_traits@D@std@@V?$allocator@D@2@@std@@@Z 100e4710 f   OpenExr:ImfRgbaFile.obj
 0001:000e3870       ?readPixels@RgbaInputFile@Imf@@QAEXHH@Z 100e4870 f   OpenExr:ImfRgbaFile.obj
 0001:000e3910       ?readPixels@RgbaInputFile@Imf@@QAEXH@Z 100e4910 f   OpenExr:ImfRgbaFile.obj
 0001:000e3930       ?header@RgbaInputFile@Imf@@QBEABVHeader@2@XZ 100e4930 f   OpenExr:ImfRgbaFile.obj
 0001:000e3940       ?frameBuffer@RgbaInputFile@Imf@@QBEABVFrameBuffer@2@XZ 100e4940 f   OpenExr:ImfRgbaFile.obj
 0001:000e3950       ?displayWindow@RgbaInputFile@Imf@@QBEABV?$Box@V?$Vec2@H@Imath@@@Imath@@XZ 100e4950 f   OpenExr:ImfRgbaFile.obj
 0001:000e3960       ?dataWindow@RgbaInputFile@Imf@@QBEABV?$Box@V?$Vec2@H@Imath@@@Imath@@XZ 100e4960 f   OpenExr:ImfRgbaFile.obj
 0001:000e3970       ?pixelAspectRatio@RgbaInputFile@Imf@@QBEMXZ 100e4970 f   OpenExr:ImfRgbaFile.obj
 0001:000e3990       ?screenWindowCenter@RgbaInputFile@Imf@@QBE?BV?$Vec2@M@Imath@@XZ 100e4990 f   OpenExr:ImfRgbaFile.obj
 0001:000e39c0       ?screenWindowWidth@RgbaInputFile@Imf@@QBEMXZ 100e49c0 f   OpenExr:ImfRgbaFile.obj
 0001:000e39e0       ?lineOrder@RgbaInputFile@Imf@@QBE?AW4LineOrder@2@XZ 100e49e0 f   OpenExr:ImfRgbaFile.obj
 0001:000e3a00       ?compression@RgbaInputFile@Imf@@QBE?AW4Compression@2@XZ 100e4a00 f   OpenExr:ImfRgbaFile.obj
 0001:000e3a20       ?channels@RgbaInputFile@Imf@@QBE?AW4RgbaChannels@2@XZ 100e4a20 f   OpenExr:ImfRgbaFile.obj
 0001:000e3a40       ?fileName@RgbaInputFile@Imf@@QBEPBDXZ 100e4a40 f   OpenExr:ImfRgbaFile.obj
 0001:000e3a50       ?isComplete@RgbaInputFile@Imf@@QBE_NXZ 100e4a50 f   OpenExr:ImfRgbaFile.obj
 0001:000e3a60       ?version@RgbaInputFile@Imf@@QBEHXZ 100e4a60 f   OpenExr:ImfRgbaFile.obj
 0001:000e3a70       ?insertChannels@?A0xc3699a11@Imf@@YAXAAVHeader@2@W4RgbaChannels@2@@Z 100e4a70 f   OpenExr:ImfRgbaFile.obj
 0001:000e3c10       ?rgbaChannels@?A0xc3699a11@Imf@@YA?AW4RgbaChannels@2@ABVChannelList@2@ABV?$basic_string@DU?$char_traits@D@std@@V?$allocator@D@2@@std@@@Z 100e4c10 f   OpenExr:ImfRgbaFile.obj
 0001:000e3e80       ?prefixFromLayerName@?A0xc3699a11@Imf@@YA?AV?$basic_string@DU?$char_traits@D@std@@V?$allocator@D@2@@std@@ABV34@ABVHeader@2@@Z 100e4e80 f   OpenExr:ImfRgbaFile.obj
 0001:000e3f30       ?ywFromHeader@?A0xc3699a11@Imf@@YA?AV?$Vec3@M@Imath@@ABVHeader@2@@Z 100e4f30 f   OpenExr:ImfRgbaFile.obj
 0001:000e4010       ?cachePadding@?A0xc3699a11@Imf@@YAHH@Z 100e5010 f   OpenExr:ImfRgbaFile.obj
 0001:000e4090       ??0ToYca@RgbaOutputFile@Imf@@QAE@AAVOutputFile@2@W4RgbaChannels@2@@Z 100e5090 f   OpenExr:ImfRgbaFile.obj
 0001:000e4260       ??1ToYca@RgbaOutputFile@Imf@@UAE@XZ 100e5260 f   OpenExr:ImfRgbaFile.obj
 0001:000e4290       ?setYCRounding@ToYca@RgbaOutputFile@Imf@@QAEXII@Z 100e5290 f   OpenExr:ImfRgbaFile.obj
 0001:000e42b0       ?setFrameBuffer@ToYca@RgbaOutputFile@Imf@@QAEXPBURgba@3@II@Z 100e52b0 f   OpenExr:ImfRgbaFile.obj
 0001:000e4470       ?writePixels@ToYca@RgbaOutputFile@Imf@@QAEXH@Z 100e5470 f   OpenExr:ImfRgbaFile.obj
 0001:000e4a00       ?currentScanLine@ToYca@RgbaOutputFile@Imf@@QBEHXZ 100e5a00 f   OpenExr:ImfRgbaFile.obj
 0001:000e4a10       ?padTmpBuf@ToYca@RgbaOutputFile@Imf@@AAEXXZ 100e5a10 f   OpenExr:ImfRgbaFile.obj
 0001:000e4a90       ?rotateBuffers@ToYca@RgbaOutputFile@Imf@@AAEXXZ 100e5a90 f   OpenExr:ImfRgbaFile.obj
 0001:000e4ab0       ?duplicateLastBuffer@ToYca@RgbaOutputFile@Imf@@AAEXXZ 100e5ab0 f   OpenExr:ImfRgbaFile.obj
 0001:000e4af0       ?duplicateSecondToLastBuffer@ToYca@RgbaOutputFile@Imf@@AAEXXZ 100e5af0 f   OpenExr:ImfRgbaFile.obj
 0001:000e4b30       ?decimateChromaVertAndWriteScanLine@ToYca@RgbaOutputFile@Imf@@AAEXXZ 100e5b30 f   OpenExr:ImfRgbaFile.obj
 0001:000e4ba0       ??0FromYca@RgbaInputFile@Imf@@QAE@AAVInputFile@2@W4RgbaChannels@2@@Z 100e5ba0 f   OpenExr:ImfRgbaFile.obj
 0001:000e4d50       ??1FromYca@RgbaInputFile@Imf@@UAE@XZ 100e5d50 f   OpenExr:ImfRgbaFile.obj
 0001:000e4d80       ?setFrameBuffer@FromYca@RgbaInputFile@Imf@@QAEXPAURgba@3@IIABV?$basic_string@DU?$char_traits@D@std@@V?$allocator@D@2@@std@@@Z 100e5d80 f   OpenExr:ImfRgbaFile.obj
 0001:000e5000       ?readPixels@FromYca@RgbaInputFile@Imf@@QAEXHH@Z 100e6000 f   OpenExr:ImfRgbaFile.obj
 0001:000e53f0       ?readPixels@FromYca@RgbaInputFile@Imf@@AAEXH@Z 100e63f0 f   OpenExr:ImfRgbaFile.obj
 0001:000e57a0       ?rotateBuf1@FromYca@RgbaInputFile@Imf@@AAEXH@Z 100e67a0 f   OpenExr:ImfRgbaFile.obj
 0001:000e5830       ?rotateBuf2@FromYca@RgbaInputFile@Imf@@AAEXH@Z 100e6830 f   OpenExr:ImfRgbaFile.obj
 0001:000e58e0       ?readYCAScanLine@FromYca@RgbaInputFile@Imf@@AAEXHQAURgba@3@@Z 100e68e0 f   OpenExr:ImfRgbaFile.obj
 0001:000e59a0       ?padTmpBuf@FromYca@RgbaInputFile@Imf@@AAEXXZ 100e69a0 f   OpenExr:ImfRgbaFile.obj
 0001:000e5a20       ??1?$map@VName@Imf@@UDeepSlice@2@U?$less@VName@Imf@@@std@@V?$allocator@U?$pair@$$CBVName@Imf@@UDeepSlice@2@@std@@@5@@std@@QAE@XZ 100e6a20 f i OpenExr:ImfCompositeDeepScanLine.obj
 0001:000e5a20       ??1ChannelList@Imf@@QAE@XZ 100e6a20 f i OpenExr:ImfHeader.obj
 0001:000e5a20       ??1?$map@HPAVGenericInputFile@Imf@@U?$less@H@std@@V?$allocator@U?$pair@$$CBHPAVGenericInputFile@Imf@@@std@@@4@@std@@QAE@XZ 100e6a20 f i OpenExr:ImfMultiPartInputFile.obj
 0001:000e5a20       ??1?$map@PBDP6APAVAttribute@Imf@@XZUNameCompare@?A0xd430efe7@2@V?$allocator@U?$pair@QBDP6APAVAttribute@Imf@@XZ@std@@@std@@@std@@QAE@XZ 100e6a20 f i OpenExr:ImfAttribute.obj
 0001:000e5a20       ??1?$map@VName@Imf@@PAVAttribute@2@U?$less@VName@Imf@@@std@@V?$allocator@U?$pair@$$CBVName@Imf@@PAVAttribute@2@@std@@@5@@std@@QAE@XZ 100e6a20 f i OpenExr:ImfHeader.obj
 0001:000e5a20       ??1DeepFrameBuffer@Imf@@QAE@XZ 100e6a20 f i OpenExr:ImfCompositeDeepScanLine.obj
 0001:000e5a20       ??1FrameBuffer@Imf@@QAE@XZ 100e6a20 f i OpenExr:ImfRgbaFile.obj
 0001:000e5a50       ??_GFromYca@RgbaInputFile@Imf@@UAEPAXI@Z 100e6a50 f i OpenExr:ImfRgbaFile.obj
 0001:000e5a50       ??_EFromYca@RgbaInputFile@Imf@@UAEPAXI@Z 100e6a50 f i OpenExr:ImfRgbaFile.obj
 0001:000e5a90       ??_ERgbaInputFile@Imf@@UAEPAXI@Z 100e6a90 f i OpenExr:ImfRgbaFile.obj
 0001:000e5a90       ??_GRgbaInputFile@Imf@@UAEPAXI@Z 100e6a90 f i OpenExr:ImfRgbaFile.obj
 0001:000e5b30       ??_GRgbaOutputFile@Imf@@UAEPAXI@Z 100e6b30 f i OpenExr:ImfRgbaFile.obj
 0001:000e5b30       ??_ERgbaOutputFile@Imf@@UAEPAXI@Z 100e6b30 f i OpenExr:ImfRgbaFile.obj
 0001:000e5b70       ??_GToYca@RgbaOutputFile@Imf@@UAEPAXI@Z 100e6b70 f i OpenExr:ImfRgbaFile.obj
 0001:000e5b70       ??_EToYca@RgbaOutputFile@Imf@@UAEPAXI@Z 100e6b70 f i OpenExr:ImfRgbaFile.obj
 0001:000e5bb0       ?_Buyheadnode@?$_Tree_alloc@$0A@U?$_Tree_base_types@U?$pair@$$CBVName@Imf@@USlice@2@@std@@V?$allocator@U?$pair@$$CBVName@Imf@@USlice@2@@std@@@2@@std@@@std@@QAEPAU?$_Tree_node@U?$pair@$$CBVName@Imf@@USlice@2@@std@@PAX@2@XZ 100e6bb0 f i OpenExr:ImfRgbaFile.obj
 0001:000e5bf0       ?_Erase@?$_Tree@V?$_Tmap_traits@HPAVGenericInputFile@Imf@@U?$less@H@std@@V?$allocator@U?$pair@$$CBHPAVGenericInputFile@Imf@@@std@@@4@$0A@@std@@@std@@IAEXPAU?$_Tree_node@U?$pair@$$CBHPAVGenericInputFile@Imf@@@std@@PAX@2@@Z 100e6bf0 f i OpenExr:ImfMultiPartInputFile.obj
 0001:000e5bf0       ?_Erase@?$_Tree@V?$_Tmap_traits@VName@Imf@@UChannel@2@U?$less@VName@Imf@@@std@@V?$allocator@U?$pair@$$CBVName@Imf@@UChannel@2@@std@@@5@$0A@@std@@@std@@IAEXPAU?$_Tree_node@U?$pair@$$CBVName@Imf@@UChannel@2@@std@@PAX@2@@Z 100e6bf0 f i OpenExr:ImfHeader.obj
 0001:000e5bf0       ?_Erase@?$_Tree@V?$_Tmap_traits@VName@Imf@@PAVAttribute@2@U?$less@VName@Imf@@@std@@V?$allocator@U?$pair@$$CBVName@Imf@@PAVAttribute@2@@std@@@5@$0A@@std@@@std@@IAEXPAU?$_Tree_node@U?$pair@$$CBVName@Imf@@PAVAttribute@2@@std@@PAX@2@@Z 100e6bf0 f i OpenExr:ImfHeader.obj
 0001:000e5bf0       ?_Erase@?$_Tree@V?$_Tmap_traits@VName@Imf@@UDeepSlice@2@U?$less@VName@Imf@@@std@@V?$allocator@U?$pair@$$CBVName@Imf@@UDeepSlice@2@@std@@@5@$0A@@std@@@std@@IAEXPAU?$_Tree_node@U?$pair@$$CBVName@Imf@@UDeepSlice@2@@std@@PAX@2@@Z 100e6bf0 f i OpenExr:ImfCompositeDeepScanLine.obj
 0001:000e5bf0       ?_Erase@?$_Tree@V?$_Tmap_traits@VName@Imf@@USlice@2@U?$less@VName@Imf@@@std@@V?$allocator@U?$pair@$$CBVName@Imf@@USlice@2@@std@@@5@$0A@@std@@@std@@IAEXPAU?$_Tree_node@U?$pair@$$CBVName@Imf@@USlice@2@@std@@PAX@2@@Z 100e6bf0 f i OpenExr:ImfRgbaFile.obj
 0001:000e5bf0       ?_Erase@?$_Tree@V?$_Tmap_traits@PBDP6APAVAttribute@Imf@@XZUNameCompare@?A0xd430efe7@2@V?$allocator@U?$pair@QBDP6APAVAttribute@Imf@@XZ@std@@@std@@$0A@@std@@@std@@IAEXPAU?$_Tree_node@U?$pair@QBDP6APAVAttribute@Imf@@XZ@std@@PAX@2@@Z 100e6bf0 f i OpenExr:ImfAttribute.obj
 0001:000e5c30       ?clear@?$_Tree@V?$_Tmap_traits@PBDP6APAVAttribute@Imf@@XZUNameCompare@?A0xd430efe7@2@V?$allocator@U?$pair@QBDP6APAVAttribute@Imf@@XZ@std@@@std@@$0A@@std@@@std@@QAEXXZ 100e6c30 f i OpenExr:ImfAttribute.obj
 0001:000e5c30       ?clear@?$_Tree@V?$_Tmap_traits@VName@Imf@@UChannel@2@U?$less@VName@Imf@@@std@@V?$allocator@U?$pair@$$CBVName@Imf@@UChannel@2@@std@@@5@$0A@@std@@@std@@QAEXXZ 100e6c30 f i OpenExr:ImfHeader.obj
 0001:000e5c30       ?clear@?$_Tree@V?$_Tmap_traits@VName@Imf@@PAVAttribute@2@U?$less@VName@Imf@@@std@@V?$allocator@U?$pair@$$CBVName@Imf@@PAVAttribute@2@@std@@@5@$0A@@std@@@std@@QAEXXZ 100e6c30 f i OpenExr:ImfHeader.obj
 0001:000e5c30       ?clear@?$_Tree@V?$_Tmap_traits@HPAVGenericInputFile@Imf@@U?$less@H@std@@V?$allocator@U?$pair@$$CBHPAVGenericInputFile@Imf@@@std@@@4@$0A@@std@@@std@@QAEXXZ 100e6c30 f i OpenExr:ImfMultiPartInputFile.obj
 0001:000e5c30       ?clear@?$_Tree@V?$_Tmap_traits@VName@Imf@@UDeepSlice@2@U?$less@VName@Imf@@@std@@V?$allocator@U?$pair@$$CBVName@Imf@@UDeepSlice@2@@std@@@5@$0A@@std@@@std@@QAEXXZ 100e6c30 f i OpenExr:ImfCompositeDeepScanLine.obj
 0001:000e5c30       ?clear@?$_Tree@V?$_Tmap_traits@VName@Imf@@USlice@2@U?$less@VName@Imf@@@std@@V?$allocator@U?$pair@$$CBVName@Imf@@USlice@2@@std@@@5@$0A@@std@@@std@@QAEXXZ 100e6c30 f i OpenExr:ImfRgbaFile.obj
 0001:000e5c80       ?divp@Imath@@YAHHH@Z       100e6c80 f i OpenExr:ImfRgbaFile.obj
 0001:000e5cc0       ?erase@?$_Tree@V?$_Tmap_traits@VName@Imf@@PAVAttribute@2@U?$less@VName@Imf@@@std@@V?$allocator@U?$pair@$$CBVName@Imf@@PAVAttribute@2@@std@@@5@$0A@@std@@@std@@QAE?AV?$_Tree_iterator@V?$_Tree_val@U?$_Tree_simple_types@U?$pair@$$CBVName@Imf@@PAVAttribute@2@@std@@@std@@@std@@@2@V?$_Tree_const_iterator@V?$_Tree_val@U?$_Tree_simple_types@U?$pair@$$CBVName@Imf@@PAVAttribute@2@@std@@@std@@@std@@@2@0@Z 100e6cc0 f i OpenExr:ImfHeader.obj
 0001:000e5cc0       ?erase@?$_Tree@V?$_Tmap_traits@VName@Imf@@UChannel@2@U?$less@VName@Imf@@@std@@V?$allocator@U?$pair@$$CBVName@Imf@@UChannel@2@@std@@@5@$0A@@std@@@std@@QAE?AV?$_Tree_iterator@V?$_Tree_val@U?$_Tree_simple_types@U?$pair@$$CBVName@Imf@@UChannel@2@@std@@@std@@@std@@@2@V?$_Tree_const_iterator@V?$_Tree_val@U?$_Tree_simple_types@U?$pair@$$CBVName@Imf@@UChannel@2@@std@@@std@@@std@@@2@0@Z 100e6cc0 f i OpenExr:ImfHeader.obj
 0001:000e5cc0       ?erase@?$_Tree@V?$_Tmap_traits@VName@Imf@@UDeepSlice@2@U?$less@VName@Imf@@@std@@V?$allocator@U?$pair@$$CBVName@Imf@@UDeepSlice@2@@std@@@5@$0A@@std@@@std@@QAE?AV?$_Tree_iterator@V?$_Tree_val@U?$_Tree_simple_types@U?$pair@$$CBVName@Imf@@UDeepSlice@2@@std@@@std@@@std@@@2@V?$_Tree_const_iterator@V?$_Tree_val@U?$_Tree_simple_types@U?$pair@$$CBVName@Imf@@UDeepSlice@2@@std@@@std@@@std@@@2@0@Z 100e6cc0 f i OpenExr:ImfCompositeDeepScanLine.obj
 0001:000e5cc0       ?erase@?$_Tree@V?$_Tmap_traits@PBDP6APAVAttribute@Imf@@XZUNameCompare@?A0xd430efe7@2@V?$allocator@U?$pair@QBDP6APAVAttribute@Imf@@XZ@std@@@std@@$0A@@std@@@std@@QAE?AV?$_Tree_iterator@V?$_Tree_val@U?$_Tree_simple_types@U?$pair@QBDP6APAVAttribute@Imf@@XZ@std@@@std@@@std@@@2@V?$_Tree_const_iterator@V?$_Tree_val@U?$_Tree_simple_types@U?$pair@QBDP6APAVAttribute@Imf@@XZ@std@@@std@@@std@@@2@0@Z 100e6cc0 f i OpenExr:ImfAttribute.obj
 0001:000e5cc0       ?erase@?$_Tree@V?$_Tmap_traits@VName@Imf@@USlice@2@U?$less@VName@Imf@@@std@@V?$allocator@U?$pair@$$CBVName@Imf@@USlice@2@@std@@@5@$0A@@std@@@std@@QAE?AV?$_Tree_iterator@V?$_Tree_val@U?$_Tree_simple_types@U?$pair@$$CBVName@Imf@@USlice@2@@std@@@std@@@std@@@2@V?$_Tree_const_iterator@V?$_Tree_val@U?$_Tree_simple_types@U?$pair@$$CBVName@Imf@@USlice@2@@std@@@std@@@std@@@2@0@Z 100e6cc0 f i OpenExr:ImfRgbaFile.obj
 0001:000e5cc0       ?erase@?$_Tree@V?$_Tmap_traits@HPAVGenericInputFile@Imf@@U?$less@H@std@@V?$allocator@U?$pair@$$CBHPAVGenericInputFile@Imf@@@std@@@4@$0A@@std@@@std@@QAE?AV?$_Tree_iterator@V?$_Tree_val@U?$_Tree_simple_types@U?$pair@$$CBHPAVGenericInputFile@Imf@@@std@@@std@@@std@@@2@V?$_Tree_const_iterator@V?$_Tree_val@U?$_Tree_simple_types@U?$pair@$$CBHPAVGenericInputFile@Imf@@@std@@@std@@@std@@@2@0@Z 100e6cc0 f i OpenExr:ImfMultiPartInputFile.obj
 0001:000e5d60       ?modp@Imath@@YAHHH@Z       100e6d60 f i OpenExr:ImfRgbaFile.obj
 0001:000e5db0       ??0StdIFStream@Imf@@QAE@QBD@Z 100e6db0 f   OpenExr:ImfStdIO.obj
 0001:000e5e60       ??0StdIFStream@Imf@@QAE@AAV?$basic_ifstream@DU?$char_traits@D@std@@@std@@QBD@Z 100e6e60 f   OpenExr:ImfStdIO.obj
 0001:000e5e90       ??1StdIFStream@Imf@@UAE@XZ 100e6e90 f   OpenExr:ImfStdIO.obj
 0001:000e5f00       ?read@StdIFStream@Imf@@UAE_NQADH@Z 100e6f00 f   OpenExr:ImfStdIO.obj
 0001:000e5f90       ?tellg@StdIFStream@Imf@@UAE_KXZ 100e6f90 f   OpenExr:ImfStdIO.obj
 0001:000e5fc0       ?seekg@StdIFStream@Imf@@UAEX_K@Z 100e6fc0 f   OpenExr:ImfStdIO.obj
 0001:000e6010       ?clear@StdIFStream@Imf@@UAEXXZ 100e7010 f   OpenExr:ImfStdIO.obj
 0001:000e6030       ??0StdOFStream@Imf@@QAE@QBD@Z 100e7030 f   OpenExr:ImfStdIO.obj
 0001:000e60e0       ??0StdOFStream@Imf@@QAE@AAV?$basic_ofstream@DU?$char_traits@D@std@@@std@@QBD@Z 100e70e0 f   OpenExr:ImfStdIO.obj
 0001:000e6110       ??1StdOFStream@Imf@@UAE@XZ 100e7110 f   OpenExr:ImfStdIO.obj
 0001:000e6180       ?write@StdOFStream@Imf@@UAEXQBDH@Z 100e7180 f   OpenExr:ImfStdIO.obj
 0001:000e6210       ?tellp@StdOFStream@Imf@@UAE_KXZ 100e7210 f   OpenExr:ImfStdIO.obj
 0001:000e6240       ?seekp@StdOFStream@Imf@@UAEX_K@Z 100e7240 f   OpenExr:ImfStdIO.obj
 0001:000e62e0       ??0StdOSStream@Imf@@QAE@XZ 100e72e0 f   OpenExr:ImfStdIO.obj
 0001:000e63c0       ?write@StdOSStream@Imf@@UAEXQBDH@Z 100e73c0 f   OpenExr:ImfStdIO.obj
 0001:000e6450       ?tellp@StdOSStream@Imf@@UAE_KXZ 100e7450 f   OpenExr:ImfStdIO.obj
 0001:000e6480       ?seekp@StdOSStream@Imf@@UAEX_K@Z 100e7480 f   OpenExr:ImfStdIO.obj
 0001:000e6520       ?clearError@?A0x4821f318@Imf@@YAXXZ 100e7520 f   OpenExr:ImfStdIO.obj
 0001:000e6530       ?checkError@?A0x4821f318@Imf@@YA_NAAV?$basic_istream@DU?$char_traits@D@std@@@std@@_J@Z 100e7530 f   OpenExr:ImfStdIO.obj
 0001:000e66e0       ?checkError@?A0x4821f318@Imf@@YAXAAV?$basic_ostream@DU?$char_traits@D@std@@@std@@@Z 100e76e0 f   OpenExr:ImfStdIO.obj
 0001:000e6750       ??$_Fputc@D@std@@YA_NDPAU_iobuf@@@Z 100e7750 f i OpenExr:ImfStdIO.obj
 0001:000e6770       ??$use_facet@V?$codecvt@DDH@std@@@std@@YAABV?$codecvt@DDH@0@ABVlocale@0@@Z 100e7770 f i OpenExr:ImfStdIO.obj
 0001:000e6860       ??0?$basic_ifstream@DU?$char_traits@D@std@@@std@@QAE@PBDHH@Z 100e7860 f i OpenExr:ImfStdIO.obj
 0001:000e6970       ??0?$basic_ofstream@DU?$char_traits@D@std@@@std@@QAE@PBDHH@Z 100e7970 f i OpenExr:ImfStdIO.obj
 0001:000e6a80       ??0ErrnoExc@Iex@@QAE@ABV01@@Z 100e7a80 f i OpenExr:ImfStdIO.obj
 0001:000e6aa0       ??1?$basic_filebuf@DU?$char_traits@D@std@@@std@@UAE@XZ 100e7aa0 f i OpenExr:ImfStdIO.obj
 0001:000e6af0       ??1?$basic_ifstream@DU?$char_traits@D@std@@@std@@UAE@XZ 100e7af0 f i OpenExr:ImfStdIO.obj
 0001:000e6b60       ??1?$basic_ofstream@DU?$char_traits@D@std@@@std@@UAE@XZ 100e7b60 f i OpenExr:ImfStdIO.obj
 0001:000e6bd0       ??1locale@std@@QAE@XZ      100e7bd0 f i OpenExr:ImfStdIO.obj
 0001:000e6be8       ??_E?$basic_ifstream@DU?$char_traits@D@std@@@std@@$4PPPPPPPM@A@AEPAXI@Z 100e7be8 f i OpenExr:ImfStdIO.obj
 0001:000e6bf0       ??_E?$basic_ofstream@DU?$char_traits@D@std@@@std@@$4PPPPPPPM@A@AEPAXI@Z 100e7bf0 f i OpenExr:ImfStdIO.obj
 0001:000e6c00       ??_G?$basic_filebuf@DU?$char_traits@D@std@@@std@@UAEPAXI@Z 100e7c00 f i OpenExr:ImfStdIO.obj
 0001:000e6c00       ??_E?$basic_filebuf@DU?$char_traits@D@std@@@std@@UAEPAXI@Z 100e7c00 f i OpenExr:ImfStdIO.obj
 0001:000e6c60       ??_E?$basic_ifstream@DU?$char_traits@D@std@@@std@@UAEPAXI@Z 100e7c60 f i OpenExr:ImfStdIO.obj
 0001:000e6c60       ??_G?$basic_ifstream@DU?$char_traits@D@std@@@std@@UAEPAXI@Z 100e7c60 f i OpenExr:ImfStdIO.obj
 0001:000e6cb0       ??_G?$basic_ofstream@DU?$char_traits@D@std@@@std@@UAEPAXI@Z 100e7cb0 f i OpenExr:ImfStdIO.obj
 0001:000e6cb0       ??_E?$basic_ofstream@DU?$char_traits@D@std@@@std@@UAEPAXI@Z 100e7cb0 f i OpenExr:ImfStdIO.obj
 0001:000e6d00       ??_EStdIFStream@Imf@@UAEPAXI@Z 100e7d00 f i OpenExr:ImfStdIO.obj
 0001:000e6d00       ??_GStdIFStream@Imf@@UAEPAXI@Z 100e7d00 f i OpenExr:ImfStdIO.obj
 0001:000e6d90       ??_EStdOFStream@Imf@@UAEPAXI@Z 100e7d90 f i OpenExr:ImfStdIO.obj
 0001:000e6d90       ??_GStdOFStream@Imf@@UAEPAXI@Z 100e7d90 f i OpenExr:ImfStdIO.obj
 0001:000e6e20       ??_EStdOSStream@Imf@@UAEPAXI@Z 100e7e20 f i OpenExr:ImfStdIO.obj
 0001:000e6e20       ??_GStdOSStream@Imf@@UAEPAXI@Z 100e7e20 f i OpenExr:ImfStdIO.obj
 0001:000e6e50       ?_Chassign@?$basic_string@DU?$char_traits@D@std@@V?$allocator@D@2@@std@@QAEXIID@Z 100e7e50 f i OpenExr:ImfStdIO.obj
 0001:000e6ea0       ?_Endwrite@?$basic_filebuf@DU?$char_traits@D@std@@@std@@IAE_NXZ 100e7ea0 f i OpenExr:ImfStdIO.obj
 0001:000e6ff0       ?_Lock@?$basic_filebuf@DU?$char_traits@D@std@@@std@@UAEXXZ 100e7ff0 f i OpenExr:ImfStdIO.obj
 0001:000e7000       ?_Reset_back@?$basic_filebuf@DU?$char_traits@D@std@@@std@@AAEXXZ 100e8000 f i OpenExr:ImfStdIO.obj
 0001:000e7030       ?_Set_back@?$basic_filebuf@DU?$char_traits@D@std@@@std@@AAEXXZ 100e8030 f i OpenExr:ImfStdIO.obj
 0001:000e7070       ?_Unlock@?$basic_filebuf@DU?$char_traits@D@std@@@std@@UAEXXZ 100e8070 f i OpenExr:ImfStdIO.obj
 0001:000e7080       ?append@?$basic_string@DU?$char_traits@D@std@@V?$allocator@D@2@@std@@QAEAAV12@ID@Z 100e8080 f i OpenExr:ImfStdIO.obj
 0001:000e7130       ?close@?$basic_filebuf@DU?$char_traits@D@std@@@std@@QAEPAV12@XZ 100e8130 f i OpenExr:ImfStdIO.obj
 0001:000e7190       ?imbue@?$basic_filebuf@DU?$char_traits@D@std@@@std@@MAEXABVlocale@2@@Z 100e8190 f i OpenExr:ImfStdIO.obj
 0001:000e71d0       ?open@?$basic_filebuf@DU?$char_traits@D@std@@@std@@QAEPAV12@PBDHH@Z 100e81d0 f i OpenExr:ImfStdIO.obj
 0001:000e72e0       ?overflow@?$basic_filebuf@DU?$char_traits@D@std@@@std@@MAEHH@Z 100e82e0 f i OpenExr:ImfStdIO.obj
 0001:000e74d0       ?pbackfail@?$basic_filebuf@DU?$char_traits@D@std@@@std@@MAEHH@Z 100e84d0 f i OpenExr:ImfStdIO.obj
 0001:000e7560       ?seekoff@?$basic_filebuf@DU?$char_traits@D@std@@@std@@MAE?AV?$fpos@H@2@_JHH@Z 100e8560 f i OpenExr:ImfStdIO.obj
 0001:000e7660       ?seekpos@?$basic_filebuf@DU?$char_traits@D@std@@@std@@MAE?AV?$fpos@H@2@V32@H@Z 100e8660 f i OpenExr:ImfStdIO.obj
 0001:000e7740       ?setbuf@?$basic_filebuf@DU?$char_traits@D@std@@@std@@MAEPAV?$basic_streambuf@DU?$char_traits@D@std@@@2@PAD_J@Z 100e8740 f i OpenExr:ImfStdIO.obj
 0001:000e77d0       ?sync@?$basic_filebuf@DU?$char_traits@D@std@@@std@@MAEHXZ 100e87d0 f i OpenExr:ImfStdIO.obj
 0001:000e7800       ?uflow@?$basic_filebuf@DU?$char_traits@D@std@@@std@@MAEHXZ 100e8800 f i OpenExr:ImfStdIO.obj
 0001:000e79f0       ?underflow@?$basic_filebuf@DU?$char_traits@D@std@@@std@@MAEHXZ 100e89f0 f i OpenExr:ImfStdIO.obj
 0001:000e7a30       ??0Compressor@Imf@@QAE@ABVHeader@1@@Z 100e8a30 f   OpenExr:ImfCompressor.obj
 0001:000e7a50       ??1Compressor@Imf@@UAE@XZ  100e8a50 f   OpenExr:ImfCompressor.obj
 0001:000e7a60       ?format@Compressor@Imf@@UBE?AW4Format@12@XZ 100e8a60 f   OpenExr:ImfCompressor.obj
 0001:000e7a70       ?compressTile@Compressor@Imf@@UAEHPBDHV?$Box@V?$Vec2@H@Imath@@@Imath@@AAPBD@Z 100e8a70 f   OpenExr:ImfCompressor.obj
 0001:000e7a90       ?uncompressTile@Compressor@Imf@@UAEHPBDHV?$Box@V?$Vec2@H@Imath@@@Imath@@AAPBD@Z 100e8a90 f   OpenExr:ImfCompressor.obj
 0001:000e7ab0       ?isValidCompression@Imf@@YA_NW4Compression@1@@Z 100e8ab0 f   OpenExr:ImfCompressor.obj
 0001:000e7ac0       ?isValidDeepCompression@Imf@@YA_NW4Compression@1@@Z 100e8ac0 f   OpenExr:ImfCompressor.obj
 0001:000e7ad0       ?newCompressor@Imf@@YAPAVCompressor@1@W4Compression@1@IABVHeader@1@@Z 100e8ad0 f   OpenExr:ImfCompressor.obj
 0001:000e7d50       ?newTileCompressor@Imf@@YAPAVCompressor@1@W4Compression@1@IIABVHeader@1@@Z 100e8d50 f   OpenExr:ImfCompressor.obj
 0001:000e7f50       ??$uiMult@I@Imf@@YAIII@Z   100e8f50 f i OpenExr:ImfCompressor.obj
 0001:000e7fb0       ??0MathExc@Iex@@QAE@ABV01@@Z 100e8fb0 f i OpenExr:ImfCompressor.obj
 0001:000e7fd0       ??0OverflowExc@Iex@@QAE@ABV01@@Z 100e8fd0 f i OpenExr:ImfCompressor.obj
 0001:000e7ff0       ??1OverflowExc@Iex@@UAE@XZ 100e8ff0 f i OpenExr:ImfCompressor.obj
 0001:000e7ff0       ??1SingMatrixExc@Imath@@UAE@XZ 100e8ff0 f i OpenExr:ImfChromaticities.obj
 0001:000e8000       ??_GCompressor@Imf@@UAEPAXI@Z 100e9000 f i OpenExr:ImfCompressor.obj
 0001:000e8000       ??_ECompressor@Imf@@UAEPAXI@Z 100e9000 f i OpenExr:ImfCompressor.obj
 0001:000e8030       ??_EMathExc@Iex@@UAEPAXI@Z 100e9030 f i OpenExr:ImfCompressor.obj
 0001:000e8030       ??_GSingMatrixExc@Imath@@UAEPAXI@Z 100e9030 f i OpenExr:ImfChromaticities.obj
 0001:000e8030       ??_ESingMatrixExc@Imath@@UAEPAXI@Z 100e9030 f i OpenExr:ImfChromaticities.obj
 0001:000e8030       ??_GMathExc@Iex@@UAEPAXI@Z 100e9030 f i OpenExr:ImfCompressor.obj
 0001:000e8030       ??_EOverflowExc@Iex@@UAEPAXI@Z 100e9030 f i OpenExr:ImfCompressor.obj
 0001:000e8030       ??_GOverflowExc@Iex@@UAEPAXI@Z 100e9030 f i OpenExr:ImfCompressor.obj
 0001:000e8060       ??0Attribute@Imf@@QAE@XZ   100e9060 f   OpenExr:ImfAttribute.obj
 0001:000e8070       ??1Attribute@Imf@@UAE@XZ   100e9070 f   OpenExr:ImfAttribute.obj
 0001:000e8080       ?newAttribute@Attribute@Imf@@SAPAV12@QBD@Z 100e9080 f   OpenExr:ImfAttribute.obj
 0001:000e8260       ?knownType@Attribute@Imf@@SA_NQBD@Z 100e9260 f   OpenExr:ImfAttribute.obj
 0001:000e82e0       ?registerAttributeType@Attribute@Imf@@KAXQBDP6APAV12@XZ@Z 100e92e0 f   OpenExr:ImfAttribute.obj
 0001:000e84d0       ?unRegisterAttributeType@Attribute@Imf@@KAXQBD@Z 100e94d0 f   OpenExr:ImfAttribute.obj
 0001:000e8520       ?typeMap@?A0xd430efe7@Imf@@YAAAVLockedTypeMap@12@XZ 100e9520 f   OpenExr:ImfAttribute.obj
 0001:000e8610       ??$_Buynode@U?$pair@QBDP6APAVAttribute@Imf@@XZ@std@@@?$_Tree_buy@U?$pair@QBDP6APAVAttribute@Imf@@XZ@std@@V?$allocator@U?$pair@QBDP6APAVAttribute@Imf@@XZ@std@@@2@@std@@QAEPAU?$_Tree_node@U?$pair@QBDP6APAVAttribute@Imf@@XZ@std@@PAX@1@$$QAU?$pair@QBDP6APAVAttribute@Imf@@XZ@1@@Z 100e9610 f i OpenExr:ImfAttribute.obj
 0001:000e8610       ??$_Buynode@U?$pair@HPAVGenericInputFile@Imf@@@std@@@?$_Tree_buy@U?$pair@$$CBHPAVGenericInputFile@Imf@@@std@@V?$allocator@U?$pair@$$CBHPAVGenericInputFile@Imf@@@std@@@2@@std@@QAEPAU?$_Tree_node@U?$pair@$$CBHPAVGenericInputFile@Imf@@@std@@PAX@1@$$QAU?$pair@HPAVGenericInputFile@Imf@@@1@@Z 100e9610 f i OpenExr:ImfMultiPartInputFile.obj
 0001:000e8640       ??$_Insert_at@U?$pair@QBDP6APAVAttribute@Imf@@XZ@std@@U_Nil@2@@?$_Tree@V?$_Tmap_traits@PBDP6APAVAttribute@Imf@@XZUNameCompare@?A0xd430efe7@2@V?$allocator@U?$pair@QBDP6APAVAttribute@Imf@@XZ@std@@@std@@$0A@@std@@@std@@IAE?AV?$_Tree_iterator@V?$_Tree_val@U?$_Tree_simple_types@U?$pair@QBDP6APAVAttribute@Imf@@XZ@std@@@std@@@std@@@1@_NPAU?$_Tree_node@U?$pair@QBDP6APAVAttribute@Imf@@XZ@std@@PAX@1@$$QAU?$pair@QBDP6APAVAttribute@Imf@@XZ@1@U_Nil@1@@Z 100e9640 f i OpenExr:ImfAttribute.obj
 0001:000e8840       ??$_Insert_nohint@U?$pair@QBDP6APAVAttribute@Imf@@XZ@std@@U_Nil@2@@?$_Tree@V?$_Tmap_traits@PBDP6APAVAttribute@Imf@@XZUNameCompare@?A0xd430efe7@2@V?$allocator@U?$pair@QBDP6APAVAttribute@Imf@@XZ@std@@@std@@$0A@@std@@@std@@IAE?AU?$pair@V?$_Tree_iterator@V?$_Tree_val@U?$_Tree_simple_types@U?$pair@QBDP6APAVAttribute@Imf@@XZ@std@@@std@@@std@@@std@@_N@1@_N$$QAU?$pair@QBDP6APAVAttribute@Imf@@XZ@1@U_Nil@1@@Z 100e9840 f i OpenExr:ImfAttribute.obj
 0001:000e89e0       ??_EAttribute@Imf@@UAEPAXI@Z 100e99e0 f i OpenExr:ImfAttribute.obj
 0001:000e89e0       ??_GAttribute@Imf@@UAEPAXI@Z 100e99e0 f i OpenExr:ImfAttribute.obj
 0001:000e8a10       ?_Buyheadnode@?$_Tree_alloc@$0A@U?$_Tree_base_types@U?$pair@$$CBHPAVGenericInputFile@Imf@@@std@@V?$allocator@U?$pair@$$CBHPAVGenericInputFile@Imf@@@std@@@2@@std@@@std@@QAEPAU?$_Tree_node@U?$pair@$$CBHPAVGenericInputFile@Imf@@@std@@PAX@2@XZ 100e9a10 f i OpenExr:ImfMultiPartInputFile.obj
 0001:000e8a10       ?_Buyheadnode@?$_Tree_alloc@$0A@U?$_Tree_base_types@U?$pair@QBDP6APAVAttribute@Imf@@XZ@std@@V?$allocator@U?$pair@QBDP6APAVAttribute@Imf@@XZ@std@@@2@@std@@@std@@QAEPAU?$_Tree_node@U?$pair@QBDP6APAVAttribute@Imf@@XZ@std@@PAX@2@XZ 100e9a10 f i OpenExr:ImfAttribute.obj
 0001:000e8a40       ?_Buynode0@?$_Tree_buy@U?$pair@$$CBHPAVGenericInputFile@Imf@@@std@@V?$allocator@U?$pair@$$CBHPAVGenericInputFile@Imf@@@std@@@2@@std@@QAEPAU?$_Tree_node@U?$pair@$$CBHPAVGenericInputFile@Imf@@@std@@PAX@2@XZ 100e9a40 f i OpenExr:ImfMultiPartInputFile.obj
 0001:000e8a40       ?_Buynode0@?$_Tree_buy@U?$pair@QBDP6APAVAttribute@Imf@@XZ@std@@V?$allocator@U?$pair@QBDP6APAVAttribute@Imf@@XZ@std@@@2@@std@@QAEPAU?$_Tree_node@U?$pair@QBDP6APAVAttribute@Imf@@XZ@std@@PAX@2@XZ 100e9a40 f i OpenExr:ImfAttribute.obj
 0001:000e8a80       ?_Eqrange@?$_Tree@V?$_Tmap_traits@PBDP6APAVAttribute@Imf@@XZUNameCompare@?A0xd430efe7@2@V?$allocator@U?$pair@QBDP6APAVAttribute@Imf@@XZ@std@@@std@@$0A@@std@@@std@@IAE?AU?$pair@V?$_Tree_iterator@V?$_Tree_val@U?$_Tree_simple_types@U?$pair@QBDP6APAVAttribute@Imf@@XZ@std@@@std@@@std@@@std@@V12@@2@ABQBD@Z 100e9a80 f i OpenExr:ImfAttribute.obj
 0001:000e8ba0       ?_Lbound@?$_Tree@V?$_Tmap_traits@PBDP6APAVAttribute@Imf@@XZUNameCompare@?A0xd430efe7@2@V?$allocator@U?$pair@QBDP6APAVAttribute@Imf@@XZ@std@@@std@@$0A@@std@@@std@@IAEPAU?$_Tree_node@U?$pair@QBDP6APAVAttribute@Imf@@XZ@std@@PAX@2@ABQBD@Z 100e9ba0 f i OpenExr:ImfAttribute.obj
 0001:000e8c10       ?_Lrotate@?$_Tree@V?$_Tmap_traits@V?$basic_string@DU?$char_traits@D@std@@V?$allocator@D@2@@std@@UCscChannelSet@DwaCompressor@Imf@@U?$less@V?$basic_string@DU?$char_traits@D@std@@V?$allocator@D@2@@std@@@2@V?$allocator@U?$pair@$$CBV?$basic_string@DU?$char_traits@D@std@@V?$allocator@D@2@@std@@UCscChannelSet@DwaCompressor@Imf@@@std@@@2@$0A@@std@@@std@@IAEXPAU?$_Tree_node@U?$pair@$$CBV?$basic_string@DU?$char_traits@D@std@@V?$allocator@D@2@@std@@UCscChannelSet@DwaCompressor@Imf@@@std@@PAX@2@@Z 100e9c10 f i OpenExr:ImfDwaCompressor.obj
 0001:000e8c10       ?_Lrotate@?$_Tree@V?$_Tmap_traits@VName@Imf@@UChannel@2@U?$less@VName@Imf@@@std@@V?$allocator@U?$pair@$$CBVName@Imf@@UChannel@2@@std@@@5@$0A@@std@@@std@@IAEXPAU?$_Tree_node@U?$pair@$$CBVName@Imf@@UChannel@2@@std@@PAX@2@@Z 100e9c10 f i OpenExr:ImfHeader.obj
 0001:000e8c10       ?_Lrotate@?$_Tree@V?$_Tmap_traits@HPAVGenericInputFile@Imf@@U?$less@H@std@@V?$allocator@U?$pair@$$CBHPAVGenericInputFile@Imf@@@std@@@4@$0A@@std@@@std@@IAEXPAU?$_Tree_node@U?$pair@$$CBHPAVGenericInputFile@Imf@@@std@@PAX@2@@Z 100e9c10 f i OpenExr:ImfMultiPartInputFile.obj
 0001:000e8c10       ?_Lrotate@?$_Tree@V?$_Tmap_traits@VName@Imf@@USlice@2@U?$less@VName@Imf@@@std@@V?$allocator@U?$pair@$$CBVName@Imf@@USlice@2@@std@@@5@$0A@@std@@@std@@IAEXPAU?$_Tree_node@U?$pair@$$CBVName@Imf@@USlice@2@@std@@PAX@2@@Z 100e9c10 f i OpenExr:ImfRgbaFile.obj
 0001:000e8c10       ?_Lrotate@?$_Tree@V?$_Tmap_traits@PBDP6APAVAttribute@Imf@@XZUNameCompare@?A0xd430efe7@2@V?$allocator@U?$pair@QBDP6APAVAttribute@Imf@@XZ@std@@@std@@$0A@@std@@@std@@IAEXPAU?$_Tree_node@U?$pair@QBDP6APAVAttribute@Imf@@XZ@std@@PAX@2@@Z 100e9c10 f i OpenExr:ImfAttribute.obj
 0001:000e8c10       ?_Lrotate@?$_Tree@V?$_Tset_traits@V?$basic_string@DU?$char_traits@D@std@@V?$allocator@D@2@@std@@U?$less@V?$basic_string@DU?$char_traits@D@std@@V?$allocator@D@2@@std@@@2@V?$allocator@V?$basic_string@DU?$char_traits@D@std@@V?$allocator@D@2@@std@@@2@$0A@@std@@@std@@IAEXPAU?$_Tree_node@V?$basic_string@DU?$char_traits@D@std@@V?$allocator@D@2@@std@@PAX@2@@Z 100e9c10 f i OpenExr:ImfChannelList.obj
 0001:000e8c10       ?_Lrotate@?$_Tree@V?$_Tmap_traits@VName@Imf@@PAVAttribute@2@U?$less@VName@Imf@@@std@@V?$allocator@U?$pair@$$CBVName@Imf@@PAVAttribute@2@@std@@@5@$0A@@std@@@std@@IAEXPAU?$_Tree_node@U?$pair@$$CBVName@Imf@@PAVAttribute@2@@std@@PAX@2@@Z 100e9c10 f i OpenExr:ImfHeader.obj
 0001:000e8c10       ?_Lrotate@?$_Tree@V?$_Tmap_traits@VName@Imf@@UDeepSlice@2@U?$less@VName@Imf@@@std@@V?$allocator@U?$pair@$$CBVName@Imf@@UDeepSlice@2@@std@@@5@$0A@@std@@@std@@IAEXPAU?$_Tree_node@U?$pair@$$CBVName@Imf@@UDeepSlice@2@@std@@PAX@2@@Z 100e9c10 f i OpenExr:ImfCompositeDeepScanLine.obj
 0001:000e8c70       ?staticTypeName@?$TypedAttribute@V?$Box@V?$Vec2@H@Imath@@@Imath@@@Imf@@SAPBDXZ 100e9c70 f   OpenExr:ImfBoxAttribute.obj
 0001:000e8c80       ?writeValueTo@?$TypedAttribute@V?$Box@V?$Vec2@H@Imath@@@Imath@@@Imf@@UBEXAAVOStream@2@H@Z 100e9c80 f   OpenExr:ImfBoxAttribute.obj
 0001:000e8d40       ?readValueFrom@?$TypedAttribute@V?$Box@V?$Vec2@H@Imath@@@Imath@@@Imf@@UAEXAAVIStream@2@HH@Z 100e9d40 f   OpenExr:ImfBoxAttribute.obj
 0001:000e8e20       ?staticTypeName@?$TypedAttribute@V?$Box@V?$Vec2@M@Imath@@@Imath@@@Imf@@SAPBDXZ 100e9e20 f   OpenExr:ImfBoxAttribute.obj
 0001:000e8e30       ?writeValueTo@?$TypedAttribute@V?$Box@V?$Vec2@M@Imath@@@Imath@@@Imf@@UBEXAAVOStream@2@H@Z 100e9e30 f   OpenExr:ImfBoxAttribute.obj
 0001:000e8f10       ?readValueFrom@?$TypedAttribute@V?$Box@V?$Vec2@M@Imath@@@Imath@@@Imf@@UAEXAAVIStream@2@HH@Z 100e9f10 f   OpenExr:ImfBoxAttribute.obj
 0001:000e9010       ??0Channel@Imf@@QAE@W4PixelType@1@HH_N@Z 100ea010 f   OpenExr:ImfChannelList.obj
 0001:000e9030       ??8Channel@Imf@@QBE_NABU01@@Z 100ea030 f   OpenExr:ImfChannelList.obj
 0001:000e9060       ?insert@ChannelList@Imf@@QAEXQBDABUChannel@2@@Z 100ea060 f   OpenExr:ImfChannelList.obj
 0001:000e91f0       ?insert@ChannelList@Imf@@QAEXABV?$basic_string@DU?$char_traits@D@std@@V?$allocator@D@2@@std@@ABUChannel@2@@Z 100ea1f0 f   OpenExr:ImfChannelList.obj
 0001:000e9210       ??AChannelList@Imf@@QAEAAUChannel@1@QBD@Z 100ea210 f   OpenExr:ImfChannelList.obj
 0001:000e93f0       ??AChannelList@Imf@@QBEABUChannel@1@QBD@Z 100ea3f0 f   OpenExr:ImfChannelList.obj
 0001:000e95d0       ??AChannelList@Imf@@QAEAAUChannel@1@ABV?$basic_string@DU?$char_traits@D@std@@V?$allocator@D@2@@std@@@Z 100ea5d0 f   OpenExr:ImfChannelList.obj
 0001:000e95f0       ??AChannelList@Imf@@QBEABUChannel@1@ABV?$basic_string@DU?$char_traits@D@std@@V?$allocator@D@2@@std@@@Z 100ea5f0 f   OpenExr:ImfChannelList.obj
 0001:000e9610       ?findChannel@ChannelList@Imf@@QAEPAUChannel@2@QBD@Z 100ea610 f   OpenExr:ImfChannelList.obj
 0001:000e96d0       ?findChannel@ChannelList@Imf@@QBEPBUChannel@2@QBD@Z 100ea6d0 f   OpenExr:ImfChannelList.obj
 0001:000e9790       ?findChannel@ChannelList@Imf@@QAEPAUChannel@2@ABV?$basic_string@DU?$char_traits@D@std@@V?$allocator@D@2@@std@@@Z 100ea790 f   OpenExr:ImfChannelList.obj
 0001:000e97b0       ?findChannel@ChannelList@Imf@@QBEPBUChannel@2@ABV?$basic_string@DU?$char_traits@D@std@@V?$allocator@D@2@@std@@@Z 100ea7b0 f   OpenExr:ImfChannelList.obj
 0001:000e97d0       ?begin@ChannelList@Imf@@QAE?AVIterator@12@XZ 100ea7d0 f   OpenExr:ImfChannelList.obj
 0001:000e97e0       ?begin@ChannelList@Imf@@QBE?AVConstIterator@12@XZ 100ea7e0 f   OpenExr:ImfChannelList.obj
 0001:000e97f0       ?end@ChannelList@Imf@@QAE?AVIterator@12@XZ 100ea7f0 f   OpenExr:ImfChannelList.obj
 0001:000e9800       ?end@ChannelList@Imf@@QBE?AVConstIterator@12@XZ 100ea800 f   OpenExr:ImfChannelList.obj
 0001:000e9810       ?find@ChannelList@Imf@@QAE?AVIterator@12@QBD@Z 100ea810 f   OpenExr:ImfChannelList.obj
 0001:000e98c0       ?find@ChannelList@Imf@@QBE?AVConstIterator@12@QBD@Z 100ea8c0 f   OpenExr:ImfChannelList.obj
 0001:000e9970       ?find@ChannelList@Imf@@QAE?AVIterator@12@ABV?$basic_string@DU?$char_traits@D@std@@V?$allocator@D@2@@std@@@Z 100ea970 f   OpenExr:ImfChannelList.obj
 0001:000e9990       ?find@ChannelList@Imf@@QBE?AVConstIterator@12@ABV?$basic_string@DU?$char_traits@D@std@@V?$allocator@D@2@@std@@@Z 100ea990 f   OpenExr:ImfChannelList.obj
 0001:000e99b0       ?layers@ChannelList@Imf@@QBEXAAV?$set@V?$basic_string@DU?$char_traits@D@std@@V?$allocator@D@2@@std@@U?$less@V?$basic_string@DU?$char_traits@D@std@@V?$allocator@D@2@@std@@@2@V?$allocator@V?$basic_string@DU?$char_traits@D@std@@V?$allocator@D@2@@std@@@2@@std@@@Z 100ea9b0 f   OpenExr:ImfChannelList.obj
 0001:000e9b80       ?channelsInLayer@ChannelList@Imf@@QAEXABV?$basic_string@DU?$char_traits@D@std@@V?$allocator@D@2@@std@@AAVIterator@12@1@Z 100eab80 f   OpenExr:ImfChannelList.obj
 0001:000e9bf0       ?channelsInLayer@ChannelList@Imf@@QBEXABV?$basic_string@DU?$char_traits@D@std@@V?$allocator@D@2@@std@@AAVConstIterator@12@1@Z 100eabf0 f   OpenExr:ImfChannelList.obj
 0001:000e9c60       ?channelsWithPrefix@ChannelList@Imf@@QAEXQBDAAVIterator@12@1@Z 100eac60 f   OpenExr:ImfChannelList.obj
 0001:000e9d50       ?channelsWithPrefix@ChannelList@Imf@@QBEXQBDAAVConstIterator@12@1@Z 100ead50 f   OpenExr:ImfChannelList.obj
 0001:000e9e40       ?channelsWithPrefix@ChannelList@Imf@@QAEXABV?$basic_string@DU?$char_traits@D@std@@V?$allocator@D@2@@std@@AAVIterator@12@1@Z 100eae40 f   OpenExr:ImfChannelList.obj
 0001:000e9e60       ?channelsWithPrefix@ChannelList@Imf@@QBEXABV?$basic_string@DU?$char_traits@D@std@@V?$allocator@D@2@@std@@AAVConstIterator@12@1@Z 100eae60 f   OpenExr:ImfChannelList.obj
 0001:000e9e80       ??8ChannelList@Imf@@QBE_NABV01@@Z 100eae80 f   OpenExr:ImfChannelList.obj
 0001:000e9fa0       ??$?HDU?$char_traits@D@std@@V?$allocator@D@1@@std@@YA?AV?$basic_string@DU?$char_traits@D@std@@V?$allocator@D@2@@0@ABV10@D@Z 100eafa0 f i OpenExr:ImfChannelList.obj
 0001:000ea050       ??$_Buynode@ABUpiecewise_construct_t@std@@V?$tuple@$$QAVName@Imf@@@2@V?$tuple@$$$V@2@@?$_Tree_buy@U?$pair@$$CBVName@Imf@@UChannel@2@@std@@V?$allocator@U?$pair@$$CBVName@Imf@@UChannel@2@@std@@@2@@std@@QAEPAU?$_Tree_node@U?$pair@$$CBVName@Imf@@UChannel@2@@std@@PAX@1@ABUpiecewise_construct_t@1@$$QAV?$tuple@$$QAVName@Imf@@@1@$$QAV?$tuple@$$$V@1@@Z 100eb050 f i OpenExr:ImfChannelList.obj
 0001:000ea0a0       ??$_Buynode@ABV?$basic_string@DU?$char_traits@D@std@@V?$allocator@D@2@@std@@@?$_Tree_buy@V?$basic_string@DU?$char_traits@D@std@@V?$allocator@D@2@@std@@V?$allocator@V?$basic_string@DU?$char_traits@D@std@@V?$allocator@D@2@@std@@@2@@std@@QAEPAU?$_Tree_node@V?$basic_string@DU?$char_traits@D@std@@V?$allocator@D@2@@std@@PAX@1@ABV?$basic_string@DU?$char_traits@D@std@@V?$allocator@D@2@@1@@Z 100eb0a0 f i OpenExr:ImfChannelList.obj
 0001:000ea140       ??$_Insert_at@AAU?$pair@$$CBVName@Imf@@UChannel@2@@std@@PAU?$_Tree_node@U?$pair@$$CBVName@Imf@@UChannel@2@@std@@PAX@2@@?$_Tree@V?$_Tmap_traits@VName@Imf@@UChannel@2@U?$less@VName@Imf@@@std@@V?$allocator@U?$pair@$$CBVName@Imf@@UChannel@2@@std@@@5@$0A@@std@@@std@@IAE?AV?$_Tree_iterator@V?$_Tree_val@U?$_Tree_simple_types@U?$pair@$$CBVName@Imf@@UChannel@2@@std@@@std@@@std@@@1@_NPAU?$_Tree_node@U?$pair@$$CBVName@Imf@@UChannel@2@@std@@PAX@1@AAU?$pair@$$CBVName@Imf@@UChannel@2@@1@1@Z 100eb140 f i OpenExr:ImfChannelList.obj
 0001:000ea350       ??$_Insert_at@ABV?$basic_string@DU?$char_traits@D@std@@V?$allocator@D@2@@std@@U_Nil@2@@?$_Tree@V?$_Tset_traits@V?$basic_string@DU?$char_traits@D@std@@V?$allocator@D@2@@std@@U?$less@V?$basic_string@DU?$char_traits@D@std@@V?$allocator@D@2@@std@@@2@V?$allocator@V?$basic_string@DU?$char_traits@D@std@@V?$allocator@D@2@@std@@@2@$0A@@std@@@std@@IAE?AV?$_Tree_const_iterator@V?$_Tree_val@U?$_Tree_simple_types@V?$basic_string@DU?$char_traits@D@std@@V?$allocator@D@2@@std@@@std@@@std@@@1@_NPAU?$_Tree_node@V?$basic_string@DU?$char_traits@D@std@@V?$allocator@D@2@@std@@PAX@1@ABV?$basic_string@DU?$char_traits@D@std@@V?$allocator@D@2@@1@U_Nil@1@@Z 100eb350 f i OpenExr:ImfChannelList.obj
 0001:000ea550       ??$_Insert_hint@AAU?$pair@$$CBVName@Imf@@UChannel@2@@std@@PAU?$_Tree_node@U?$pair@$$CBVName@Imf@@UChannel@2@@std@@PAX@2@@?$_Tree@V?$_Tmap_traits@VName@Imf@@UChannel@2@U?$less@VName@Imf@@@std@@V?$allocator@U?$pair@$$CBVName@Imf@@UChannel@2@@std@@@5@$0A@@std@@@std@@IAE?AV?$_Tree_iterator@V?$_Tree_val@U?$_Tree_simple_types@U?$pair@$$CBVName@Imf@@UChannel@2@@std@@@std@@@std@@@1@V?$_Tree_const_iterator@V?$_Tree_val@U?$_Tree_simple_types@U?$pair@$$CBVName@Imf@@UChannel@2@@std@@@std@@@std@@@1@AAU?$pair@$$CBVName@Imf@@UChannel@2@@1@PAU?$_Tree_node@U?$pair@$$CBVName@Imf@@UChannel@2@@std@@PAX@1@@Z 100eb550 f i OpenExr:ImfChannelList.obj
 0001:000ea7b0       ??$_Insert_nohint@AAU?$pair@$$CBVName@Imf@@UChannel@2@@std@@PAU?$_Tree_node@U?$pair@$$CBVName@Imf@@UChannel@2@@std@@PAX@2@@?$_Tree@V?$_Tmap_traits@VName@Imf@@UChannel@2@U?$less@VName@Imf@@@std@@V?$allocator@U?$pair@$$CBVName@Imf@@UChannel@2@@std@@@5@$0A@@std@@@std@@IAE?AU?$pair@V?$_Tree_iterator@V?$_Tree_val@U?$_Tree_simple_types@U?$pair@$$CBVName@Imf@@UChannel@2@@std@@@std@@@std@@@std@@_N@1@_NAAU?$pair@$$CBVName@Imf@@UChannel@2@@1@PAU?$_Tree_node@U?$pair@$$CBVName@Imf@@UChannel@2@@std@@PAX@1@@Z 100eb7b0 f i OpenExr:ImfChannelList.obj
 0001:000ea950       ??$_Insert_nohint@ABV?$basic_string@DU?$char_traits@D@std@@V?$allocator@D@2@@std@@U_Nil@2@@?$_Tree@V?$_Tset_traits@V?$basic_string@DU?$char_traits@D@std@@V?$allocator@D@2@@std@@U?$less@V?$basic_string@DU?$char_traits@D@std@@V?$allocator@D@2@@std@@@2@V?$allocator@V?$basic_string@DU?$char_traits@D@std@@V?$allocator@D@2@@std@@@2@$0A@@std@@@std@@IAE?AU?$pair@V?$_Tree_const_iterator@V?$_Tree_val@U?$_Tree_simple_types@V?$basic_string@DU?$char_traits@D@std@@V?$allocator@D@2@@std@@@std@@@std@@@std@@_N@1@_NABV?$basic_string@DU?$char_traits@D@std@@V?$allocator@D@2@@1@U_Nil@1@@Z 100eb950 f i OpenExr:ImfChannelList.obj
 0001:000eabb0       ??A?$map@VName@Imf@@UChannel@2@U?$less@VName@Imf@@@std@@V?$allocator@U?$pair@$$CBVName@Imf@@UChannel@2@@std@@@5@@std@@QAEAAUChannel@Imf@@$$QAVName@3@@Z 100ebbb0 f i OpenExr:ImfChannelList.obj
 0001:000eac50       ??R?$less@V?$basic_string@DU?$char_traits@D@std@@V?$allocator@D@2@@std@@@std@@QBE_NABV?$basic_string@DU?$char_traits@D@std@@V?$allocator@D@2@@1@0@Z 100ebc50 f i OpenExr:ImfChannelList.obj
 0001:000eac80       ?_Buynode0@?$_Tree_buy@V?$basic_string@DU?$char_traits@D@std@@V?$allocator@D@2@@std@@V?$allocator@V?$basic_string@DU?$char_traits@D@std@@V?$allocator@D@2@@std@@@2@@std@@QAEPAU?$_Tree_node@V?$basic_string@DU?$char_traits@D@std@@V?$allocator@D@2@@std@@PAX@2@XZ 100ebc80 f i OpenExr:ImfChannelList.obj
 0001:000eacc0       ?_Erase@?$_Tree@V?$_Tset_traits@V?$basic_string@DU?$char_traits@D@std@@V?$allocator@D@2@@std@@U?$less@V?$basic_string@DU?$char_traits@D@std@@V?$allocator@D@2@@std@@@2@V?$allocator@V?$basic_string@DU?$char_traits@D@std@@V?$allocator@D@2@@std@@@2@$0A@@std@@@std@@IAEXPAU?$_Tree_node@V?$basic_string@DU?$char_traits@D@std@@V?$allocator@D@2@@std@@PAX@2@@Z 100ebcc0 f i OpenExr:ImfChannelList.obj
 0001:000eacc0       ?_Erase@?$_Tree@V?$_Tmap_traits@V?$basic_string@DU?$char_traits@D@std@@V?$allocator@D@2@@std@@UCscChannelSet@DwaCompressor@Imf@@U?$less@V?$basic_string@DU?$char_traits@D@std@@V?$allocator@D@2@@std@@@2@V?$allocator@U?$pair@$$CBV?$basic_string@DU?$char_traits@D@std@@V?$allocator@D@2@@std@@UCscChannelSet@DwaCompressor@Imf@@@std@@@2@$0A@@std@@@std@@IAEXPAU?$_Tree_node@U?$pair@$$CBV?$basic_string@DU?$char_traits@D@std@@V?$allocator@D@2@@std@@UCscChannelSet@DwaCompressor@Imf@@@std@@PAX@2@@Z 100ebcc0 f i OpenExr:ImfDwaCompressor.obj
 0001:000ead20       ?_Lbound@?$_Tree@V?$_Tmap_traits@VName@Imf@@PAVAttribute@2@U?$less@VName@Imf@@@std@@V?$allocator@U?$pair@$$CBVName@Imf@@PAVAttribute@2@@std@@@5@$0A@@std@@@std@@IBEPAU?$_Tree_node@U?$pair@$$CBVName@Imf@@PAVAttribute@2@@std@@PAX@2@ABVName@Imf@@@Z 100ebd20 f i OpenExr:ImfHeader.obj
 0001:000ead20       ?_Lbound@?$_Tree@V?$_Tmap_traits@VName@Imf@@UChannel@2@U?$less@VName@Imf@@@std@@V?$allocator@U?$pair@$$CBVName@Imf@@UChannel@2@@std@@@5@$0A@@std@@@std@@IAEPAU?$_Tree_node@U?$pair@$$CBVName@Imf@@UChannel@2@@std@@PAX@2@ABVName@Imf@@@Z 100ebd20 f i OpenExr:ImfChannelList.obj
 0001:000ead20       ?_Lbound@?$_Tree@V?$_Tmap_traits@VName@Imf@@PAVAttribute@2@U?$less@VName@Imf@@@std@@V?$allocator@U?$pair@$$CBVName@Imf@@PAVAttribute@2@@std@@@5@$0A@@std@@@std@@IAEPAU?$_Tree_node@U?$pair@$$CBVName@Imf@@PAVAttribute@2@@std@@PAX@2@ABVName@Imf@@@Z 100ebd20 f i OpenExr:ImfHeader.obj
 0001:000ead20       ?_Lbound@?$_Tree@V?$_Tmap_traits@VName@Imf@@USlice@2@U?$less@VName@Imf@@@std@@V?$allocator@U?$pair@$$CBVName@Imf@@USlice@2@@std@@@5@$0A@@std@@@std@@IAEPAU?$_Tree_node@U?$pair@$$CBVName@Imf@@USlice@2@@std@@PAX@2@ABVName@Imf@@@Z 100ebd20 f i OpenExr:ImfFrameBuffer.obj
 0001:000ead20       ?_Lbound@?$_Tree@V?$_Tmap_traits@VName@Imf@@USlice@2@U?$less@VName@Imf@@@std@@V?$allocator@U?$pair@$$CBVName@Imf@@USlice@2@@std@@@5@$0A@@std@@@std@@IBEPAU?$_Tree_node@U?$pair@$$CBVName@Imf@@USlice@2@@std@@PAX@2@ABVName@Imf@@@Z 100ebd20 f i OpenExr:ImfFrameBuffer.obj
 0001:000ead20       ?_Lbound@?$_Tree@V?$_Tmap_traits@VName@Imf@@UDeepSlice@2@U?$less@VName@Imf@@@std@@V?$allocator@U?$pair@$$CBVName@Imf@@UDeepSlice@2@@std@@@5@$0A@@std@@@std@@IAEPAU?$_Tree_node@U?$pair@$$CBVName@Imf@@UDeepSlice@2@@std@@PAX@2@ABVName@Imf@@@Z 100ebd20 f i OpenExr:ImfDeepFrameBuffer.obj
 0001:000ead20       ?_Lbound@?$_Tree@V?$_Tmap_traits@VName@Imf@@UChannel@2@U?$less@VName@Imf@@@std@@V?$allocator@U?$pair@$$CBVName@Imf@@UChannel@2@@std@@@5@$0A@@std@@@std@@IBEPAU?$_Tree_node@U?$pair@$$CBVName@Imf@@UChannel@2@@std@@PAX@2@ABVName@Imf@@@Z 100ebd20 f i OpenExr:ImfChannelList.obj
 0001:000ead20       ?_Lbound@?$_Tree@V?$_Tmap_traits@VName@Imf@@UDeepSlice@2@U?$less@VName@Imf@@@std@@V?$allocator@U?$pair@$$CBVName@Imf@@UDeepSlice@2@@std@@@5@$0A@@std@@@std@@IBEPAU?$_Tree_node@U?$pair@$$CBVName@Imf@@UDeepSlice@2@@std@@PAX@2@ABVName@Imf@@@Z 100ebd20 f i OpenExr:ImfDeepFrameBuffer.obj
 0001:000ead90       ?staticTypeName@?$TypedAttribute@VChannelList@Imf@@@Imf@@SAPBDXZ 100ebd90 f   OpenExr:ImfChannelListAttribute.obj
 0001:000eada0       ?writeValueTo@?$TypedAttribute@VChannelList@Imf@@@Imf@@UBEXAAVOStream@2@H@Z 100ebda0 f   OpenExr:ImfChannelListAttribute.obj
 0001:000eaf40       ?readValueFrom@?$TypedAttribute@VChannelList@Imf@@@Imf@@UAEXAAVIStream@2@HH@Z 100ebf40 f   OpenExr:ImfChannelListAttribute.obj
 0001:000eb0c0       ??$checkIsNullTerminated@$0BAA@@?A0x7c94dab0@Imf@@YAXAAY0BAA@$$CBDPBD@Z 100ec0c0 f i OpenExr:ImfChannelListAttribute.obj
 0001:000eb0c0       ??$checkIsNullTerminated@$0BAA@@?A0x95c1cadf@Imf@@YAXAAY0BAA@$$CBDPBD@Z 100ec0c0 f i OpenExr:ImfHeader.obj
 0001:000eb240       ??$skip@UStreamIO@Imf@@VIStream@2@@Xdr@Imf@@YAXAAVIStream@1@H@Z 100ec240 f i OpenExr:ImfChannelListAttribute.obj
 0001:000eb2b0       ??0Chromaticities@Imf@@QAE@ABV?$Vec2@M@Imath@@000@Z 100ec2b0 f   OpenExr:ImfChromaticities.obj
 0001:000eb300       ??8Chromaticities@Imf@@QBE_NABU01@@Z 100ec300 f   OpenExr:ImfChromaticities.obj
 0001:000eb370       ??9Chromaticities@Imf@@QBE_NABU01@@Z 100ec370 f   OpenExr:ImfChromaticities.obj
 0001:000eb3e0       ?RGBtoXYZ@Imf@@YA?AV?$Matrix44@M@Imath@@UChromaticities@1@M@Z 100ec3e0 f   OpenExr:ImfChromaticities.obj
 0001:000eb620       ?XYZtoRGB@Imf@@YA?AV?$Matrix44@M@Imath@@UChromaticities@1@M@Z 100ec620 f   OpenExr:ImfChromaticities.obj
 0001:000eb6c0       ??0SingMatrixExc@Imath@@QAE@ABV01@@Z 100ec6c0 f i OpenExr:ImfChromaticities.obj
 0001:000eb6e0       ?gjInverse@?$Matrix44@M@Imath@@QBE?AV12@_N@Z 100ec6e0 f i OpenExr:ImfChromaticities.obj
 0001:000ebc70       ?inverse@?$Matrix44@M@Imath@@QBE?AV12@_N@Z 100ecc70 f i OpenExr:ImfChromaticities.obj
 0001:000ec0c0       ?staticTypeName@?$TypedAttribute@UChromaticities@Imf@@@Imf@@SAPBDXZ 100ed0c0 f   OpenExr:ImfChromaticitiesAttribute.obj
 0001:000ec0d0       ?writeValueTo@?$TypedAttribute@UChromaticities@Imf@@@Imf@@UBEXAAVOStream@2@H@Z 100ed0d0 f   OpenExr:ImfChromaticitiesAttribute.obj
 0001:000ec280       ?readValueFrom@?$TypedAttribute@UChromaticities@Imf@@@Imf@@UAEXAAVIStream@2@HH@Z 100ed280 f   OpenExr:ImfChromaticitiesAttribute.obj
 0001:000ec460       ?staticTypeName@?$TypedAttribute@W4Compression@Imf@@@Imf@@SAPBDXZ 100ed460 f   OpenExr:ImfCompressionAttribute.obj
 0001:000ec470       ?writeValueTo@?$TypedAttribute@W4Compression@Imf@@@Imf@@UBEXAAVOStream@2@H@Z 100ed470 f   OpenExr:ImfCompressionAttribute.obj
 0001:000ec490       ?readValueFrom@?$TypedAttribute@W4Compression@Imf@@@Imf@@UAEXAAVIStream@2@HH@Z 100ed490 f   OpenExr:ImfCompressionAttribute.obj
 0001:000ec4b0       ?staticTypeName@?$TypedAttribute@W4DeepImageState@Imf@@@Imf@@SAPBDXZ 100ed4b0 f   OpenExr:ImfDeepImageStateAttribute.obj
 0001:000ec4c0       ?writeValueTo@?$TypedAttribute@W4DeepImageState@Imf@@@Imf@@UBEXAAVOStream@2@H@Z 100ed4c0 f   OpenExr:ImfDeepImageStateAttribute.obj
 0001:000ec4e0       ?readValueFrom@?$TypedAttribute@W4DeepImageState@Imf@@@Imf@@UAEXAAVIStream@2@HH@Z 100ed4e0 f   OpenExr:ImfDeepImageStateAttribute.obj
 0001:000ec500       ?staticTypeName@?$TypedAttribute@N@Imf@@SAPBDXZ 100ed500 f   OpenExr:ImfDoubleAttribute.obj
 0001:000ec510       ??0DwaCompressor@Imf@@QAE@ABVHeader@1@HHW4AcCompression@01@@Z 100ed510 f   OpenExr:ImfDwaCompressor.obj
 0001:000ec6a0       ??1DwaCompressor@Imf@@UAE@XZ 100ed6a0 f   OpenExr:ImfDwaCompressor.obj
 0001:000ec850       ?numScanLines@DwaCompressor@Imf@@UBEHXZ 100ed850 f   OpenExr:ImfDwaCompressor.obj
 0001:000ec860       ?format@DwaCompressor@Imf@@UBE?AW4Format@Compressor@2@XZ 100ed860 f   OpenExr:ImfDwaCompressor.obj
 0001:000ec870       ?compress@DwaCompressor@Imf@@UAEHPBDHHAAPBD@Z 100ed870 f   OpenExr:ImfDwaCompressor.obj
 0001:000ec8c0       ?compressTile@DwaCompressor@Imf@@UAEHPBDHV?$Box@V?$Vec2@H@Imath@@@Imath@@AAPBD@Z 100ed8c0 f   OpenExr:ImfDwaCompressor.obj
 0001:000ec900       ?uncompress@DwaCompressor@Imf@@UAEHPBDHHAAPBD@Z 100ed900 f   OpenExr:ImfDwaCompressor.obj
 0001:000ec950       ?uncompressTile@DwaCompressor@Imf@@UAEHPBDHV?$Box@V?$Vec2@H@Imath@@@Imath@@AAPBD@Z 100ed950 f   OpenExr:ImfDwaCompressor.obj
 0001:000ec990       ?initializeFuncs@DwaCompressor@Imf@@SAXXZ 100ed990 f   OpenExr:ImfDwaCompressor.obj
 0001:000ecae0       ?compress@DwaCompressor@Imf@@AAEHPBDHV?$Box@V?$Vec2@H@Imath@@@Imath@@AAPBD@Z 100edae0 f   OpenExr:ImfDwaCompressor.obj
 0001:000ee2c0       ?uncompress@DwaCompressor@Imf@@AAEHPBDHV?$Box@V?$Vec2@H@Imath@@@Imath@@AAPBD@Z 100ef2c0 f   OpenExr:ImfDwaCompressor.obj
 0001:000ef0b0       ?initializeBuffers@DwaCompressor@Imf@@AAEXAAI@Z 100f00b0 f   OpenExr:ImfDwaCompressor.obj
 0001:000ef730       ?initializeDefaultChannelRules@DwaCompressor@Imf@@AAEXXZ 100f0730 f   OpenExr:ImfDwaCompressor.obj
 0001:000efcc0       ?initializeLegacyChannelRules@DwaCompressor@Imf@@AAEXXZ 100f0cc0 f   OpenExr:ImfDwaCompressor.obj
 0001:000f0530       ?relevantChannelRules@DwaCompressor@Imf@@ABEXAAV?$vector@UClassifier@DwaCompressor@Imf@@V?$allocator@UClassifier@DwaCompressor@Imf@@@std@@@std@@@Z 100f1530 f   OpenExr:ImfDwaCompressor.obj
 0001:000f0840       ?classifyChannels@DwaCompressor@Imf@@AAEXVChannelList@2@AAV?$vector@UChannelData@DwaCompressor@Imf@@V?$allocator@UChannelData@DwaCompressor@Imf@@@std@@@std@@AAV?$vector@UCscChannelSet@DwaCompressor@Imf@@V?$allocator@UCscChannelSet@DwaCompressor@Imf@@@std@@@5@@Z 100f1840 f   OpenExr:ImfDwaCompressor.obj
 0001:000f1250       ?setupChannelData@DwaCompressor@Imf@@AAEXHHHH@Z 100f2250 f   OpenExr:ImfDwaCompressor.obj
 0001:000f13e0       ?csc709Inverse@?A0xc19972b6@Imf@@YAXAAM00@Z 100f23e0 f   OpenExr:ImfDwaCompressor.obj
 0001:000f1440       ?csc709Inverse64@?A0xc19972b6@Imf@@YAXPAM00@Z 100f2440 f   OpenExr:ImfDwaCompressor.obj
 0001:000f1880       ?csc709Forward64@?A0xc19972b6@Imf@@YAXPAM00@Z 100f2880 f   OpenExr:ImfDwaCompressor.obj
 0001:000f1940       ?interleaveByte2@?A0xc19972b6@Imf@@YAXPAD00H@Z 100f2940 f   OpenExr:ImfDwaCompressor.obj
 0001:000f1ba0       ?convertFloatToHalf64_scalar@?A0xc19972b6@Imf@@YAXPAGPAM@Z 100f2ba0 f   OpenExr:ImfDwaCompressor.obj
 0001:000f1c20       ?convertFloatToHalf64_f16c@?A0xc19972b6@Imf@@YAXPAGPAM@Z 100f2c20 f   OpenExr:ImfDwaCompressor.obj
 0001:000f1c30       ?fromHalfZigZag_scalar@?A0xc19972b6@Imf@@YAXPAGPAM@Z 100f2c30 f   OpenExr:ImfDwaCompressor.obj
 0001:000f2020       ?fromHalfZigZag_f16c@?A0xc19972b6@Imf@@YAXPAGPAM@Z 100f3020 f   OpenExr:ImfDwaCompressor.obj
 0001:000f2030       ?dctInverse8x8DcOnly@?A0xc19972b6@Imf@@YAXPAM@Z 100f3030 f   OpenExr:ImfDwaCompressor.obj
 0001:000f2070       ?dctForward8x8@?A0xc19972b6@Imf@@YAXPAM@Z 100f3070 f   OpenExr:ImfDwaCompressor.obj
 0001:000f23d0       ??0LossyDctDecoderBase@DwaCompressor@Imf@@QAE@PAD0PBGHH@Z 100f33d0 f   OpenExr:ImfDwaCompressor.obj
 0001:000f2470       ??1LossyDctDecoderBase@DwaCompressor@Imf@@UAE@XZ 100f3470 f   OpenExr:ImfDwaCompressor.obj
 0001:000f24f0       ?execute@LossyDctDecoderBase@DwaCompressor@Imf@@QAEXXZ 100f34f0 f   OpenExr:ImfDwaCompressor.obj
 0001:000f3120       ?unRleAc@LossyDctDecoderBase@DwaCompressor@Imf@@IAEHAAPAGPAG@Z 100f4120 f   OpenExr:ImfDwaCompressor.obj
 0001:000f3180       ??0LossyDctEncoderBase@DwaCompressor@Imf@@QAE@MPAD0PBGHH@Z 100f4180 f   OpenExr:ImfDwaCompressor.obj
 0001:000f3470       ??1LossyDctEncoderBase@DwaCompressor@Imf@@UAE@XZ 100f4470 f   OpenExr:ImfDwaCompressor.obj
 0001:000f34f0       ?execute@LossyDctEncoderBase@DwaCompressor@Imf@@QAEXXZ 100f44f0 f   OpenExr:ImfDwaCompressor.obj
 0001:000f3de0       ?toZigZag@LossyDctEncoderBase@DwaCompressor@Imf@@IAEXPAVhalf@@0@Z 100f4de0 f   OpenExr:ImfDwaCompressor.obj
 0001:000f3f50       ?countSetBits@LossyDctEncoderBase@DwaCompressor@Imf@@IAEHG@Z 100f4f50 f   OpenExr:ImfDwaCompressor.obj
 0001:000f3f80       ?quantize@LossyDctEncoderBase@DwaCompressor@Imf@@IAE?AVhalf@@V4@M@Z 100f4f80 f   OpenExr:ImfDwaCompressor.obj
 0001:000f4030       ?rleAc@LossyDctEncoderBase@DwaCompressor@Imf@@IAEXPAVhalf@@AAPAG@Z 100f5030 f   OpenExr:ImfDwaCompressor.obj
 0001:000f40d0       ??$dctInverse8x8_scalar@$0A@@?A0xc19972b6@Imf@@YAXPAM@Z 100f50d0 f i OpenExr:ImfDwaCompressor.obj
 0001:000f4530       ??$dctInverse8x8_scalar@$00@?A0xc19972b6@Imf@@YAXPAM@Z 100f5530 f i OpenExr:ImfDwaCompressor.obj
 0001:000f4990       ??$dctInverse8x8_scalar@$01@?A0xc19972b6@Imf@@YAXPAM@Z 100f5990 f i OpenExr:ImfDwaCompressor.obj
 0001:000f4df0       ??$dctInverse8x8_scalar@$02@?A0xc19972b6@Imf@@YAXPAM@Z 100f5df0 f i OpenExr:ImfDwaCompressor.obj
 0001:000f5250       ??$dctInverse8x8_scalar@$03@?A0xc19972b6@Imf@@YAXPAM@Z 100f6250 f i OpenExr:ImfDwaCompressor.obj
 0001:000f56b0       ??$dctInverse8x8_scalar@$04@?A0xc19972b6@Imf@@YAXPAM@Z 100f66b0 f i OpenExr:ImfDwaCompressor.obj
 0001:000f5b10       ??$dctInverse8x8_scalar@$05@?A0xc19972b6@Imf@@YAXPAM@Z 100f6b10 f i OpenExr:ImfDwaCompressor.obj
 0001:000f5f70       ??$dctInverse8x8_scalar@$06@?A0xc19972b6@Imf@@YAXPAM@Z 100f6f70 f i OpenExr:ImfDwaCompressor.obj
 0001:000f63b0       ??$_Buynode@ABUpiecewise_construct_t@std@@V?$tuple@ABV?$basic_string@DU?$char_traits@D@std@@V?$allocator@D@2@@std@@@2@V?$tuple@$$$V@2@@?$_Tree_buy@U?$pair@$$CBV?$basic_string@DU?$char_traits@D@std@@V?$allocator@D@2@@std@@UCscChannelSet@DwaCompressor@Imf@@@std@@V?$allocator@U?$pair@$$CBV?$basic_string@DU?$char_traits@D@std@@V?$allocator@D@2@@std@@UCscChannelSet@DwaCompressor@Imf@@@std@@@2@@std@@QAEPAU?$_Tree_node@U?$pair@$$CBV?$basic_string@DU?$char_traits@D@std@@V?$allocator@D@2@@std@@UCscChannelSet@DwaCompressor@Imf@@@std@@PAX@1@ABUpiecewise_construct_t@1@$$QAV?$tuple@ABV?$basic_string@DU?$char_traits@D@std@@V?$allocator@D@2@@std@@@1@$$QAV?$tuple@$$$V@1@@Z 100f73b0 f i OpenExr:ImfDwaCompressor.obj
 0001:000f6460       ??$_Insert_at@AAU?$pair@$$CBV?$basic_string@DU?$char_traits@D@std@@V?$allocator@D@2@@std@@UCscChannelSet@DwaCompressor@Imf@@@std@@PAU?$_Tree_node@U?$pair@$$CBV?$basic_string@DU?$char_traits@D@std@@V?$allocator@D@2@@std@@UCscChannelSet@DwaCompressor@Imf@@@std@@PAX@2@@?$_Tree@V?$_Tmap_traits@V?$basic_string@DU?$char_traits@D@std@@V?$allocator@D@2@@std@@UCscChannelSet@DwaCompressor@Imf@@U?$less@V?$basic_string@DU?$char_traits@D@std@@V?$allocator@D@2@@std@@@2@V?$allocator@U?$pair@$$CBV?$basic_string@DU?$char_traits@D@std@@V?$allocator@D@2@@std@@UCscChannelSet@DwaCompressor@Imf@@@std@@@2@$0A@@std@@@std@@IAE?AV?$_Tree_iterator@V?$_Tree_val@U?$_Tree_simple_types@U?$pair@$$CBV?$basic_string@DU?$char_traits@D@std@@V?$allocator@D@2@@std@@UCscChannelSet@DwaCompressor@Imf@@@std@@@std@@@std@@@1@_NPAU?$_Tree_node@U?$pair@$$CBV?$basic_string@DU?$char_traits@D@std@@V?$allocator@D@2@@std@@UCscChannelSet@DwaCompressor@Imf@@@std@@PAX@1@AAU?$pair@$$CBV?$basic_string@DU?$char_traits@D@std@@V?$allocator@D@2@@std@@UCscChannelSet@DwaCompressor@Imf@@@1@1@Z 100f7460 f i OpenExr:ImfDwaCompressor.obj
 0001:000f6690       ??$_Insert_hint@AAU?$pair@$$CBV?$basic_string@DU?$char_traits@D@std@@V?$allocator@D@2@@std@@UCscChannelSet@DwaCompressor@Imf@@@std@@PAU?$_Tree_node@U?$pair@$$CBV?$basic_string@DU?$char_traits@D@std@@V?$allocator@D@2@@std@@UCscChannelSet@DwaCompressor@Imf@@@std@@PAX@2@@?$_Tree@V?$_Tmap_traits@V?$basic_string@DU?$char_traits@D@std@@V?$allocator@D@2@@std@@UCscChannelSet@DwaCompressor@Imf@@U?$less@V?$basic_string@DU?$char_traits@D@std@@V?$allocator@D@2@@std@@@2@V?$allocator@U?$pair@$$CBV?$basic_string@DU?$char_traits@D@std@@V?$allocator@D@2@@std@@UCscChannelSet@DwaCompressor@Imf@@@std@@@2@$0A@@std@@@std@@IAE?AV?$_Tree_iterator@V?$_Tree_val@U?$_Tree_simple_types@U?$pair@$$CBV?$basic_string@DU?$char_traits@D@std@@V?$allocator@D@2@@std@@UCscChannelSet@DwaCompressor@Imf@@@std@@@std@@@std@@@1@V?$_Tree_const_iterator@V?$_Tree_val@U?$_Tree_simple_types@U?$pair@$$CBV?$basic_string@DU?$char_traits@D@std@@V?$allocator@D@2@@std@@UCscChannelSet@DwaCompressor@Imf@@@std@@@std@@@std@@@1@AAU?$pair@$$CBV?$basic_string@DU?$char_traits@D@std@@V?$allocator@D@2@@std@@UCscChannelSet@DwaCompressor@Imf@@@1@PAU?$_Tree_node@U?$pair@$$CBV?$basic_string@DU?$char_traits@D@std@@V?$allocator@D@2@@std@@UCscChannelSet@DwaCompressor@Imf@@@std@@PAX@1@@Z 100f7690 f i OpenExr:ImfDwaCompressor.obj
 0001:000f6880       ??$_Insert_nohint@AAU?$pair@$$CBV?$basic_string@DU?$char_traits@D@std@@V?$allocator@D@2@@std@@UCscChannelSet@DwaCompressor@Imf@@@std@@PAU?$_Tree_node@U?$pair@$$CBV?$basic_string@DU?$char_traits@D@std@@V?$allocator@D@2@@std@@UCscChannelSet@DwaCompressor@Imf@@@std@@PAX@2@@?$_Tree@V?$_Tmap_traits@V?$basic_string@DU?$char_traits@D@std@@V?$allocator@D@2@@std@@UCscChannelSet@DwaCompressor@Imf@@U?$less@V?$basic_string@DU?$char_traits@D@std@@V?$allocator@D@2@@std@@@2@V?$allocator@U?$pair@$$CBV?$basic_string@DU?$char_traits@D@std@@V?$allocator@D@2@@std@@UCscChannelSet@DwaCompressor@Imf@@@std@@@2@$0A@@std@@@std@@IAE?AU?$pair@V?$_Tree_iterator@V?$_Tree_val@U?$_Tree_simple_types@U?$pair@$$CBV?$basic_string@DU?$char_traits@D@std@@V?$allocator@D@2@@std@@UCscChannelSet@DwaCompressor@Imf@@@std@@@std@@@std@@@std@@_N@1@_NAAU?$pair@$$CBV?$basic_string@DU?$char_traits@D@std@@V?$allocator@D@2@@std@@UCscChannelSet@DwaCompressor@Imf@@@1@PAU?$_Tree_node@U?$pair@$$CBV?$basic_string@DU?$char_traits@D@std@@V?$allocator@D@2@@std@@UCscChannelSet@DwaCompressor@Imf@@@std@@PAX@1@@Z 100f7880 f i OpenExr:ImfDwaCompressor.obj
 0001:000f6b10       ??$_Transform@PADV?$_String_iterator@V?$_String_val@U?$_Simple_types@D@std@@@std@@@std@@P6AHH@Z@std@@YA?AV?$_String_iterator@V?$_String_val@U?$_Simple_types@D@std@@@std@@@0@PAD0V10@P6AHH@Z@Z 100f7b10 f i OpenExr:ImfDwaCompressor.obj
 0001:000f6b70       ??$_Uninit_def_fill_n@PAUChannelData@DwaCompressor@Imf@@IV?$allocator@UChannelData@DwaCompressor@Imf@@@std@@U123@@std@@YAXPAUChannelData@DwaCompressor@Imf@@IAAU?$_Wrap_alloc@V?$allocator@UChannelData@DwaCompressor@Imf@@@std@@@0@0U_Nonscalar_ptr_iterator_tag@0@@Z 100f7b70 f i OpenExr:ImfDwaCompressor.obj
 0001:000f6ba0       ??$_Uninit_def_fill_n@PAUCscChannelSet@DwaCompressor@Imf@@IV?$allocator@UCscChannelSet@DwaCompressor@Imf@@@std@@U123@@std@@YAXPAUCscChannelSet@DwaCompressor@Imf@@IAAU?$_Wrap_alloc@V?$allocator@UCscChannelSet@DwaCompressor@Imf@@@std@@@0@0U_Nonscalar_ptr_iterator_tag@0@@Z 100f7ba0 f i OpenExr:ImfDwaCompressor.obj
 0001:000f6bd0       ??$_Uninit_def_fill_n@PAV?$SimdAlignedBuffer64@G@Imf@@IV?$allocator@V?$SimdAlignedBuffer64@G@Imf@@@std@@V12@@std@@YAXPAV?$SimdAlignedBuffer64@G@Imf@@IAAU?$_Wrap_alloc@V?$allocator@V?$SimdAlignedBuffer64@G@Imf@@@std@@@0@0U_Nonscalar_ptr_iterator_tag@0@@Z 100f7bd0 f i OpenExr:ImfDwaCompressor.obj
 0001:000f6c40       ??$_Uninit_def_fill_n@PAV?$SimdAlignedBuffer64@M@Imf@@IV?$allocator@V?$SimdAlignedBuffer64@M@Imf@@@std@@V12@@std@@YAXPAV?$SimdAlignedBuffer64@M@Imf@@IAAU?$_Wrap_alloc@V?$allocator@V?$SimdAlignedBuffer64@M@Imf@@@std@@@0@0U_Nonscalar_ptr_iterator_tag@0@@Z 100f7c40 f i OpenExr:ImfDwaCompressor.obj
 0001:000f6cb0       ??$_Uninit_def_fill_n@PAV?$vector@V?$vector@PAMV?$allocator@PAM@std@@@std@@V?$allocator@V?$vector@PAMV?$allocator@PAM@std@@@std@@@2@@std@@IV?$allocator@V?$vector@V?$vector@PAMV?$allocator@PAM@std@@@std@@V?$allocator@V?$vector@PAMV?$allocator@PAM@std@@@std@@@2@@std@@@2@V12@@std@@YAXPAV?$vector@V?$vector@PAMV?$allocator@PAM@std@@@std@@V?$allocator@V?$vector@PAMV?$allocator@PAM@std@@@std@@@2@@0@IAAU?$_Wrap_alloc@V?$allocator@V?$vector@V?$vector@PAMV?$allocator@PAM@std@@@std@@V?$allocator@V?$vector@PAMV?$allocator@PAM@std@@@std@@@2@@std@@@std@@@0@0U_Nonscalar_ptr_iterator_tag@0@@Z 100f7cb0 f i OpenExr:ImfCompositeDeepScanLine.obj
 0001:000f6cb0       ??$_Uninit_def_fill_n@PAV?$vector@MV?$allocator@M@std@@@std@@IV?$allocator@V?$vector@MV?$allocator@M@std@@@std@@@2@V12@@std@@YAXPAV?$vector@MV?$allocator@M@std@@@0@IAAU?$_Wrap_alloc@V?$allocator@V?$vector@MV?$allocator@M@std@@@std@@@std@@@0@0U_Nonscalar_ptr_iterator_tag@0@@Z 100f7cb0 f i OpenExr:ImfCompositeDeepScanLine.obj
 0001:000f6cb0       ??$_Uninit_def_fill_n@PAV?$vector@PADV?$allocator@PAD@std@@@std@@IV?$allocator@V?$vector@PADV?$allocator@PAD@std@@@std@@@2@V12@@std@@YAXPAV?$vector@PADV?$allocator@PAD@std@@@0@IAAU?$_Wrap_alloc@V?$allocator@V?$vector@PADV?$allocator@PAD@std@@@std@@@std@@@0@0U_Nonscalar_ptr_iterator_tag@0@@Z 100f7cb0 f i OpenExr:ImfDwaCompressor.obj
 0001:000f6cb0       ??$_Uninit_def_fill_n@PAV?$vector@_KV?$allocator@_K@std@@@std@@IV?$allocator@V?$vector@_KV?$allocator@_K@std@@@std@@@2@V12@@std@@YAXPAV?$vector@_KV?$allocator@_K@std@@@0@IAAU?$_Wrap_alloc@V?$allocator@V?$vector@_KV?$allocator@_K@std@@@std@@@std@@@0@0U_Nonscalar_ptr_iterator_tag@0@@Z 100f7cb0 f i OpenExr:ImfTileOffsets.obj
 0001:000f6cb0       ??$_Uninit_def_fill_n@PAV?$vector@IV?$allocator@I@std@@@std@@IV?$allocator@V?$vector@IV?$allocator@I@std@@@std@@@2@V12@@std@@YAXPAV?$vector@IV?$allocator@I@std@@@0@IAAU?$_Wrap_alloc@V?$allocator@V?$vector@IV?$allocator@I@std@@@std@@@std@@@0@0U_Nonscalar_ptr_iterator_tag@0@@Z 100f7cb0 f i OpenExr:ImfCompositeDeepScanLine.obj
 0001:000f6cb0       ??$_Uninit_def_fill_n@PAV?$vector@V?$vector@_KV?$allocator@_K@std@@@std@@V?$allocator@V?$vector@_KV?$allocator@_K@std@@@std@@@2@@std@@IV?$allocator@V?$vector@V?$vector@_KV?$allocator@_K@std@@@std@@V?$allocator@V?$vector@_KV?$allocator@_K@std@@@std@@@2@@std@@@2@V12@@std@@YAXPAV?$vector@V?$vector@_KV?$allocator@_K@std@@@std@@V?$allocator@V?$vector@_KV?$allocator@_K@std@@@std@@@2@@0@IAAU?$_Wrap_alloc@V?$allocator@V?$vector@V?$vector@_KV?$allocator@_K@std@@@std@@V?$allocator@V?$vector@_KV?$allocator@_K@std@@@std@@@2@@std@@@std@@@0@0U_Nonscalar_ptr_iterator_tag@0@@Z 100f7cb0 f i OpenExr:ImfTileOffsets.obj
 0001:000f6cb0       ??$_Uninit_def_fill_n@PAV?$vector@PAMV?$allocator@PAM@std@@@std@@IV?$allocator@V?$vector@PAMV?$allocator@PAM@std@@@std@@@2@V12@@std@@YAXPAV?$vector@PAMV?$allocator@PAM@std@@@0@IAAU?$_Wrap_alloc@V?$allocator@V?$vector@PAMV?$allocator@PAM@std@@@std@@@std@@@0@0U_Nonscalar_ptr_iterator_tag@0@@Z 100f7cb0 f i OpenExr:ImfCompositeDeepScanLine.obj
 0001:000f6cb0       ??$_Uninit_def_fill_n@PAV?$vector@PBDV?$allocator@PBD@std@@@std@@IV?$allocator@V?$vector@PBDV?$allocator@PBD@std@@@std@@@2@V12@@std@@YAXPAV?$vector@PBDV?$allocator@PBD@std@@@0@IAAU?$_Wrap_alloc@V?$allocator@V?$vector@PBDV?$allocator@PBD@std@@@std@@@std@@@0@0U_Nonscalar_ptr_iterator_tag@0@@Z 100f7cb0 f i OpenExr:ImfDwaCompressor.obj
 0001:000f6ce0       ??$_Uninit_move@PAUChannelData@DwaCompressor@Imf@@PAU123@V?$allocator@UChannelData@DwaCompressor@Imf@@@std@@U123@@std@@YAPAUChannelData@DwaCompressor@Imf@@PAU123@00AAU?$_Wrap_alloc@V?$allocator@UChannelData@DwaCompressor@Imf@@@std@@@0@0U_Nonscalar_ptr_iterator_tag@0@@Z 100f7ce0 f i OpenExr:ImfDwaCompressor.obj
 0001:000f6d80       ??$_Uninit_move@PAUClassifier@DwaCompressor@Imf@@PAU123@V?$allocator@UClassifier@DwaCompressor@Imf@@@std@@U123@@std@@YAPAUClassifier@DwaCompressor@Imf@@PAU123@00AAU?$_Wrap_alloc@V?$allocator@UClassifier@DwaCompressor@Imf@@@std@@@0@0U_Nonscalar_ptr_iterator_tag@0@@Z 100f7d80 f i OpenExr:ImfDwaCompressor.obj
 0001:000f6e50       ??$_Uninit_move@PAUCscChannelSet@DwaCompressor@Imf@@PAU123@V?$allocator@UCscChannelSet@DwaCompressor@Imf@@@std@@U123@@std@@YAPAUCscChannelSet@DwaCompressor@Imf@@PAU123@00AAU?$_Wrap_alloc@V?$allocator@UCscChannelSet@DwaCompressor@Imf@@@std@@@0@0U_Nonscalar_ptr_iterator_tag@0@@Z 100f7e50 f i OpenExr:ImfDwaCompressor.obj
 0001:000f6e50       ??$_Uninit_move@PAVUTXPALETTE@@PAV1@V?$allocator@VUTXPALETTE@@@std@@V1@@std@@YAPAVUTXPALETTE@@PAV1@00AAU?$_Wrap_alloc@V?$allocator@VUTXPALETTE@@@std@@@0@0U_Nonscalar_ptr_iterator_tag@0@@Z 100f7e50 f i il_utx.obj
 0001:000f6e80       ??$_Uninit_move@PAV?$SimdAlignedBuffer64@M@Imf@@PAV12@V?$allocator@V?$SimdAlignedBuffer64@M@Imf@@@std@@V12@@std@@YAPAV?$SimdAlignedBuffer64@M@Imf@@PAV12@00AAU?$_Wrap_alloc@V?$allocator@V?$SimdAlignedBuffer64@M@Imf@@@std@@@0@0U_Nonscalar_ptr_iterator_tag@0@@Z 100f7e80 f i OpenExr:ImfDwaCompressor.obj
 0001:000f6f10       ??$_Uninit_move@PAV?$basic_string@DU?$char_traits@D@std@@V?$allocator@D@2@@std@@PAV12@V?$allocator@V?$basic_string@DU?$char_traits@D@std@@V?$allocator@D@2@@std@@@2@V12@@std@@YAPAV?$basic_string@DU?$char_traits@D@std@@V?$allocator@D@2@@0@PAV10@00AAU?$_Wrap_alloc@V?$allocator@V?$basic_string@DU?$char_traits@D@std@@V?$allocator@D@2@@std@@@std@@@0@0U_Nonscalar_ptr_iterator_tag@0@@Z 100f7f10 f i OpenExr:ImfDwaCompressor.obj
 0001:000f6fa0       ??$_Uninit_move@PAV?$vector@V?$vector@_KV?$allocator@_K@std@@@std@@V?$allocator@V?$vector@_KV?$allocator@_K@std@@@std@@@2@@std@@PAV12@V?$allocator@V?$vector@V?$vector@_KV?$allocator@_K@std@@@std@@V?$allocator@V?$vector@_KV?$allocator@_K@std@@@std@@@2@@std@@@2@V12@@std@@YAPAV?$vector@V?$vector@_KV?$allocator@_K@std@@@std@@V?$allocator@V?$vector@_KV?$allocator@_K@std@@@std@@@2@@0@PAV10@00AAU?$_Wrap_alloc@V?$allocator@V?$vector@V?$vector@_KV?$allocator@_K@std@@@std@@V?$allocator@V?$vector@_KV?$allocator@_K@std@@@std@@@2@@std@@@std@@@0@0U_Nonscalar_ptr_iterator_tag@0@@Z 100f7fa0 f i OpenExr:ImfTileOffsets.obj
 0001:000f6fa0       ??$_Uninit_move@PAV?$vector@PADV?$allocator@PAD@std@@@std@@PAV12@V?$allocator@V?$vector@PADV?$allocator@PAD@std@@@std@@@2@V12@@std@@YAPAV?$vector@PADV?$allocator@PAD@std@@@0@PAV10@00AAU?$_Wrap_alloc@V?$allocator@V?$vector@PADV?$allocator@PAD@std@@@std@@@std@@@0@0U_Nonscalar_ptr_iterator_tag@0@@Z 100f7fa0 f i OpenExr:ImfDwaCompressor.obj
 0001:000f6fa0       ??$_Uninit_move@PAV?$vector@PAMV?$allocator@PAM@std@@@std@@PAV12@V?$allocator@V?$vector@PAMV?$allocator@PAM@std@@@std@@@2@V12@@std@@YAPAV?$vector@PAMV?$allocator@PAM@std@@@0@PAV10@00AAU?$_Wrap_alloc@V?$allocator@V?$vector@PAMV?$allocator@PAM@std@@@std@@@std@@@0@0U_Nonscalar_ptr_iterator_tag@0@@Z 100f7fa0 f i OpenExr:ImfCompositeDeepScanLine.obj
 0001:000f6fa0       ??$_Uninit_move@PAV?$vector@_KV?$allocator@_K@std@@@std@@PAV12@V?$allocator@V?$vector@_KV?$allocator@_K@std@@@std@@@2@V12@@std@@YAPAV?$vector@_KV?$allocator@_K@std@@@0@PAV10@00AAU?$_Wrap_alloc@V?$allocator@V?$vector@_KV?$allocator@_K@std@@@std@@@std@@@0@0U_Nonscalar_ptr_iterator_tag@0@@Z 100f7fa0 f i OpenExr:ImfTileOffsets.obj
 0001:000f6fa0       ??$_Uninit_move@PAV?$vector@PBDV?$allocator@PBD@std@@@std@@PAV12@V?$allocator@V?$vector@PBDV?$allocator@PBD@std@@@std@@@2@V12@@std@@YAPAV?$vector@PBDV?$allocator@PBD@std@@@0@PAV10@00AAU?$_Wrap_alloc@V?$allocator@V?$vector@PBDV?$allocator@PBD@std@@@std@@@std@@@0@0U_Nonscalar_ptr_iterator_tag@0@@Z 100f7fa0 f i OpenExr:ImfDwaCompressor.obj
 0001:000f7000       ??$dctInverse8x8_avx@$00@?A0xc19972b6@Imf@@YAXPAM@Z 100f8000 f i OpenExr:ImfDwaCompressor.obj
 0001:000f7010       ??$dctInverse8x8_avx@$01@?A0xc19972b6@Imf@@YAXPAM@Z 100f8010 f i OpenExr:ImfDwaCompressor.obj
 0001:000f7020       ??$dctInverse8x8_avx@$02@?A0xc19972b6@Imf@@YAXPAM@Z 100f8020 f i OpenExr:ImfDwaCompressor.obj
 0001:000f7030       ??$dctInverse8x8_avx@$03@?A0xc19972b6@Imf@@YAXPAM@Z 100f8030 f i OpenExr:ImfDwaCompressor.obj
 0001:000f7040       ??$dctInverse8x8_avx@$04@?A0xc19972b6@Imf@@YAXPAM@Z 100f8040 f i OpenExr:ImfDwaCompressor.obj
 0001:000f7050       ??$dctInverse8x8_avx@$05@?A0xc19972b6@Imf@@YAXPAM@Z 100f8050 f i OpenExr:ImfDwaCompressor.obj
 0001:000f7060       ??$dctInverse8x8_avx@$06@?A0xc19972b6@Imf@@YAXPAM@Z 100f8060 f i OpenExr:ImfDwaCompressor.obj
 0001:000f7070       ??$dctInverse8x8_avx@$0A@@?A0xc19972b6@Imf@@YAXPAM@Z 100f8070 f i OpenExr:ImfDwaCompressor.obj
 0001:000f7080       ??$dctInverse8x8_sse2@$00@?A0xc19972b6@Imf@@YAXPAM@Z 100f8080 f i OpenExr:ImfDwaCompressor.obj
 0001:000f7750       ??$dctInverse8x8_sse2@$01@?A0xc19972b6@Imf@@YAXPAM@Z 100f8750 f i OpenExr:ImfDwaCompressor.obj
 0001:000f7d60       ??$dctInverse8x8_sse2@$02@?A0xc19972b6@Imf@@YAXPAM@Z 100f8d60 f i OpenExr:ImfDwaCompressor.obj
 0001:000f82c0       ??$dctInverse8x8_sse2@$03@?A0xc19972b6@Imf@@YAXPAM@Z 100f92c0 f i OpenExr:ImfDwaCompressor.obj
 0001:000f8760       ??$dctInverse8x8_sse2@$04@?A0xc19972b6@Imf@@YAXPAM@Z 100f9760 f i OpenExr:ImfDwaCompressor.obj
 0001:000f8b60       ??$dctInverse8x8_sse2@$05@?A0xc19972b6@Imf@@YAXPAM@Z 100f9b60 f i OpenExr:ImfDwaCompressor.obj
 0001:000f8eb0       ??$dctInverse8x8_sse2@$06@?A0xc19972b6@Imf@@YAXPAM@Z 100f9eb0 f i OpenExr:ImfDwaCompressor.obj
 0001:000f9150       ??$dctInverse8x8_sse2@$0A@@?A0xc19972b6@Imf@@YAXPAM@Z 100fa150 f i OpenExr:ImfDwaCompressor.obj
 0001:000f98e0       ??$destroy@V?$basic_string@DU?$char_traits@D@std@@V?$allocator@D@2@@std@@@?$_Wrap_alloc@V?$allocator@V?$basic_string@DU?$char_traits@D@std@@V?$allocator@D@2@@std@@@std@@@std@@QAEXPAV?$basic_string@DU?$char_traits@D@std@@V?$allocator@D@2@@1@@Z 100fa8e0 f i OpenExr:ImfHeader.obj
 0001:000f98e0       ??$destroy@UChannelData@DwaCompressor@Imf@@@?$_Wrap_alloc@V?$allocator@UChannelData@DwaCompressor@Imf@@@std@@@std@@QAEXPAUChannelData@DwaCompressor@Imf@@@Z 100fa8e0 f i OpenExr:ImfDwaCompressor.obj
 0001:000f98e0       ??$destroy@UUTXENTRYNAME@@@?$_Wrap_alloc@V?$allocator@UUTXENTRYNAME@@@std@@@std@@QAEXPAUUTXENTRYNAME@@@Z 100fa8e0 f i il_utx.obj
 0001:000f98e0       ??$destroy@UClassifier@DwaCompressor@Imf@@@?$_Wrap_alloc@V?$allocator@UClassifier@DwaCompressor@Imf@@@std@@@std@@QAEXPAUClassifier@DwaCompressor@Imf@@@Z 100fa8e0 f i OpenExr:ImfDwaCompressor.obj
 0001:000f9910       ??$read@UCharPtrIO@Imf@@PBD@Xdr@Imf@@YAXAAPBDAAG@Z 100fa910 f i OpenExr:ImfDwaCompressor.obj
 0001:000f9910       ??$read@UCharPtrIO@Imf@@PBD@Xdr@Imf@@YAXAAPBDAAVhalf@@@Z 100fa910 f i OpenExr:ImfDwaCompressor.obj
 0001:000f9950       ??$read@UCharPtrIO@Imf@@PBD@Xdr@Imf@@YAXAAPBDAA_K@Z 100fa950 f i OpenExr:ImfDwaCompressor.obj
 0001:000f9a20       ??0?$_Tree@V?$_Tmap_traits@VName@Imf@@UChannel@2@U?$less@VName@Imf@@@std@@V?$allocator@U?$pair@$$CBVName@Imf@@UChannel@2@@std@@@5@$0A@@std@@@std@@QAE@ABV01@ABV?$allocator@U?$pair@$$CBVName@Imf@@UChannel@2@@std@@@1@@Z 100faa20 f i OpenExr:ImfDwaCompressor.obj
 0001:000f9ac0       ??0?$vector@GV?$allocator@G@std@@@std@@QAE@I@Z 100faac0 f i OpenExr:ImfDwaCompressor.obj
 0001:000f9b10       ??0?$vector@PADV?$allocator@PAD@std@@@std@@QAE@ABV01@@Z 100fab10 f i OpenExr:ImfDwaCompressor.obj
 0001:000f9b10       ??0?$vector@PBDV?$allocator@PBD@std@@@std@@QAE@ABV01@@Z 100fab10 f i OpenExr:ImfDwaCompressor.obj
 0001:000f9b70       ??0?$vector@V?$SimdAlignedBuffer64@G@Imf@@V?$allocator@V?$SimdAlignedBuffer64@G@Imf@@@std@@@std@@QAE@I@Z 100fab70 f i OpenExr:ImfDwaCompressor.obj
 0001:000f9c10       ??0?$vector@V?$vector@PADV?$allocator@PAD@std@@@std@@V?$allocator@V?$vector@PADV?$allocator@PAD@std@@@std@@@2@@std@@QAE@I@Z 100fac10 f i OpenExr:ImfDwaCompressor.obj
 0001:000f9c10       ??0?$vector@V?$vector@PBDV?$allocator@PBD@std@@@std@@V?$allocator@V?$vector@PBDV?$allocator@PBD@std@@@std@@@2@@std@@QAE@I@Z 100fac10 f i OpenExr:ImfDwaCompressor.obj
 0001:000f9c10       ??0?$vector@V?$vector@IV?$allocator@I@std@@@std@@V?$allocator@V?$vector@IV?$allocator@I@std@@@std@@@2@@std@@QAE@I@Z 100fac10 f i OpenExr:ImfCompositeDeepScanLine.obj
 0001:000f9c10       ??0?$vector@V?$vector@MV?$allocator@M@std@@@std@@V?$allocator@V?$vector@MV?$allocator@M@std@@@std@@@2@@std@@QAE@I@Z 100fac10 f i OpenExr:ImfCompositeDeepScanLine.obj
 0001:000f9cb0       ??0?$vector@_NV?$allocator@_N@std@@@std@@QAE@IAB_N@Z 100facb0 f i OpenExr:ImfDwaCompressor.obj
 0001:000f9d40       ??0ChannelData@DwaCompressor@Imf@@QAE@ABU012@@Z 100fad40 f i OpenExr:ImfDwaCompressor.obj
 0001:000f9dd0       ??0Classifier@DwaCompressor@Imf@@QAE@AAPBDH@Z 100fadd0 f i OpenExr:ImfDwaCompressor.obj
 0001:000fa060       ??0Classifier@DwaCompressor@Imf@@QAE@V?$basic_string@DU?$char_traits@D@std@@V?$allocator@D@2@@std@@W4CompressorScheme@12@W4PixelType@2@H_N@Z 100fb060 f i OpenExr:ImfDwaCompressor.obj
 0001:000fa140       ??0LossyDctDecoder@DwaCompressor@Imf@@QAE@AAV?$vector@PADV?$allocator@PAD@std@@@std@@PAD1PBGHHW4PixelType@2@@Z 100fb140 f i OpenExr:ImfDwaCompressor.obj
 0001:000fa1c0       ??0LossyDctDecoderCsc@DwaCompressor@Imf@@QAE@AAV?$vector@PADV?$allocator@PAD@std@@@std@@00PAD1PBGHHW4PixelType@2@33@Z 100fb1c0 f i OpenExr:ImfDwaCompressor.obj
 0001:000fa270       ??0NoImplExc@Iex@@QAE@ABV01@@Z 100fb270 f i OpenExr:ImfDwaCompressor.obj
 0001:000fa290       ?_Tidy@?$vector@UChannelData@DwaCompressor@Imf@@V?$allocator@UChannelData@DwaCompressor@Imf@@@std@@@std@@IAEXXZ 100fb290 f i OpenExr:ImfDwaCompressor.obj
 0001:000fa290       ??1?$vector@UChannelData@DwaCompressor@Imf@@V?$allocator@UChannelData@DwaCompressor@Imf@@@std@@@std@@QAE@XZ 100fb290 f i OpenExr:ImfDwaCompressor.obj
 0001:000fa2d0       ??1?$vector@UClassifier@DwaCompressor@Imf@@V?$allocator@UClassifier@DwaCompressor@Imf@@@std@@@std@@QAE@XZ 100fb2d0 f i OpenExr:ImfDwaCompressor.obj
 0001:000fa310       ??1?$vector@V?$SimdAlignedBuffer64@G@Imf@@V?$allocator@V?$SimdAlignedBuffer64@G@Imf@@@std@@@std@@QAE@XZ 100fb310 f i OpenExr:ImfDwaCompressor.obj
 0001:000fa320       ??1?$vector@_NV?$allocator@_N@std@@@std@@QAE@XZ 100fb320 f i OpenExr:ImfDwaCompressor.obj
 0001:000fa350       ??1Classifier@DwaCompressor@Imf@@QAE@XZ 100fb350 f i OpenExr:ImfDwaCompressor.obj
 0001:000fa350       ??1?$basic_string@DU?$char_traits@D@std@@V?$allocator@D@2@@std@@QAE@XZ 100fb350 f i il_exr.obj
 0001:000fa380       ??1LossyDctDecoder@DwaCompressor@Imf@@UAE@XZ 100fb380 f i OpenExr:ImfDwaCompressor.obj
 0001:000fa390       ??1LossyDctDecoderCsc@DwaCompressor@Imf@@UAE@XZ 100fb390 f i OpenExr:ImfDwaCompressor.obj
 0001:000fa3a0       ??1LossyDctEncoder@DwaCompressor@Imf@@UAE@XZ 100fb3a0 f i OpenExr:ImfDwaCompressor.obj
 0001:000fa3b0       ??1LossyDctEncoderCsc@DwaCompressor@Imf@@UAE@XZ 100fb3b0 f i OpenExr:ImfDwaCompressor.obj
 0001:000fa3c0       ??1NoImplExc@Iex@@UAE@XZ   100fb3c0 f i OpenExr:ImfDwaCompressor.obj
 0001:000fa3d0       ??_EDwaCompressor@Imf@@UAEPAXI@Z 100fb3d0 f i OpenExr:ImfDwaCompressor.obj
 0001:000fa3d0       ??_GDwaCompressor@Imf@@UAEPAXI@Z 100fb3d0 f i OpenExr:ImfDwaCompressor.obj
 0001:000fa400       ??_GLossyDctDecoder@DwaCompressor@Imf@@UAEPAXI@Z 100fb400 f i OpenExr:ImfDwaCompressor.obj
 0001:000fa400       ??_ELossyDctDecoder@DwaCompressor@Imf@@UAEPAXI@Z 100fb400 f i OpenExr:ImfDwaCompressor.obj
 0001:000fa430       ??_GLossyDctDecoderBase@DwaCompressor@Imf@@UAEPAXI@Z 100fb430 f i OpenExr:ImfDwaCompressor.obj
 0001:000fa430       ??_ELossyDctDecoderBase@DwaCompressor@Imf@@UAEPAXI@Z 100fb430 f i OpenExr:ImfDwaCompressor.obj
 0001:000fa460       ??_GLossyDctDecoderCsc@DwaCompressor@Imf@@UAEPAXI@Z 100fb460 f i OpenExr:ImfDwaCompressor.obj
 0001:000fa460       ??_ELossyDctDecoderCsc@DwaCompressor@Imf@@UAEPAXI@Z 100fb460 f i OpenExr:ImfDwaCompressor.obj
 0001:000fa490       ??_GLossyDctEncoder@DwaCompressor@Imf@@UAEPAXI@Z 100fb490 f i OpenExr:ImfDwaCompressor.obj
 0001:000fa490       ??_ELossyDctEncoder@DwaCompressor@Imf@@UAEPAXI@Z 100fb490 f i OpenExr:ImfDwaCompressor.obj
 0001:000fa4c0       ??_GLossyDctEncoderBase@DwaCompressor@Imf@@UAEPAXI@Z 100fb4c0 f i OpenExr:ImfDwaCompressor.obj
 0001:000fa4c0       ??_ELossyDctEncoderBase@DwaCompressor@Imf@@UAEPAXI@Z 100fb4c0 f i OpenExr:ImfDwaCompressor.obj
 0001:000fa4f0       ??_GLossyDctEncoderCsc@DwaCompressor@Imf@@UAEPAXI@Z 100fb4f0 f i OpenExr:ImfDwaCompressor.obj
 0001:000fa4f0       ??_ELossyDctEncoderCsc@DwaCompressor@Imf@@UAEPAXI@Z 100fb4f0 f i OpenExr:ImfDwaCompressor.obj
 0001:000fa520       ??_ENoImplExc@Iex@@UAEPAXI@Z 100fb520 f i OpenExr:ImfDwaCompressor.obj
 0001:000fa520       ??_GNoImplExc@Iex@@UAEPAXI@Z 100fb520 f i OpenExr:ImfDwaCompressor.obj
 0001:000fa550       ?_Buy@?$vector@GV?$allocator@G@std@@@std@@IAE_NI@Z 100fb550 f i OpenExr:ImfDwaCompressor.obj
 0001:000fa5c0       ?_Buy@?$vector@V?$SimdAlignedBuffer64@G@Imf@@V?$allocator@V?$SimdAlignedBuffer64@G@Imf@@@std@@@std@@IAE_NI@Z 100fb5c0 f i OpenExr:ImfDwaCompressor.obj
 0001:000fa5c0       ?_Buy@?$vector@_KV?$allocator@_K@std@@@std@@IAE_NI@Z 100fb5c0 f i OpenExr:ImfScanLineInputFile.obj
 0001:000fa630       ?_Buyheadnode@?$_Tree_alloc@$0A@U?$_Tree_base_types@U?$pair@$$CBV?$basic_string@DU?$char_traits@D@std@@V?$allocator@D@2@@std@@UCscChannelSet@DwaCompressor@Imf@@@std@@V?$allocator@U?$pair@$$CBV?$basic_string@DU?$char_traits@D@std@@V?$allocator@D@2@@std@@UCscChannelSet@DwaCompressor@Imf@@@std@@@2@@std@@@std@@QAEPAU?$_Tree_node@U?$pair@$$CBV?$basic_string@DU?$char_traits@D@std@@V?$allocator@D@2@@std@@UCscChannelSet@DwaCompressor@Imf@@@std@@PAX@2@XZ 100fb630 f i OpenExr:ImfDwaCompressor.obj
 0001:000fa660       ?_Buynode0@?$_Tree_buy@U?$pair@$$CBV?$basic_string@DU?$char_traits@D@std@@V?$allocator@D@2@@std@@UCscChannelSet@DwaCompressor@Imf@@@std@@V?$allocator@U?$pair@$$CBV?$basic_string@DU?$char_traits@D@std@@V?$allocator@D@2@@std@@UCscChannelSet@DwaCompressor@Imf@@@std@@@2@@std@@QAEPAU?$_Tree_node@U?$pair@$$CBV?$basic_string@DU?$char_traits@D@std@@V?$allocator@D@2@@std@@UCscChannelSet@DwaCompressor@Imf@@@std@@PAX@2@XZ 100fb660 f i OpenExr:ImfDwaCompressor.obj
 0001:000fa6a0       ?_Construct_n@?$vector@IV?$allocator@_N@std@@@std@@QAEXIPBI@Z 100fb6a0 f i OpenExr:ImfDwaCompressor.obj
 0001:000fa6e0       ?_Destroy@?$vector@UChannelData@DwaCompressor@Imf@@V?$allocator@UChannelData@DwaCompressor@Imf@@@std@@@std@@IAEXPAUChannelData@DwaCompressor@Imf@@0@Z 100fb6e0 f i OpenExr:ImfDwaCompressor.obj
 0001:000fa720       ?_Destroy@?$vector@UClassifier@DwaCompressor@Imf@@V?$allocator@UClassifier@DwaCompressor@Imf@@@std@@@std@@IAEXPAUClassifier@DwaCompressor@Imf@@0@Z 100fb720 f i OpenExr:ImfDwaCompressor.obj
 0001:000fa760       ?_Destroy_if_not_nil@?$_Tree@V?$_Tmap_traits@V?$basic_string@DU?$char_traits@D@std@@V?$allocator@D@2@@std@@UCscChannelSet@DwaCompressor@Imf@@U?$less@V?$basic_string@DU?$char_traits@D@std@@V?$allocator@D@2@@std@@@2@V?$allocator@U?$pair@$$CBV?$basic_string@DU?$char_traits@D@std@@V?$allocator@D@2@@std@@UCscChannelSet@DwaCompressor@Imf@@@std@@@2@$0A@@std@@@std@@IAEXPAU?$_Tree_node@U?$pair@$$CBV?$basic_string@DU?$char_traits@D@std@@V?$allocator@D@2@@std@@UCscChannelSet@DwaCompressor@Imf@@@std@@PAX@2@@Z 100fb760 f i OpenExr:ImfDwaCompressor.obj
 0001:000fa7a0       ?_Pop_back_n@?$vector@V?$SimdAlignedBuffer64@M@Imf@@V?$allocator@V?$SimdAlignedBuffer64@M@Imf@@@std@@@std@@QAEXI@Z 100fb7a0 f i OpenExr:ImfDwaCompressor.obj
 0001:000fa800       ?_Reallocate@?$vector@UChannelData@DwaCompressor@Imf@@V?$allocator@UChannelData@DwaCompressor@Imf@@@std@@@std@@IAEXI@Z 100fb800 f i OpenExr:ImfDwaCompressor.obj
 0001:000fa8f0       ?_Reallocate@?$vector@UClassifier@DwaCompressor@Imf@@V?$allocator@UClassifier@DwaCompressor@Imf@@@std@@@std@@IAEXI@Z 100fb8f0 f i OpenExr:ImfDwaCompressor.obj
 0001:000fa9f0       ?_Reallocate@?$vector@UCscChannelSet@DwaCompressor@Imf@@V?$allocator@UCscChannelSet@DwaCompressor@Imf@@@std@@@std@@IAEXI@Z 100fb9f0 f i OpenExr:ImfDwaCompressor.obj
 0001:000faae0       ?_Reallocate@?$vector@V?$SimdAlignedBuffer64@M@Imf@@V?$allocator@V?$SimdAlignedBuffer64@M@Imf@@@std@@@std@@IAEXI@Z 100fbae0 f i OpenExr:ImfDwaCompressor.obj
 0001:000fabe0       ?_Reallocate@?$vector@V?$basic_string@DU?$char_traits@D@std@@V?$allocator@D@2@@std@@V?$allocator@V?$basic_string@DU?$char_traits@D@std@@V?$allocator@D@2@@std@@@2@@std@@IAEXI@Z 100fbbe0 f i OpenExr:ImfDwaCompressor.obj
 0001:000face0       ?_Reserve@?$vector@UChannelData@DwaCompressor@Imf@@V?$allocator@UChannelData@DwaCompressor@Imf@@@std@@@std@@IAEXI@Z 100fbce0 f i OpenExr:ImfDwaCompressor.obj
 0001:000fad90       ?_Reserve@?$vector@UClassifier@DwaCompressor@Imf@@V?$allocator@UClassifier@DwaCompressor@Imf@@@std@@@std@@IAEXI@Z 100fbd90 f i OpenExr:ImfDwaCompressor.obj
 0001:000fae40       ?_Reserve@?$vector@UCscChannelSet@DwaCompressor@Imf@@V?$allocator@UCscChannelSet@DwaCompressor@Imf@@@std@@@std@@IAEXI@Z 100fbe40 f i OpenExr:ImfDwaCompressor.obj
 0001:000faee0       ?_Reserve@?$vector@V?$SimdAlignedBuffer64@M@Imf@@V?$allocator@V?$SimdAlignedBuffer64@M@Imf@@@std@@@std@@IAEXI@Z 100fbee0 f i OpenExr:ImfDwaCompressor.obj
 0001:000faf60       ?_Reserve@?$vector@V?$basic_string@DU?$char_traits@D@std@@V?$allocator@D@2@@std@@V?$allocator@V?$basic_string@DU?$char_traits@D@std@@V?$allocator@D@2@@std@@@2@@std@@IAEXI@Z 100fbf60 f i OpenExr:ImfDwaCompressor.obj
 0001:000fb010       ?_Tidy@?$vector@V?$SimdAlignedBuffer64@M@Imf@@V?$allocator@V?$SimdAlignedBuffer64@M@Imf@@@std@@@std@@IAEXXZ 100fc010 f i OpenExr:ImfDwaCompressor.obj
 0001:000fb010       ?_Tidy@?$vector@V?$SimdAlignedBuffer64@G@Imf@@V?$allocator@V?$SimdAlignedBuffer64@G@Imf@@@std@@@std@@IAEXXZ 100fc010 f i OpenExr:ImfDwaCompressor.obj
 0001:000fb070       ?_Tidy@?$vector@V?$vector@_KV?$allocator@_K@std@@@std@@V?$allocator@V?$vector@_KV?$allocator@_K@std@@@std@@@2@@std@@IAEXXZ 100fc070 f i OpenExr:ImfTiledInputFile.obj
 0001:000fb070       ?_Tidy@?$vector@V?$vector@IV?$allocator@I@std@@@std@@V?$allocator@V?$vector@IV?$allocator@I@std@@@std@@@2@@std@@IAEXXZ 100fc070 f i OpenExr:ImfCompositeDeepScanLine.obj
 0001:000fb070       ??1?$vector@V?$vector@PADV?$allocator@PAD@std@@@std@@V?$allocator@V?$vector@PADV?$allocator@PAD@std@@@std@@@2@@std@@QAE@XZ 100fc070 f i OpenExr:ImfDwaCompressor.obj
 0001:000fb070       ?_Tidy@?$vector@V?$vector@PAMV?$allocator@PAM@std@@@std@@V?$allocator@V?$vector@PAMV?$allocator@PAM@std@@@std@@@2@@std@@IAEXXZ 100fc070 f i OpenExr:ImfCompositeDeepScanLine.obj
 0001:000fb070       ?_Tidy@?$vector@V?$vector@MV?$allocator@M@std@@@std@@V?$allocator@V?$vector@MV?$allocator@M@std@@@std@@@2@@std@@IAEXXZ 100fc070 f i OpenExr:ImfCompositeDeepScanLine.obj
 0001:000fb070       ??1?$vector@V?$vector@PBDV?$allocator@PBD@std@@@std@@V?$allocator@V?$vector@PBDV?$allocator@PBD@std@@@std@@@2@@std@@QAE@XZ 100fc070 f i OpenExr:ImfDwaCompressor.obj
 0001:000fb070       ??1?$vector@V?$vector@IV?$allocator@I@std@@@std@@V?$allocator@V?$vector@IV?$allocator@I@std@@@std@@@2@@std@@QAE@XZ 100fc070 f i OpenExr:ImfCompositeDeepScanLine.obj
 0001:000fb070       ?_Tidy@?$vector@V?$vector@PADV?$allocator@PAD@std@@@std@@V?$allocator@V?$vector@PADV?$allocator@PAD@std@@@std@@@2@@std@@IAEXXZ 100fc070 f i OpenExr:ImfDwaCompressor.obj
 0001:000fb070       ?_Tidy@?$vector@V?$vector@PBDV?$allocator@PBD@std@@@std@@V?$allocator@V?$vector@PBDV?$allocator@PBD@std@@@std@@@2@@std@@IAEXXZ 100fc070 f i OpenExr:ImfDwaCompressor.obj
 0001:000fb070       ??1?$vector@V?$vector@MV?$allocator@M@std@@@std@@V?$allocator@V?$vector@MV?$allocator@M@std@@@std@@@2@@std@@QAE@XZ 100fc070 f i OpenExr:ImfCompositeDeepScanLine.obj
 0001:000fb0c0       ?_Trim@?$vector@_NV?$allocator@_N@std@@@std@@QAEXI@Z 100fc0c0 f i OpenExr:ImfDwaCompressor.obj
 0001:000fb130       ?erase@?$_Tree@V?$_Tset_traits@V?$basic_string@DU?$char_traits@D@std@@V?$allocator@D@2@@std@@U?$less@V?$basic_string@DU?$char_traits@D@std@@V?$allocator@D@2@@std@@@2@V?$allocator@V?$basic_string@DU?$char_traits@D@std@@V?$allocator@D@2@@std@@@2@$0A@@std@@@std@@QAE?AV?$_Tree_const_iterator@V?$_Tree_val@U?$_Tree_simple_types@V?$basic_string@DU?$char_traits@D@std@@V?$allocator@D@2@@std@@@std@@@std@@@2@V32@@Z 100fc130 f i OpenExr:ImfMultiPartInputFile.obj
 0001:000fb130       ?erase@?$_Tree@V?$_Tmap_traits@V?$basic_string@DU?$char_traits@D@std@@V?$allocator@D@2@@std@@UCscChannelSet@DwaCompressor@Imf@@U?$less@V?$basic_string@DU?$char_traits@D@std@@V?$allocator@D@2@@std@@@2@V?$allocator@U?$pair@$$CBV?$basic_string@DU?$char_traits@D@std@@V?$allocator@D@2@@std@@UCscChannelSet@DwaCompressor@Imf@@@std@@@2@$0A@@std@@@std@@QAE?AV?$_Tree_iterator@V?$_Tree_val@U?$_Tree_simple_types@U?$pair@$$CBV?$basic_string@DU?$char_traits@D@std@@V?$allocator@D@2@@std@@UCscChannelSet@DwaCompressor@Imf@@@std@@@std@@@std@@@2@V?$_Tree_const_iterator@V?$_Tree_val@U?$_Tree_simple_types@U?$pair@$$CBV?$basic_string@DU?$char_traits@D@std@@V?$allocator@D@2@@std@@UCscChannelSet@DwaCompressor@Imf@@@std@@@std@@@std@@@2@@Z 100fc130 f i OpenExr:ImfDwaCompressor.obj
 0001:000fb3e0       ?erase@?$vector@IV?$allocator@_N@std@@@std@@QAE?AV?$_Vector_iterator@V?$_Vector_val@U?$_Simple_types@I@std@@@std@@@2@V?$_Vector_const_iterator@V?$_Vector_val@U?$_Simple_types@I@std@@@std@@@2@0@Z 100fc3e0 f i OpenExr:ImfDwaCompressor.obj
 0001:000fb440       ?match@Classifier@DwaCompressor@Imf@@QBE_NABV?$basic_string@DU?$char_traits@D@std@@V?$allocator@D@2@@std@@W4PixelType@3@@Z 100fc440 f i OpenExr:ImfDwaCompressor.obj
 0001:000fb590       ?push_back@?$vector@UClassifier@DwaCompressor@Imf@@V?$allocator@UClassifier@DwaCompressor@Imf@@@std@@@std@@QAEX$$QAUClassifier@DwaCompressor@Imf@@@Z 100fc590 f i OpenExr:ImfDwaCompressor.obj
 0001:000fb590       ?push_back@?$vector@UClassifier@DwaCompressor@Imf@@V?$allocator@UClassifier@DwaCompressor@Imf@@@std@@@std@@QAEXABUClassifier@DwaCompressor@Imf@@@Z 100fc590 f i OpenExr:ImfDwaCompressor.obj
 0001:000fb680       ?push_back@?$vector@UCscChannelSet@DwaCompressor@Imf@@V?$allocator@UCscChannelSet@DwaCompressor@Imf@@@std@@@std@@QAEXABUCscChannelSet@DwaCompressor@Imf@@@Z 100fc680 f i OpenExr:ImfDwaCompressor.obj
 0001:000fb710       ?push_back@?$vector@V?$basic_string@DU?$char_traits@D@std@@V?$allocator@D@2@@std@@V?$allocator@V?$basic_string@DU?$char_traits@D@std@@V?$allocator@D@2@@std@@@2@@std@@QAEXABV?$basic_string@DU?$char_traits@D@std@@V?$allocator@D@2@@2@@Z 100fc710 f i OpenExr:ImfDwaCompressor.obj
 0001:000fb7e0       ?push_back@?$vector@V?$vector@PADV?$allocator@PAD@std@@@std@@V?$allocator@V?$vector@PADV?$allocator@PAD@std@@@std@@@2@@std@@QAEXABV?$vector@PADV?$allocator@PAD@std@@@2@@Z 100fc7e0 f i OpenExr:ImfDwaCompressor.obj
 0001:000fb8a0       ?resize@?$vector@UChannelData@DwaCompressor@Imf@@V?$allocator@UChannelData@DwaCompressor@Imf@@@std@@@std@@QAEXI@Z 100fc8a0 f i OpenExr:ImfDwaCompressor.obj
 0001:000fb9a0       ?resize@?$vector@UCscChannelSet@DwaCompressor@Imf@@V?$allocator@UCscChannelSet@DwaCompressor@Imf@@@std@@@std@@QAEXI@Z 100fc9a0 f i OpenExr:ImfDwaCompressor.obj
 0001:000fba80       ?resize@?$vector@V?$SimdAlignedBuffer64@M@Imf@@V?$allocator@V?$SimdAlignedBuffer64@M@Imf@@@std@@@std@@QAEXI@Z 100fca80 f i OpenExr:ImfDwaCompressor.obj
 0001:000fbb50       ?substr@?$basic_string@DU?$char_traits@D@std@@V?$allocator@D@2@@std@@QBE?AV12@II@Z 100fcb50 f i OpenExr:ImfDwaCompressor.obj
 0001:000fbb90       ?staticTypeName@?$TypedAttribute@W4Envmap@Imf@@@Imf@@SAPBDXZ 100fcb90 f   OpenExr:ImfEnvmapAttribute.obj
 0001:000fbba0       ?writeValueTo@?$TypedAttribute@W4Envmap@Imf@@@Imf@@UBEXAAVOStream@2@H@Z 100fcba0 f   OpenExr:ImfEnvmapAttribute.obj
 0001:000fbbc0       ?readValueFrom@?$TypedAttribute@W4Envmap@Imf@@@Imf@@UAEXAAVIStream@2@HH@Z 100fcbc0 f   OpenExr:ImfEnvmapAttribute.obj
 0001:000fbbe0       ?staticTypeName@?$TypedAttribute@M@Imf@@SAPBDXZ 100fcbe0 f   OpenExr:ImfFloatAttribute.obj
 0001:000fbbf0       ?staticTypeName@?$TypedAttribute@V?$vector@MV?$allocator@M@std@@@std@@@Imf@@SAPBDXZ 100fcbf0 f   OpenExr:ImfFloatVectorAttribute.obj
 0001:000fbc00       ?writeValueTo@?$TypedAttribute@V?$vector@MV?$allocator@M@std@@@std@@@Imf@@UBEXAAVOStream@2@H@Z 100fcc00 f   OpenExr:ImfFloatVectorAttribute.obj
 0001:000fbc70       ?readValueFrom@?$TypedAttribute@V?$vector@MV?$allocator@M@std@@@std@@@Imf@@UAEXAAVIStream@2@HH@Z 100fcc70 f   OpenExr:ImfFloatVectorAttribute.obj
 0001:000fbce0       ?staticTypeName@?$TypedAttribute@H@Imf@@SAPBDXZ 100fcce0 f   OpenExr:ImfIntAttribute.obj
 0001:000fbcf0       ??0KeyCode@Imf@@QAE@HHHHHHH@Z 100fccf0 f   OpenExr:ImfKeyCode.obj
 0001:000fbe70       ??0KeyCode@Imf@@QAE@ABV01@@Z 100fce70 f   OpenExr:ImfKeyCode.obj
 0001:000fbeb0       ??4KeyCode@Imf@@QAEAAV01@ABV01@@Z 100fceb0 f   OpenExr:ImfKeyCode.obj
 0001:000fbef0       ?filmMfcCode@KeyCode@Imf@@QBEHXZ 100fcef0 f   OpenExr:ImfKeyCode.obj
 0001:000fbf00       ?setFilmMfcCode@KeyCode@Imf@@QAEXH@Z 100fcf00 f   OpenExr:ImfKeyCode.obj
 0001:000fbf50       ?filmType@KeyCode@Imf@@QBEHXZ 100fcf50 f   OpenExr:ImfKeyCode.obj
 0001:000fbf60       ?setFilmType@KeyCode@Imf@@QAEXH@Z 100fcf60 f   OpenExr:ImfKeyCode.obj
 0001:000fbfb0       ?prefix@KeyCode@Imf@@QBEHXZ 100fcfb0 f   OpenExr:ImfKeyCode.obj
 0001:000fbfc0       ?setPrefix@KeyCode@Imf@@QAEXH@Z 100fcfc0 f   OpenExr:ImfKeyCode.obj
 0001:000fc010       ?count@KeyCode@Imf@@QBEHXZ 100fd010 f   OpenExr:ImfKeyCode.obj
 0001:000fc020       ?setCount@KeyCode@Imf@@QAEXH@Z 100fd020 f   OpenExr:ImfKeyCode.obj
 0001:000fc070       ?perfOffset@KeyCode@Imf@@QBEHXZ 100fd070 f   OpenExr:ImfKeyCode.obj
 0001:000fc080       ?setPerfOffset@KeyCode@Imf@@QAEXH@Z 100fd080 f   OpenExr:ImfKeyCode.obj
 0001:000fc0d0       ?perfsPerFrame@KeyCode@Imf@@QBEHXZ 100fd0d0 f   OpenExr:ImfKeyCode.obj
 0001:000fc0e0       ?setPerfsPerFrame@KeyCode@Imf@@QAEXH@Z 100fd0e0 f   OpenExr:ImfKeyCode.obj
 0001:000fc140       ?perfsPerCount@KeyCode@Imf@@QBEHXZ 100fd140 f   OpenExr:ImfKeyCode.obj
 0001:000fc150       ?setPerfsPerCount@KeyCode@Imf@@QAEXH@Z 100fd150 f   OpenExr:ImfKeyCode.obj
 0001:000fc1b0       ?staticTypeName@?$TypedAttribute@VKeyCode@Imf@@@Imf@@SAPBDXZ 100fd1b0 f   OpenExr:ImfKeyCodeAttribute.obj
 0001:000fc1c0       ?writeValueTo@?$TypedAttribute@VKeyCode@Imf@@@Imf@@UBEXAAVOStream@2@H@Z 100fd1c0 f   OpenExr:ImfKeyCodeAttribute.obj
 0001:000fc310       ?readValueFrom@?$TypedAttribute@VKeyCode@Imf@@@Imf@@UAEXAAVIStream@2@HH@Z 100fd310 f   OpenExr:ImfKeyCodeAttribute.obj
 0001:000fc4a0       ?staticTypeName@?$TypedAttribute@W4LineOrder@Imf@@@Imf@@SAPBDXZ 100fd4a0 f   OpenExr:ImfLineOrderAttribute.obj
 0001:000fc4b0       ?writeValueTo@?$TypedAttribute@W4LineOrder@Imf@@@Imf@@UBEXAAVOStream@2@H@Z 100fd4b0 f   OpenExr:ImfLineOrderAttribute.obj
 0001:000fc4d0       ?readValueFrom@?$TypedAttribute@W4LineOrder@Imf@@@Imf@@UAEXAAVIStream@2@HH@Z 100fd4d0 f   OpenExr:ImfLineOrderAttribute.obj
 0001:000fc4f0       ?staticTypeName@?$TypedAttribute@V?$Matrix33@M@Imath@@@Imf@@SAPBDXZ 100fd4f0 f   OpenExr:ImfMatrixAttribute.obj
 0001:000fc500       ?writeValueTo@?$TypedAttribute@V?$Matrix33@M@Imath@@@Imf@@UBEXAAVOStream@2@H@Z 100fd500 f   OpenExr:ImfMatrixAttribute.obj
 0001:000fc6e0       ?readValueFrom@?$TypedAttribute@V?$Matrix33@M@Imath@@@Imf@@UAEXAAVIStream@2@HH@Z 100fd6e0 f   OpenExr:ImfMatrixAttribute.obj
 0001:000fc900       ?staticTypeName@?$TypedAttribute@V?$Matrix33@N@Imath@@@Imf@@SAPBDXZ 100fd900 f   OpenExr:ImfMatrixAttribute.obj
 0001:000fc910       ?writeValueTo@?$TypedAttribute@V?$Matrix33@N@Imath@@@Imf@@UBEXAAVOStream@2@H@Z 100fd910 f   OpenExr:ImfMatrixAttribute.obj
 0001:000fccc0       ?readValueFrom@?$TypedAttribute@V?$Matrix33@N@Imath@@@Imf@@UAEXAAVIStream@2@HH@Z 100fdcc0 f   OpenExr:ImfMatrixAttribute.obj
 0001:000fcd30       ?staticTypeName@?$TypedAttribute@V?$Matrix44@M@Imath@@@Imf@@SAPBDXZ 100fdd30 f   OpenExr:ImfMatrixAttribute.obj
 0001:000fcd40       ?writeValueTo@?$TypedAttribute@V?$Matrix44@M@Imath@@@Imf@@UBEXAAVOStream@2@H@Z 100fdd40 f   OpenExr:ImfMatrixAttribute.obj
 0001:000fd090       ?readValueFrom@?$TypedAttribute@V?$Matrix44@M@Imath@@@Imf@@UAEXAAVIStream@2@HH@Z 100fe090 f   OpenExr:ImfMatrixAttribute.obj
 0001:000fd440       ?staticTypeName@?$TypedAttribute@V?$Matrix44@N@Imath@@@Imf@@SAPBDXZ 100fe440 f   OpenExr:ImfMatrixAttribute.obj
 0001:000fd450       ?writeValueTo@?$TypedAttribute@V?$Matrix44@N@Imath@@@Imf@@UBEXAAVOStream@2@H@Z 100fe450 f   OpenExr:ImfMatrixAttribute.obj
 0001:000fdac0       ?readValueFrom@?$TypedAttribute@V?$Matrix44@N@Imath@@@Imf@@UAEXAAVIStream@2@HH@Z 100feac0 f   OpenExr:ImfMatrixAttribute.obj
 0001:000fdb90       ??0OpaqueAttribute@Imf@@QAE@QBD@Z 100feb90 f   OpenExr:ImfOpaqueAttribute.obj
 0001:000fdc30       ??0OpaqueAttribute@Imf@@QAE@ABV01@@Z 100fec30 f   OpenExr:ImfOpaqueAttribute.obj
 0001:000fdd10       ??1OpaqueAttribute@Imf@@UAE@XZ 100fed10 f   OpenExr:ImfOpaqueAttribute.obj
 0001:000fdd40       ?typeName@OpaqueAttribute@Imf@@UBEPBDXZ 100fed40 f   OpenExr:ImfOpaqueAttribute.obj
 0001:000fdd50       ?copy@OpaqueAttribute@Imf@@UBEPAVAttribute@2@XZ 100fed50 f   OpenExr:ImfOpaqueAttribute.obj
 0001:000fddc0       ?writeValueTo@OpaqueAttribute@Imf@@UBEXAAVOStream@2@H@Z 100fedc0 f   OpenExr:ImfOpaqueAttribute.obj
 0001:000fdde0       ?readValueFrom@OpaqueAttribute@Imf@@UAEXAAVIStream@2@HH@Z 100fede0 f   OpenExr:ImfOpaqueAttribute.obj
 0001:000fde20       ?copyValueFrom@OpaqueAttribute@Imf@@UAEXABVAttribute@2@@Z 100fee20 f   OpenExr:ImfOpaqueAttribute.obj
 0001:000fe020       ??_GOpaqueAttribute@Imf@@UAEPAXI@Z 100ff020 f i OpenExr:ImfOpaqueAttribute.obj
 0001:000fe020       ??_EOpaqueAttribute@Imf@@UAEPAXI@Z 100ff020 f i OpenExr:ImfOpaqueAttribute.obj
 0001:000fe060       ??0PreviewImage@Imf@@QAE@IIQBUPreviewRgba@1@@Z 100ff060 f   OpenExr:ImfPreviewImage.obj
 0001:000fe1a0       ??0PreviewImage@Imf@@QAE@ABV01@@Z 100ff1a0 f   OpenExr:ImfPreviewImage.obj
 0001:000fe230       ??1PreviewImage@Imf@@QAE@XZ 100ff230 f   OpenExr:ImfPreviewImage.obj
 0001:000fe240       ??4PreviewImage@Imf@@QAEAAV01@ABV01@@Z 100ff240 f   OpenExr:ImfPreviewImage.obj
 0001:000fe2d0       ?staticTypeName@?$TypedAttribute@VPreviewImage@Imf@@@Imf@@SAPBDXZ 100ff2d0 f   OpenExr:ImfPreviewImageAttribute.obj
 0001:000fe2e0       ?writeValueTo@?$TypedAttribute@VPreviewImage@Imf@@@Imf@@UBEXAAVOStream@2@H@Z 100ff2e0 f   OpenExr:ImfPreviewImageAttribute.obj
 0001:000fe3b0       ?readValueFrom@?$TypedAttribute@VPreviewImage@Imf@@@Imf@@UAEXAAVIStream@2@HH@Z 100ff3b0 f   OpenExr:ImfPreviewImageAttribute.obj
 0001:000fe4d0       ?staticTypeName@?$TypedAttribute@VRational@Imf@@@Imf@@SAPBDXZ 100ff4d0 f   OpenExr:ImfRationalAttribute.obj
 0001:000fe4e0       ?writeValueTo@?$TypedAttribute@VRational@Imf@@@Imf@@UBEXAAVOStream@2@H@Z 100ff4e0 f   OpenExr:ImfRationalAttribute.obj
 0001:000fe550       ?readValueFrom@?$TypedAttribute@VRational@Imf@@@Imf@@UAEXAAVIStream@2@HH@Z 100ff550 f   OpenExr:ImfRationalAttribute.obj
 0001:000fe5d0       ?staticTypeName@?$TypedAttribute@V?$basic_string@DU?$char_traits@D@std@@V?$allocator@D@2@@std@@@Imf@@SAPBDXZ 100ff5d0 f   OpenExr:ImfStringAttribute.obj
 0001:000fe5e0       ?writeValueTo@?$TypedAttribute@V?$basic_string@DU?$char_traits@D@std@@V?$allocator@D@2@@std@@@Imf@@UBEXAAVOStream@2@H@Z 100ff5e0 f   OpenExr:ImfStringAttribute.obj
 0001:000fe630       ?readValueFrom@?$TypedAttribute@V?$basic_string@DU?$char_traits@D@std@@V?$allocator@D@2@@std@@@Imf@@UAEXAAVIStream@2@HH@Z 100ff630 f   OpenExr:ImfStringAttribute.obj
 0001:000fe6a0       ?staticTypeName@?$TypedAttribute@V?$vector@V?$basic_string@DU?$char_traits@D@std@@V?$allocator@D@2@@std@@V?$allocator@V?$basic_string@DU?$char_traits@D@std@@V?$allocator@D@2@@std@@@2@@std@@@Imf@@SAPBDXZ 100ff6a0 f   OpenExr:ImfStringVectorAttribute.obj
 0001:000fe6b0       ?writeValueTo@?$TypedAttribute@V?$vector@V?$basic_string@DU?$char_traits@D@std@@V?$allocator@D@2@@std@@V?$allocator@V?$basic_string@DU?$char_traits@D@std@@V?$allocator@D@2@@std@@@2@@std@@@Imf@@UBEXAAVOStream@2@H@Z 100ff6b0 f   OpenExr:ImfStringVectorAttribute.obj
 0001:000fe740       ?readValueFrom@?$TypedAttribute@V?$vector@V?$basic_string@DU?$char_traits@D@std@@V?$allocator@D@2@@std@@V?$allocator@V?$basic_string@DU?$char_traits@D@std@@V?$allocator@D@2@@std@@@2@@std@@@Imf@@UAEXAAVIStream@2@HH@Z 100ff740 f   OpenExr:ImfStringVectorAttribute.obj
 0001:000fe850       ?staticTypeName@?$TypedAttribute@VTileDescription@Imf@@@Imf@@SAPBDXZ 100ff850 f   OpenExr:ImfTileDescriptionAttribute.obj
 0001:000fe860       ?writeValueTo@?$TypedAttribute@VTileDescription@Imf@@@Imf@@UBEXAAVOStream@2@H@Z 100ff860 f   OpenExr:ImfTileDescriptionAttribute.obj
 0001:000fe8e0       ?readValueFrom@?$TypedAttribute@VTileDescription@Imf@@@Imf@@UAEXAAVIStream@2@HH@Z 100ff8e0 f   OpenExr:ImfTileDescriptionAttribute.obj
 0001:000fe980       ??0TimeCode@Imf@@QAE@XZ    100ff980 f   OpenExr:ImfTimeCode.obj
 0001:000fe990       ??0TimeCode@Imf@@QAE@HHHH_N00000HHHHHHHH@Z 100ff990 f   OpenExr:ImfTimeCode.obj
 0001:000fea90       ??0TimeCode@Imf@@QAE@IIW4Packing@01@@Z 100ffa90 f   OpenExr:ImfTimeCode.obj
 0001:000feab0       ??0TimeCode@Imf@@QAE@ABV01@@Z 100ffab0 f   OpenExr:ImfTimeCode.obj
 0001:000fead0       ??4TimeCode@Imf@@QAEAAV01@ABV01@@Z 100ffad0 f   OpenExr:ImfTimeCode.obj
 0001:000feaf0       ?hours@TimeCode@Imf@@QBEHXZ 100ffaf0 f   OpenExr:ImfTimeCode.obj
 0001:000feb10       ?setHours@TimeCode@Imf@@QAEXH@Z 100ffb10 f   OpenExr:ImfTimeCode.obj
 0001:000feba0       ?minutes@TimeCode@Imf@@QBEHXZ 100ffba0 f   OpenExr:ImfTimeCode.obj
 0001:000febc0       ?setMinutes@TimeCode@Imf@@QAEXH@Z 100ffbc0 f   OpenExr:ImfTimeCode.obj
 0001:000fec50       ?seconds@TimeCode@Imf@@QBEHXZ 100ffc50 f   OpenExr:ImfTimeCode.obj
 0001:000fec70       ?setSeconds@TimeCode@Imf@@QAEXH@Z 100ffc70 f   OpenExr:ImfTimeCode.obj
 0001:000fed00       ?frame@TimeCode@Imf@@QBEHXZ 100ffd00 f   OpenExr:ImfTimeCode.obj
 0001:000fed20       ?setFrame@TimeCode@Imf@@QAEXH@Z 100ffd20 f   OpenExr:ImfTimeCode.obj
 0001:000feda0       ?dropFrame@TimeCode@Imf@@QBE_NXZ 100ffda0 f   OpenExr:ImfTimeCode.obj
 0001:000fedb0       ?setDropFrame@TimeCode@Imf@@QAEX_N@Z 100ffdb0 f   OpenExr:ImfTimeCode.obj
 0001:000fedd0       ?colorFrame@TimeCode@Imf@@QBE_NXZ 100ffdd0 f   OpenExr:ImfTimeCode.obj
 0001:000fede0       ?setColorFrame@TimeCode@Imf@@QAEX_N@Z 100ffde0 f   OpenExr:ImfTimeCode.obj
 0001:000fee00       ?fieldPhase@TimeCode@Imf@@QBE_NXZ 100ffe00 f   OpenExr:ImfTimeCode.obj
 0001:000fee10       ?setFieldPhase@TimeCode@Imf@@QAEX_N@Z 100ffe10 f   OpenExr:ImfTimeCode.obj
 0001:000fee30       ?bgf0@TimeCode@Imf@@QBE_NXZ 100ffe30 f   OpenExr:ImfTimeCode.obj
 0001:000fee40       ?setBgf0@TimeCode@Imf@@QAEX_N@Z 100ffe40 f   OpenExr:ImfTimeCode.obj
 0001:000fee60       ?bgf1@TimeCode@Imf@@QBE_NXZ 100ffe60 f   OpenExr:ImfTimeCode.obj
 0001:000fee70       ?setBgf1@TimeCode@Imf@@QAEX_N@Z 100ffe70 f   OpenExr:ImfTimeCode.obj
 0001:000fee90       ?bgf2@TimeCode@Imf@@QBE_NXZ 100ffe90 f   OpenExr:ImfTimeCode.obj
 0001:000feea0       ?setBgf2@TimeCode@Imf@@QAEX_N@Z 100ffea0 f   OpenExr:ImfTimeCode.obj
 0001:000feec0       ?binaryGroup@TimeCode@Imf@@QBEHH@Z 100ffec0 f   OpenExr:ImfTimeCode.obj
 0001:000fef30       ?setBinaryGroup@TimeCode@Imf@@QAEXHH@Z 100fff30 f   OpenExr:ImfTimeCode.obj
 0001:000fefb0       ?timeAndFlags@TimeCode@Imf@@QBEIW4Packing@12@@Z 100fffb0 f   OpenExr:ImfTimeCode.obj
 0001:000feff0       ?setTimeAndFlags@TimeCode@Imf@@QAEXIW4Packing@12@@Z 100ffff0 f   OpenExr:ImfTimeCode.obj
 0001:000ff060       ?userData@TimeCode@Imf@@QBEIXZ 10100060 f   OpenExr:ImfTimeCode.obj
 0001:000ff070       ?setUserData@TimeCode@Imf@@QAEXI@Z 10100070 f   OpenExr:ImfTimeCode.obj
 0001:000ff080       ??8TimeCode@Imf@@QBE_NABV01@@Z 10100080 f   OpenExr:ImfTimeCode.obj
 0001:000ff0a0       ??9TimeCode@Imf@@QBE_NABV01@@Z 101000a0 f   OpenExr:ImfTimeCode.obj
 0001:000ff0c0       ?bitField@?A0xafb9c0c1@Imf@@YAIIHH@Z 101000c0 f   OpenExr:ImfTimeCode.obj
 0001:000ff0e0       ?setBitField@?A0xafb9c0c1@Imf@@YAXAAIHHI@Z 101000e0 f   OpenExr:ImfTimeCode.obj
 0001:000ff110       ?bcdToBinary@?A0xafb9c0c1@Imf@@YAHI@Z 10100110 f   OpenExr:ImfTimeCode.obj
 0001:000ff130       ?binaryToBcd@?A0xafb9c0c1@Imf@@YAIH@Z 10100130 f   OpenExr:ImfTimeCode.obj
 0001:000ff170       ?staticTypeName@?$TypedAttribute@VTimeCode@Imf@@@Imf@@SAPBDXZ 10100170 f   OpenExr:ImfTimeCodeAttribute.obj
 0001:000ff180       ?writeValueTo@?$TypedAttribute@VTimeCode@Imf@@@Imf@@UBEXAAVOStream@2@H@Z 10100180 f   OpenExr:ImfTimeCodeAttribute.obj
 0001:000ff1f0       ?readValueFrom@?$TypedAttribute@VTimeCode@Imf@@@Imf@@UAEXAAVIStream@2@HH@Z 101001f0 f   OpenExr:ImfTimeCodeAttribute.obj
 0001:000ff270       ?staticTypeName@?$TypedAttribute@V?$Vec2@H@Imath@@@Imf@@SAPBDXZ 10100270 f   OpenExr:ImfVecAttribute.obj
 0001:000ff280       ?writeValueTo@?$TypedAttribute@V?$Vec2@H@Imath@@@Imf@@UBEXAAVOStream@2@H@Z 10100280 f   OpenExr:ImfVecAttribute.obj
 0001:000ff2f0       ?readValueFrom@?$TypedAttribute@V?$Vec2@H@Imath@@@Imf@@UAEXAAVIStream@2@HH@Z 101002f0 f   OpenExr:ImfVecAttribute.obj
 0001:000ff370       ?staticTypeName@?$TypedAttribute@V?$Vec2@M@Imath@@@Imf@@SAPBDXZ 10100370 f   OpenExr:ImfVecAttribute.obj
 0001:000ff380       ?writeValueTo@?$TypedAttribute@V?$Vec2@M@Imath@@@Imf@@UBEXAAVOStream@2@H@Z 10100380 f   OpenExr:ImfVecAttribute.obj
 0001:000ff400       ?readValueFrom@?$TypedAttribute@V?$Vec2@M@Imath@@@Imf@@UAEXAAVIStream@2@HH@Z 10100400 f   OpenExr:ImfVecAttribute.obj
 0001:000ff490       ?staticTypeName@?$TypedAttribute@V?$Vec2@N@Imath@@@Imf@@SAPBDXZ 10100490 f   OpenExr:ImfVecAttribute.obj
 0001:000ff4a0       ?writeValueTo@?$TypedAttribute@V?$Vec2@N@Imath@@@Imf@@UBEXAAVOStream@2@H@Z 101004a0 f   OpenExr:ImfVecAttribute.obj
 0001:000ff5a0       ?readValueFrom@?$TypedAttribute@V?$Vec2@N@Imath@@@Imf@@UAEXAAVIStream@2@HH@Z 101005a0 f   OpenExr:ImfVecAttribute.obj
 0001:000ff5d0       ?staticTypeName@?$TypedAttribute@V?$Vec3@H@Imath@@@Imf@@SAPBDXZ 101005d0 f   OpenExr:ImfVecAttribute.obj
 0001:000ff5e0       ?writeValueTo@?$TypedAttribute@V?$Vec3@H@Imath@@@Imf@@UBEXAAVOStream@2@H@Z 101005e0 f   OpenExr:ImfVecAttribute.obj
 0001:000ff670       ?readValueFrom@?$TypedAttribute@V?$Vec3@H@Imath@@@Imf@@UAEXAAVIStream@2@HH@Z 10100670 f   OpenExr:ImfVecAttribute.obj
 0001:000ff720       ?staticTypeName@?$TypedAttribute@V?$Vec3@M@Imath@@@Imf@@SAPBDXZ 10100720 f   OpenExr:ImfVecAttribute.obj
 0001:000ff730       ?writeValueTo@?$TypedAttribute@V?$Vec3@M@Imath@@@Imf@@UBEXAAVOStream@2@H@Z 10100730 f   OpenExr:ImfVecAttribute.obj
 0001:000ff7e0       ?readValueFrom@?$TypedAttribute@V?$Vec3@M@Imath@@@Imf@@UAEXAAVIStream@2@HH@Z 101007e0 f   OpenExr:ImfVecAttribute.obj
 0001:000ff8a0       ?staticTypeName@?$TypedAttribute@V?$Vec3@N@Imath@@@Imf@@SAPBDXZ 101008a0 f   OpenExr:ImfVecAttribute.obj
 0001:000ff8b0       ?writeValueTo@?$TypedAttribute@V?$Vec3@N@Imath@@@Imf@@UBEXAAVOStream@2@H@Z 101008b0 f   OpenExr:ImfVecAttribute.obj
 0001:000ffa10       ?readValueFrom@?$TypedAttribute@V?$Vec3@N@Imath@@@Imf@@UAEXAAVIStream@2@HH@Z 10100a10 f   OpenExr:ImfVecAttribute.obj
 0001:000ffa50       ?isImage@Imf@@YA_NABV?$basic_string@DU?$char_traits@D@std@@V?$allocator@D@2@@std@@@Z 10100a50 f   OpenExr:ImfPartType.obj
 0001:000ffac0       ?isTiled@Imf@@YA_NABV?$basic_string@DU?$char_traits@D@std@@V?$allocator@D@2@@std@@@Z 10100ac0 f   OpenExr:ImfPartType.obj
 0001:000ffb30       ?isDeepData@Imf@@YA_NABV?$basic_string@DU?$char_traits@D@std@@V?$allocator@D@2@@std@@@Z 10100b30 f   OpenExr:ImfPartType.obj
 0001:000ffba0       ?isSupportedType@Imf@@YA_NABV?$basic_string@DU?$char_traits@D@std@@V?$allocator@D@2@@std@@@Z 10100ba0 f   OpenExr:ImfPartType.obj
 0001:000ffc70       ??0Slice@Imf@@QAE@W4PixelType@1@PADIIHHN_N2@Z 10100c70 f   OpenExr:ImfFrameBuffer.obj
 0001:000ffcc0       ?insert@FrameBuffer@Imf@@QAEXQBDABUSlice@2@@Z 10100cc0 f   OpenExr:ImfFrameBuffer.obj
 0001:000ffe80       ?insert@FrameBuffer@Imf@@QAEXABV?$basic_string@DU?$char_traits@D@std@@V?$allocator@D@2@@std@@ABUSlice@2@@Z 10100e80 f   OpenExr:ImfFrameBuffer.obj
 0001:000ffea0       ??AFrameBuffer@Imf@@QAEAAUSlice@1@QBD@Z 10100ea0 f   OpenExr:ImfFrameBuffer.obj
 0001:00100080       ??AFrameBuffer@Imf@@QBEABUSlice@1@QBD@Z 10101080 f   OpenExr:ImfFrameBuffer.obj
 0001:00100260       ??AFrameBuffer@Imf@@QAEAAUSlice@1@ABV?$basic_string@DU?$char_traits@D@std@@V?$allocator@D@2@@std@@@Z 10101260 f   OpenExr:ImfFrameBuffer.obj
 0001:00100280       ??AFrameBuffer@Imf@@QBEABUSlice@1@ABV?$basic_string@DU?$char_traits@D@std@@V?$allocator@D@2@@std@@@Z 10101280 f   OpenExr:ImfFrameBuffer.obj
 0001:001002a0       ?findSlice@FrameBuffer@Imf@@QAEPAUSlice@2@QBD@Z 101012a0 f   OpenExr:ImfFrameBuffer.obj
 0001:00100360       ?findSlice@FrameBuffer@Imf@@QBEPBUSlice@2@QBD@Z 10101360 f   OpenExr:ImfFrameBuffer.obj
 0001:00100420       ?findSlice@FrameBuffer@Imf@@QAEPAUSlice@2@ABV?$basic_string@DU?$char_traits@D@std@@V?$allocator@D@2@@std@@@Z 10101420 f   OpenExr:ImfFrameBuffer.obj
 0001:00100440       ?findSlice@FrameBuffer@Imf@@QBEPBUSlice@2@ABV?$basic_string@DU?$char_traits@D@std@@V?$allocator@D@2@@std@@@Z 10101440 f   OpenExr:ImfFrameBuffer.obj
 0001:00100460       ?begin@FrameBuffer@Imf@@QAE?AVIterator@12@XZ 10101460 f   OpenExr:ImfFrameBuffer.obj
 0001:00100470       ?begin@FrameBuffer@Imf@@QBE?AVConstIterator@12@XZ 10101470 f   OpenExr:ImfFrameBuffer.obj
 0001:00100480       ?end@FrameBuffer@Imf@@QAE?AVIterator@12@XZ 10101480 f   OpenExr:ImfFrameBuffer.obj
 0001:00100490       ?end@FrameBuffer@Imf@@QBE?AVConstIterator@12@XZ 10101490 f   OpenExr:ImfFrameBuffer.obj
 0001:001004a0       ?find@FrameBuffer@Imf@@QAE?AVIterator@12@QBD@Z 101014a0 f   OpenExr:ImfFrameBuffer.obj
 0001:00100550       ?find@FrameBuffer@Imf@@QBE?AVConstIterator@12@QBD@Z 10101550 f   OpenExr:ImfFrameBuffer.obj
 0001:00100600       ?find@FrameBuffer@Imf@@QAE?AVIterator@12@ABV?$basic_string@DU?$char_traits@D@std@@V?$allocator@D@2@@std@@@Z 10101600 f   OpenExr:ImfFrameBuffer.obj
 0001:00100620       ?find@FrameBuffer@Imf@@QBE?AVConstIterator@12@ABV?$basic_string@DU?$char_traits@D@std@@V?$allocator@D@2@@std@@@Z 10101620 f   OpenExr:ImfFrameBuffer.obj
 0001:00100640       ??$?0$$QAVName@Imf@@$$$V@?$pair@$$CBVName@Imf@@USlice@2@@std@@QAE@Upiecewise_construct_t@1@V?$tuple@$$QAVName@Imf@@@1@V?$tuple@$$$V@1@@Z 10101640 f i OpenExr:ImfFrameBuffer.obj
 0001:001006b0       ??$_Buynode@ABUpiecewise_construct_t@std@@V?$tuple@$$QAVName@Imf@@@2@V?$tuple@$$$V@2@@?$_Tree_buy@U?$pair@$$CBVName@Imf@@USlice@2@@std@@V?$allocator@U?$pair@$$CBVName@Imf@@USlice@2@@std@@@2@@std@@QAEPAU?$_Tree_node@U?$pair@$$CBVName@Imf@@USlice@2@@std@@PAX@1@ABUpiecewise_construct_t@1@$$QAV?$tuple@$$QAVName@Imf@@@1@$$QAV?$tuple@$$$V@1@@Z 101016b0 f i OpenExr:ImfFrameBuffer.obj
 0001:001006f0       ??$_Insert_at@AAU?$pair@$$CBVName@Imf@@USlice@2@@std@@PAU?$_Tree_node@U?$pair@$$CBVName@Imf@@USlice@2@@std@@PAX@2@@?$_Tree@V?$_Tmap_traits@VName@Imf@@USlice@2@U?$less@VName@Imf@@@std@@V?$allocator@U?$pair@$$CBVName@Imf@@USlice@2@@std@@@5@$0A@@std@@@std@@IAE?AV?$_Tree_iterator@V?$_Tree_val@U?$_Tree_simple_types@U?$pair@$$CBVName@Imf@@USlice@2@@std@@@std@@@std@@@1@_NPAU?$_Tree_node@U?$pair@$$CBVName@Imf@@USlice@2@@std@@PAX@1@AAU?$pair@$$CBVName@Imf@@USlice@2@@1@1@Z 101016f0 f i OpenExr:ImfFrameBuffer.obj
 0001:00100900       ??$_Insert_hint@AAU?$pair@$$CBVName@Imf@@USlice@2@@std@@PAU?$_Tree_node@U?$pair@$$CBVName@Imf@@USlice@2@@std@@PAX@2@@?$_Tree@V?$_Tmap_traits@VName@Imf@@USlice@2@U?$less@VName@Imf@@@std@@V?$allocator@U?$pair@$$CBVName@Imf@@USlice@2@@std@@@5@$0A@@std@@@std@@IAE?AV?$_Tree_iterator@V?$_Tree_val@U?$_Tree_simple_types@U?$pair@$$CBVName@Imf@@USlice@2@@std@@@std@@@std@@@1@V?$_Tree_const_iterator@V?$_Tree_val@U?$_Tree_simple_types@U?$pair@$$CBVName@Imf@@USlice@2@@std@@@std@@@std@@@1@AAU?$pair@$$CBVName@Imf@@USlice@2@@1@PAU?$_Tree_node@U?$pair@$$CBVName@Imf@@USlice@2@@std@@PAX@1@@Z 10101900 f i OpenExr:ImfFrameBuffer.obj
 0001:00100b60       ??$_Insert_nohint@AAU?$pair@$$CBVName@Imf@@USlice@2@@std@@PAU?$_Tree_node@U?$pair@$$CBVName@Imf@@USlice@2@@std@@PAX@2@@?$_Tree@V?$_Tmap_traits@VName@Imf@@USlice@2@U?$less@VName@Imf@@@std@@V?$allocator@U?$pair@$$CBVName@Imf@@USlice@2@@std@@@5@$0A@@std@@@std@@IAE?AU?$pair@V?$_Tree_iterator@V?$_Tree_val@U?$_Tree_simple_types@U?$pair@$$CBVName@Imf@@USlice@2@@std@@@std@@@std@@@std@@_N@1@_NAAU?$pair@$$CBVName@Imf@@USlice@2@@1@PAU?$_Tree_node@U?$pair@$$CBVName@Imf@@USlice@2@@std@@PAX@1@@Z 10101b60 f i OpenExr:ImfFrameBuffer.obj
 0001:00100d00       ??A?$map@VName@Imf@@USlice@2@U?$less@VName@Imf@@@std@@V?$allocator@U?$pair@$$CBVName@Imf@@USlice@2@@std@@@5@@std@@QAEAAUSlice@Imf@@$$QAVName@3@@Z 10101d00 f i OpenExr:ImfFrameBuffer.obj
 0001:00100da0       ?_Buynode0@?$_Tree_buy@U?$pair@$$CBVName@Imf@@USlice@2@@std@@V?$allocator@U?$pair@$$CBVName@Imf@@USlice@2@@std@@@2@@std@@QAEPAU?$_Tree_node@U?$pair@$$CBVName@Imf@@USlice@2@@std@@PAX@2@XZ 10101da0 f i OpenExr:ImfFrameBuffer.obj
 0001:00100de0       ??0OutputFile@Imf@@QAE@QBDABVHeader@1@H@Z 10101de0 f   OpenExr:ImfOutputFile.obj
 0001:001010f0       ??0OutputFile@Imf@@QAE@AAVOStream@1@ABVHeader@1@H@Z 101020f0 f   OpenExr:ImfOutputFile.obj
 0001:001013e0       ??1OutputFile@Imf@@UAE@XZ  101023e0 f   OpenExr:ImfOutputFile.obj
 0001:00101540       ?fileName@OutputFile@Imf@@QBEPBDXZ 10102540 f   OpenExr:ImfOutputFile.obj
 0001:00101560       ?header@OutputFile@Imf@@QBEABVHeader@2@XZ 10102560 f   OpenExr:ImfOutputFile.obj
 0001:00101570       ?setFrameBuffer@OutputFile@Imf@@QAEXABVFrameBuffer@2@@Z 10102570 f   OpenExr:ImfOutputFile.obj
 0001:00101b70       ?frameBuffer@OutputFile@Imf@@QBEABVFrameBuffer@2@XZ 10102b70 f   OpenExr:ImfOutputFile.obj
 0001:00101ba0       ?writePixels@OutputFile@Imf@@QAEXH@Z 10102ba0 f   OpenExr:ImfOutputFile.obj
 0001:001021b0       ?currentScanLine@OutputFile@Imf@@QBEHXZ 101031b0 f   OpenExr:ImfOutputFile.obj
 0001:001021e0       ?copyPixels@OutputFile@Imf@@QAEXAAVInputFile@2@@Z 101031e0 f   OpenExr:ImfOutputFile.obj
 0001:00102a50       ?copyPixels@OutputFile@Imf@@QAEXAAVInputPart@2@@Z 10103a50 f   OpenExr:ImfOutputFile.obj
 0001:00102a70       ?updatePreviewImage@OutputFile@Imf@@QAEXQBUPreviewRgba@2@@Z 10103a70 f   OpenExr:ImfOutputFile.obj
 0001:00102dc0       ?breakScanLine@OutputFile@Imf@@QAEXHHHD@Z 10103dc0 f   OpenExr:ImfOutputFile.obj
 0001:00102fe0       ??0OutputFile@Imf@@AAE@PBUOutputPartData@1@@Z 10103fe0 f   OpenExr:ImfOutputFile.obj
 0001:00103280       ?initialize@OutputFile@Imf@@AAEXABVHeader@2@@Z 10104280 f   OpenExr:ImfOutputFile.obj
 0001:00103520       ??0OutSliceInfo@?A0x63a57f46@Imf@@QAE@W4PixelType@2@PBDIIHH_N@Z 10104520 f   OpenExr:ImfOutputFile.obj
 0001:00103560       ??0LineBuffer@?A0x63a57f46@Imf@@QAE@PAVCompressor@2@@Z 10104560 f   OpenExr:ImfOutputFile.obj
 0001:001035f0       ??1LineBuffer@?A0x63a57f46@Imf@@QAE@XZ 101045f0 f   OpenExr:ImfOutputFile.obj
 0001:00103680       ??0Data@OutputFile@Imf@@QAE@H@Z 10104680 f   OpenExr:ImfOutputFile.obj
 0001:001037d0       ??1Data@OutputFile@Imf@@QAE@XZ 101047d0 f   OpenExr:ImfOutputFile.obj
 0001:001039a0       ?writeLineOffsets@?A0x63a57f46@Imf@@YA_KAAVOStream@2@ABV?$vector@_KV?$allocator@_K@std@@@std@@@Z 101049a0 f   OpenExr:ImfOutputFile.obj
 0001:00103af0       ?writePixelData@?A0x63a57f46@Imf@@YAXPAUOutputStreamMutex@2@PAUData@OutputFile@2@HQBDH@Z 10104af0 f   OpenExr:ImfOutputFile.obj
 0001:00103c10       ?convertToXdr@?A0x63a57f46@Imf@@YAXPAUData@OutputFile@2@AAV?$Array@D@2@HHH@Z 10104c10 f   OpenExr:ImfOutputFile.obj
 0001:00103d50       ??0LineBufferTask@?A0x63a57f46@Imf@@QAE@PAVTaskGroup@IlmThread@@PAUData@OutputFile@2@HHH@Z 10104d50 f   OpenExr:ImfOutputFile.obj
 0001:00103e60       ??1LineBufferTask@?A0x63a57f46@Imf@@UAE@XZ 10104e60 f   OpenExr:ImfOutputFile.obj
 0001:00103ec0       ?execute@LineBufferTask@?A0x63a57f46@Imf@@UAEXXZ 10104ec0 f   OpenExr:ImfOutputFile.obj
 0001:001041d0       ??$?6DU?$char_traits@D@std@@V?$allocator@D@1@@std@@YAAAV?$basic_ostream@DU?$char_traits@D@std@@@0@AAV10@ABV?$basic_string@DU?$char_traits@D@std@@V?$allocator@D@2@@0@@Z 101051d0 f i OpenExr:ImfOutputFile.obj
 0001:001043c0       ??$_Buynode@AAU?$pair@$$CBVName@Imf@@USlice@2@@std@@@?$_Tree_buy@U?$pair@$$CBVName@Imf@@USlice@2@@std@@V?$allocator@U?$pair@$$CBVName@Imf@@USlice@2@@std@@@2@@std@@QAEPAU?$_Tree_node@U?$pair@$$CBVName@Imf@@USlice@2@@std@@PAX@1@AAU?$pair@$$CBVName@Imf@@USlice@2@@1@@Z 101053c0 f i OpenExr:ImfOutputFile.obj
 0001:001043f0       ??$_Copy@U?$integral_constant@_N$0A@@std@@@?$_Tree@V?$_Tmap_traits@VName@Imf@@USlice@2@U?$less@VName@Imf@@@std@@V?$allocator@U?$pair@$$CBVName@Imf@@USlice@2@@std@@@5@$0A@@std@@@std@@IAEXABV01@U?$integral_constant@_N$0A@@1@@Z 101053f0 f i OpenExr:ImfOutputFile.obj
 0001:00104470       ??$_Copy_impl@PAUOutSliceInfo@?A0x63a57f46@Imf@@PAU123@@std@@YAPAUOutSliceInfo@?A0x63a57f46@Imf@@PAU123@00@Z 10105470 f i OpenExr:ImfOutputFile.obj
 0001:001044b0       ??$_Copy_nodes@U?$integral_constant@_N$0A@@std@@@?$_Tree@V?$_Tmap_traits@VName@Imf@@USlice@2@U?$less@VName@Imf@@@std@@V?$allocator@U?$pair@$$CBVName@Imf@@USlice@2@@std@@@5@$0A@@std@@@std@@IAEPAU?$_Tree_node@U?$pair@$$CBVName@Imf@@USlice@2@@std@@PAX@1@PAU21@0U?$integral_constant@_N$0A@@1@@Z 101054b0 f i OpenExr:ImfOutputFile.obj
 0001:00104570       ??$_Uninit_move@PAUOutSliceInfo@?A0x63a57f46@Imf@@PAU123@V?$allocator@UOutSliceInfo@?A0x63a57f46@Imf@@@std@@U123@@std@@YAPAUOutSliceInfo@?A0x63a57f46@Imf@@PAU123@00AAU?$_Wrap_alloc@V?$allocator@UOutSliceInfo@?A0x63a57f46@Imf@@@std@@@0@0U_Nonscalar_ptr_iterator_tag@0@@Z 10105570 f i OpenExr:ImfOutputFile.obj
 0001:00104570       ??$_Uninit_copy@PAUOutSliceInfo@?A0x63a57f46@Imf@@PAU123@V?$allocator@UOutSliceInfo@?A0x63a57f46@Imf@@@std@@@std@@YAPAUOutSliceInfo@?A0x63a57f46@Imf@@PAU123@00AAU?$_Wrap_alloc@V?$allocator@UOutSliceInfo@?A0x63a57f46@Imf@@@std@@@0@U_Nonscalar_ptr_iterator_tag@0@@Z 10105570 f i OpenExr:ImfOutputFile.obj
 0001:001045b0       ??0IoExc@Iex@@QAE@ABV01@@Z 101055b0 f i OpenExr:ImfOutputFile.obj
 0001:001045d0       ??0LogicExc@Iex@@QAE@ABV01@@Z 101055d0 f i OpenExr:ImfOutputFile.obj
 0001:001045f0       ??1GenericOutputFile@Imf@@UAE@XZ 101055f0 f i OpenExr:ImfOutputFile.obj
 0001:00104600       ??1IoExc@Iex@@UAE@XZ       10105600 f i OpenExr:ImfOutputFile.obj
 0001:00104610       ??1LogicExc@Iex@@UAE@XZ    10105610 f i OpenExr:ImfOutputFile.obj
 0001:00104620       ??4?$basic_string@DU?$char_traits@D@std@@V?$allocator@D@2@@std@@QAEAAV01@PBD@Z 10105620 f i OpenExr:ImfOutputFile.obj
 0001:00104660       ??4?$vector@UOutSliceInfo@?A0x63a57f46@Imf@@V?$allocator@UOutSliceInfo@?A0x63a57f46@Imf@@@std@@@std@@QAEAAV01@ABV01@@Z 10105660 f i OpenExr:ImfOutputFile.obj
 0001:001047f0       ??_EGenericOutputFile@Imf@@UAEPAXI@Z 101057f0 f i OpenExr:ImfOutputFile.obj
 0001:001047f0       ??_GGenericOutputFile@Imf@@UAEPAXI@Z 101057f0 f i OpenExr:ImfOutputFile.obj
 0001:00104820       ??_EIoExc@Iex@@UAEPAXI@Z   10105820 f i OpenExr:ImfOutputFile.obj
 0001:00104820       ??_GIoExc@Iex@@UAEPAXI@Z   10105820 f i OpenExr:ImfOutputFile.obj
 0001:00104850       ??_GLineBufferTask@?A0x63a57f46@Imf@@UAEPAXI@Z 10105850 f i OpenExr:ImfOutputFile.obj
 0001:00104850       ??_ELineBufferTask@?A0x63a57f46@Imf@@UAEPAXI@Z 10105850 f i OpenExr:ImfOutputFile.obj
 0001:001048d0       ??_ELogicExc@Iex@@UAEPAXI@Z 101058d0 f i OpenExr:ImfOutputFile.obj
 0001:001048d0       ??_GLogicExc@Iex@@UAEPAXI@Z 101058d0 f i OpenExr:ImfOutputFile.obj
 0001:00104900       ??_EOutputFile@Imf@@UAEPAXI@Z 10105900 f i OpenExr:ImfOutputFile.obj
 0001:00104900       ??_GOutputFile@Imf@@UAEPAXI@Z 10105900 f i OpenExr:ImfOutputFile.obj
 0001:00104930       ??_EInputStreamMutex@Imf@@UAEPAXI@Z 10105930 f i OpenExr:ImfInputFile.obj
 0001:00104930       ??_EOutputStreamMutex@Imf@@UAEPAXI@Z 10105930 f i OpenExr:ImfOutputFile.obj
 0001:00104930       ??_GInputStreamMutex@Imf@@UAEPAXI@Z 10105930 f i OpenExr:ImfInputFile.obj
 0001:00104930       ??_GOutputStreamMutex@Imf@@UAEPAXI@Z 10105930 f i OpenExr:ImfOutputFile.obj
 0001:00104960       ?_Buy@?$vector@UOutSliceInfo@?A0x63a57f46@Imf@@V?$allocator@UOutSliceInfo@?A0x63a57f46@Imf@@@std@@@std@@IAE_NI@Z 10105960 f i OpenExr:ImfOutputFile.obj
 0001:001049d0       ?_Reallocate@?$vector@UOutSliceInfo@?A0x63a57f46@Imf@@V?$allocator@UOutSliceInfo@?A0x63a57f46@Imf@@@std@@@std@@IAEXI@Z 101059d0 f i OpenExr:ImfOutputFile.obj
 0001:00104ad0       ?_Reallocate@?$vector@_KV?$allocator@_K@std@@@std@@IAEXI@Z 10105ad0 f i OpenExr:ImfOutputFile.obj
 0001:00104b50       ?_Reserve@?$vector@UOutSliceInfo@?A0x63a57f46@Imf@@V?$allocator@UOutSliceInfo@?A0x63a57f46@Imf@@@std@@@std@@IAEXI@Z 10105b50 f i OpenExr:ImfOutputFile.obj
 0001:00104bc0       ?_Reserve@?$vector@_KV?$allocator@_K@std@@@std@@IAEXI@Z 10105bc0 f i OpenExr:ImfOutputFile.obj
 0001:00104c40       ?push_back@?$vector@UOutSliceInfo@?A0x63a57f46@Imf@@V?$allocator@UOutSliceInfo@?A0x63a57f46@Imf@@@std@@@std@@QAEX$$QAUOutSliceInfo@?A0x63a57f46@Imf@@@Z 10105c40 f i OpenExr:ImfOutputFile.obj
 0001:00104cf0       ?resize@?$vector@_KV?$allocator@_K@std@@@std@@QAEXI@Z 10105cf0 f i OpenExr:ImfOutputFile.obj
 0001:00104d90       ??0InputFile@Imf@@QAE@QBDH@Z 10105d90 f   OpenExr:ImfInputFile.obj
 0001:001050e0       ??0InputFile@Imf@@QAE@AAVIStream@1@H@Z 101060e0 f   OpenExr:ImfInputFile.obj
 0001:001053e0       ??1InputFile@Imf@@UAE@XZ   101063e0 f   OpenExr:ImfInputFile.obj
 0001:00105470       ?fileName@InputFile@Imf@@QBEPBDXZ 10106470 f   OpenExr:ImfInputFile.obj
 0001:00105480       ?header@InputFile@Imf@@QBEABVHeader@2@XZ 10106480 f   OpenExr:ImfInputFile.obj
 0001:00105490       ?version@InputFile@Imf@@QBEHXZ 10106490 f   OpenExr:ImfInputFile.obj
 0001:001054a0       ?setFrameBuffer@InputFile@Imf@@QAEXABVFrameBuffer@2@@Z 101064a0 f   OpenExr:ImfInputFile.obj
 0001:00105990       ?frameBuffer@InputFile@Imf@@QBEABVFrameBuffer@2@XZ 10106990 f   OpenExr:ImfInputFile.obj
 0001:001059d0       ?isComplete@InputFile@Imf@@QBE_NXZ 101069d0 f   OpenExr:ImfInputFile.obj
 0001:00105a00       ?isOptimizationEnabled@InputFile@Imf@@QBE_NXZ 10106a00 f   OpenExr:ImfInputFile.obj
 0001:00105a20       ?readPixels@InputFile@Imf@@QAEXHH@Z 10106a20 f   OpenExr:ImfInputFile.obj
 0001:00105ae0       ?readPixels@InputFile@Imf@@QAEXH@Z 10106ae0 f   OpenExr:ImfInputFile.obj
 0001:00105b00       ?rawPixelData@InputFile@Imf@@QAEXHAAPBDAAH@Z 10106b00 f   OpenExr:ImfInputFile.obj
 0001:00105d00       ?rawTileData@InputFile@Imf@@QAEXAAH000AAPBD0@Z 10106d00 f   OpenExr:ImfInputFile.obj
 0001:00105ed0       ??0InputFile@Imf@@AAE@PAUInputPartData@1@@Z 10106ed0 f   OpenExr:ImfInputFile.obj
 0001:00105f90       ?initialize@InputFile@Imf@@AAEXXZ 10106f90 f   OpenExr:ImfInputFile.obj
 0001:00106590       ?multiPartInitialize@InputFile@Imf@@AAEXPAUInputPartData@2@@Z 10107590 f   OpenExr:ImfInputFile.obj
 0001:001065e0       ?compatibilityInitialize@InputFile@Imf@@AAEXAAVIStream@2@@Z 101075e0 f   OpenExr:ImfInputFile.obj
 0001:001066b0       ?tFile@InputFile@Imf@@AAEPAVTiledInputFile@2@XZ 101076b0 f   OpenExr:ImfInputFile.obj
 0001:00106700       ??0Data@InputFile@Imf@@QAE@H@Z 10107700 f   OpenExr:ImfInputFile.obj
 0001:00106800       ??1Data@InputFile@Imf@@UAE@XZ 10107800 f   OpenExr:ImfInputFile.obj
 0001:001068d0       ?deleteCachedBuffer@Data@InputFile@Imf@@QAEXXZ 101078d0 f   OpenExr:ImfInputFile.obj
 0001:00106a20       ?bufferedReadPixels@?A0xb395b248@Imf@@YAXPAUData@InputFile@2@HH@Z 10107a20 f   OpenExr:ImfInputFile.obj
 0001:00106e70       ??1GenericInputFile@Imf@@UAE@XZ 10107e70 f i OpenExr:ImfInputFile.obj
 0001:00106e80       ??1InputStreamMutex@Imf@@UAE@XZ 10107e80 f i OpenExr:ImfInputFile.obj
 0001:00106e90       ??_GData@InputFile@Imf@@UAEPAXI@Z 10107e90 f i OpenExr:ImfInputFile.obj
 0001:00106e90       ??_EData@InputFile@Imf@@UAEPAXI@Z 10107e90 f i OpenExr:ImfInputFile.obj
 0001:00106ec0       ??_GGenericInputFile@Imf@@UAEPAXI@Z 10107ec0 f i OpenExr:ImfInputFile.obj
 0001:00106ec0       ??_EGenericInputFile@Imf@@UAEPAXI@Z 10107ec0 f i OpenExr:ImfInputFile.obj
 0001:00106ef0       ??_EInputFile@Imf@@UAEPAXI@Z 10107ef0 f i OpenExr:ImfInputFile.obj
 0001:00106ef0       ??_GInputFile@Imf@@UAEPAXI@Z 10107ef0 f i OpenExr:ImfInputFile.obj
 0001:00106f90       ?computeYw@RgbaYca@Imf@@YA?AV?$Vec3@M@Imath@@ABUChromaticities@2@@Z 10107f90 f   OpenExr:ImfRgbaYca.obj
 0001:00107040       ?RGBAtoYCA@RgbaYca@Imf@@YAXABV?$Vec3@M@Imath@@H_NQBURgba@2@QAU52@@Z 10108040 f   OpenExr:ImfRgbaYca.obj
 0001:00107380       ?decimateChromaHoriz@RgbaYca@Imf@@YAXHQBURgba@2@QAU32@@Z 10108380 f   OpenExr:ImfRgbaYca.obj
 0001:001077c0       ?decimateChromaVert@RgbaYca@Imf@@YAXHQBQBURgba@2@QAU32@@Z 101087c0 f   OpenExr:ImfRgbaYca.obj
 0001:00107c40       ?roundYCA@RgbaYca@Imf@@YAXHIIQBURgba@2@QAU32@@Z 10108c40 f   OpenExr:ImfRgbaYca.obj
 0001:00107d40       ?reconstructChromaHoriz@RgbaYca@Imf@@YAXHQBURgba@2@QAU32@@Z 10108d40 f   OpenExr:ImfRgbaYca.obj
 0001:00108160       ?reconstructChromaVert@RgbaYca@Imf@@YAXHQBQBURgba@2@QAU32@@Z 10109160 f   OpenExr:ImfRgbaYca.obj
 0001:001085a0       ?YCAtoRGBA@RgbaYca@Imf@@YAXABV?$Vec3@M@Imath@@HQBURgba@2@QAU52@@Z 101095a0 f   OpenExr:ImfRgbaYca.obj
 0001:001087b0       ?fixSaturation@RgbaYca@Imf@@YAXABV?$Vec3@M@Imath@@HQBQBURgba@2@QAU52@@Z 101097b0 f   OpenExr:ImfRgbaYca.obj
 0001:00108980       ?desaturate@?A0xd0595a47@RgbaYca@Imf@@YAXABURgba@3@MABV?$Vec3@M@Imath@@AAU43@@Z 10109980 f   OpenExr:ImfRgbaYca.obj
 0001:00108c70       ??Xhalf@@QAEAAV0@M@Z       10109c70 f i OpenExr:ImfRgbaYca.obj
 0001:00108d00       ?round@half@@QBE?AV1@I@Z   10109d00 f i OpenExr:ImfRgbaYca.obj
 0001:00108d80       ?saturation@?A0xd0595a47@RgbaYca@Imf@@YAMABURgba@3@@Z 10109d80 f i OpenExr:ImfRgbaYca.obj
 0001:00108e40       ?addChromaticities@Imf@@YAXAAVHeader@1@ABUChromaticities@1@@Z 10109e40 f   OpenExr:ImfStandardAttributes.obj
 0001:00108ed0       ?hasChromaticities@Imf@@YA_NABVHeader@1@@Z 10109ed0 f   OpenExr:ImfStandardAttributes.obj
 0001:00108ef0       ?chromaticitiesAttribute@Imf@@YAABV?$TypedAttribute@UChromaticities@Imf@@@1@ABVHeader@1@@Z 10109ef0 f   OpenExr:ImfStandardAttributes.obj
 0001:00108f60       ?chromaticitiesAttribute@Imf@@YAAAV?$TypedAttribute@UChromaticities@Imf@@@1@AAVHeader@1@@Z 10109f60 f   OpenExr:ImfStandardAttributes.obj
 0001:00108fd0       ?chromaticities@Imf@@YAABUChromaticities@1@ABVHeader@1@@Z 10109fd0 f   OpenExr:ImfStandardAttributes.obj
 0001:00108ff0       ?chromaticities@Imf@@YAAAUChromaticities@1@AAVHeader@1@@Z 10109ff0 f   OpenExr:ImfStandardAttributes.obj
 0001:00109010       ?addWhiteLuminance@Imf@@YAXAAVHeader@1@ABM@Z 1010a010 f   OpenExr:ImfStandardAttributes.obj
 0001:00109090       ?hasWhiteLuminance@Imf@@YA_NABVHeader@1@@Z 1010a090 f   OpenExr:ImfStandardAttributes.obj
 0001:001090b0       ?whiteLuminanceAttribute@Imf@@YAABV?$TypedAttribute@M@1@ABVHeader@1@@Z 1010a0b0 f   OpenExr:ImfStandardAttributes.obj
 0001:00109120       ?whiteLuminanceAttribute@Imf@@YAAAV?$TypedAttribute@M@1@AAVHeader@1@@Z 1010a120 f   OpenExr:ImfStandardAttributes.obj
 0001:00109190       ?whiteLuminance@Imf@@YAABMABVHeader@1@@Z 1010a190 f   OpenExr:ImfStandardAttributes.obj
 0001:001091b0       ?whiteLuminance@Imf@@YAAAMAAVHeader@1@@Z 1010a1b0 f   OpenExr:ImfStandardAttributes.obj
 0001:001091d0       ?addAdoptedNeutral@Imf@@YAXAAVHeader@1@ABV?$Vec2@M@Imath@@@Z 1010a1d0 f   OpenExr:ImfStandardAttributes.obj
 0001:00109260       ?hasAdoptedNeutral@Imf@@YA_NABVHeader@1@@Z 1010a260 f   OpenExr:ImfStandardAttributes.obj
 0001:00109280       ?adoptedNeutralAttribute@Imf@@YAABV?$TypedAttribute@V?$Vec2@M@Imath@@@1@ABVHeader@1@@Z 1010a280 f   OpenExr:ImfStandardAttributes.obj
 0001:001092f0       ?adoptedNeutralAttribute@Imf@@YAAAV?$TypedAttribute@V?$Vec2@M@Imath@@@1@AAVHeader@1@@Z 1010a2f0 f   OpenExr:ImfStandardAttributes.obj
 0001:00109360       ?adoptedNeutral@Imf@@YAABV?$Vec2@M@Imath@@ABVHeader@1@@Z 1010a360 f   OpenExr:ImfStandardAttributes.obj
 0001:00109380       ?adoptedNeutral@Imf@@YAAAV?$Vec2@M@Imath@@AAVHeader@1@@Z 1010a380 f   OpenExr:ImfStandardAttributes.obj
 0001:001093a0       ?addRenderingTransform@Imf@@YAXAAVHeader@1@ABV?$basic_string@DU?$char_traits@D@std@@V?$allocator@D@2@@std@@@Z 1010a3a0 f   OpenExr:ImfStandardAttributes.obj
 0001:00109470       ?hasRenderingTransform@Imf@@YA_NABVHeader@1@@Z 1010a470 f   OpenExr:ImfStandardAttributes.obj
 0001:00109490       ?renderingTransformAttribute@Imf@@YAABV?$TypedAttribute@V?$basic_string@DU?$char_traits@D@std@@V?$allocator@D@2@@std@@@1@ABVHeader@1@@Z 1010a490 f   OpenExr:ImfStandardAttributes.obj
 0001:00109500       ?renderingTransformAttribute@Imf@@YAAAV?$TypedAttribute@V?$basic_string@DU?$char_traits@D@std@@V?$allocator@D@2@@std@@@1@AAVHeader@1@@Z 1010a500 f   OpenExr:ImfStandardAttributes.obj
 0001:00109570       ?renderingTransform@Imf@@YAABV?$basic_string@DU?$char_traits@D@std@@V?$allocator@D@2@@std@@ABVHeader@1@@Z 1010a570 f   OpenExr:ImfStandardAttributes.obj
 0001:00109590       ?renderingTransform@Imf@@YAAAV?$basic_string@DU?$char_traits@D@std@@V?$allocator@D@2@@std@@AAVHeader@1@@Z 1010a590 f   OpenExr:ImfStandardAttributes.obj
 0001:001095b0       ?addLookModTransform@Imf@@YAXAAVHeader@1@ABV?$basic_string@DU?$char_traits@D@std@@V?$allocator@D@2@@std@@@Z 1010a5b0 f   OpenExr:ImfStandardAttributes.obj
 0001:00109680       ?hasLookModTransform@Imf@@YA_NABVHeader@1@@Z 1010a680 f   OpenExr:ImfStandardAttributes.obj
 0001:001096a0       ?lookModTransformAttribute@Imf@@YAABV?$TypedAttribute@V?$basic_string@DU?$char_traits@D@std@@V?$allocator@D@2@@std@@@1@ABVHeader@1@@Z 1010a6a0 f   OpenExr:ImfStandardAttributes.obj
 0001:00109710       ?lookModTransformAttribute@Imf@@YAAAV?$TypedAttribute@V?$basic_string@DU?$char_traits@D@std@@V?$allocator@D@2@@std@@@1@AAVHeader@1@@Z 1010a710 f   OpenExr:ImfStandardAttributes.obj
 0001:00109780       ?lookModTransform@Imf@@YAABV?$basic_string@DU?$char_traits@D@std@@V?$allocator@D@2@@std@@ABVHeader@1@@Z 1010a780 f   OpenExr:ImfStandardAttributes.obj
 0001:001097a0       ?lookModTransform@Imf@@YAAAV?$basic_string@DU?$char_traits@D@std@@V?$allocator@D@2@@std@@AAVHeader@1@@Z 1010a7a0 f   OpenExr:ImfStandardAttributes.obj
 0001:001097c0       ?addXDensity@Imf@@YAXAAVHeader@1@ABM@Z 1010a7c0 f   OpenExr:ImfStandardAttributes.obj
 0001:00109840       ?hasXDensity@Imf@@YA_NABVHeader@1@@Z 1010a840 f   OpenExr:ImfStandardAttributes.obj
 0001:00109860       ?xDensityAttribute@Imf@@YAABV?$TypedAttribute@M@1@ABVHeader@1@@Z 1010a860 f   OpenExr:ImfStandardAttributes.obj
 0001:001098d0       ?xDensityAttribute@Imf@@YAAAV?$TypedAttribute@M@1@AAVHeader@1@@Z 1010a8d0 f   OpenExr:ImfStandardAttributes.obj
 0001:00109940       ?xDensity@Imf@@YAABMABVHeader@1@@Z 1010a940 f   OpenExr:ImfStandardAttributes.obj
 0001:00109960       ?xDensity@Imf@@YAAAMAAVHeader@1@@Z 1010a960 f   OpenExr:ImfStandardAttributes.obj
 0001:00109980       ?addOwner@Imf@@YAXAAVHeader@1@ABV?$basic_string@DU?$char_traits@D@std@@V?$allocator@D@2@@std@@@Z 1010a980 f   OpenExr:ImfStandardAttributes.obj
 0001:00109a50       ?hasOwner@Imf@@YA_NABVHeader@1@@Z 1010aa50 f   OpenExr:ImfStandardAttributes.obj
 0001:00109a70       ?ownerAttribute@Imf@@YAABV?$TypedAttribute@V?$basic_string@DU?$char_traits@D@std@@V?$allocator@D@2@@std@@@1@ABVHeader@1@@Z 1010aa70 f   OpenExr:ImfStandardAttributes.obj
 0001:00109ae0       ?ownerAttribute@Imf@@YAAAV?$TypedAttribute@V?$basic_string@DU?$char_traits@D@std@@V?$allocator@D@2@@std@@@1@AAVHeader@1@@Z 1010aae0 f   OpenExr:ImfStandardAttributes.obj
 0001:00109b50       ?owner@Imf@@YAABV?$basic_string@DU?$char_traits@D@std@@V?$allocator@D@2@@std@@ABVHeader@1@@Z 1010ab50 f   OpenExr:ImfStandardAttributes.obj
 0001:00109b70       ?owner@Imf@@YAAAV?$basic_string@DU?$char_traits@D@std@@V?$allocator@D@2@@std@@AAVHeader@1@@Z 1010ab70 f   OpenExr:ImfStandardAttributes.obj
 0001:00109b90       ?addComments@Imf@@YAXAAVHeader@1@ABV?$basic_string@DU?$char_traits@D@std@@V?$allocator@D@2@@std@@@Z 1010ab90 f   OpenExr:ImfStandardAttributes.obj
 0001:00109c60       ?hasComments@Imf@@YA_NABVHeader@1@@Z 1010ac60 f   OpenExr:ImfStandardAttributes.obj
 0001:00109c80       ?commentsAttribute@Imf@@YAABV?$TypedAttribute@V?$basic_string@DU?$char_traits@D@std@@V?$allocator@D@2@@std@@@1@ABVHeader@1@@Z 1010ac80 f   OpenExr:ImfStandardAttributes.obj
 0001:00109cf0       ?commentsAttribute@Imf@@YAAAV?$TypedAttribute@V?$basic_string@DU?$char_traits@D@std@@V?$allocator@D@2@@std@@@1@AAVHeader@1@@Z 1010acf0 f   OpenExr:ImfStandardAttributes.obj
 0001:00109d60       ?comments@Imf@@YAABV?$basic_string@DU?$char_traits@D@std@@V?$allocator@D@2@@std@@ABVHeader@1@@Z 1010ad60 f   OpenExr:ImfStandardAttributes.obj
 0001:00109d80       ?comments@Imf@@YAAAV?$basic_string@DU?$char_traits@D@std@@V?$allocator@D@2@@std@@AAVHeader@1@@Z 1010ad80 f   OpenExr:ImfStandardAttributes.obj
 0001:00109da0       ?addCapDate@Imf@@YAXAAVHeader@1@ABV?$basic_string@DU?$char_traits@D@std@@V?$allocator@D@2@@std@@@Z 1010ada0 f   OpenExr:ImfStandardAttributes.obj
 0001:00109e70       ?hasCapDate@Imf@@YA_NABVHeader@1@@Z 1010ae70 f   OpenExr:ImfStandardAttributes.obj
 0001:00109e90       ?capDateAttribute@Imf@@YAABV?$TypedAttribute@V?$basic_string@DU?$char_traits@D@std@@V?$allocator@D@2@@std@@@1@ABVHeader@1@@Z 1010ae90 f   OpenExr:ImfStandardAttributes.obj
 0001:00109f00       ?capDateAttribute@Imf@@YAAAV?$TypedAttribute@V?$basic_string@DU?$char_traits@D@std@@V?$allocator@D@2@@std@@@1@AAVHeader@1@@Z 1010af00 f   OpenExr:ImfStandardAttributes.obj
 0001:00109f70       ?capDate@Imf@@YAABV?$basic_string@DU?$char_traits@D@std@@V?$allocator@D@2@@std@@ABVHeader@1@@Z 1010af70 f   OpenExr:ImfStandardAttributes.obj
 0001:00109f90       ?capDate@Imf@@YAAAV?$basic_string@DU?$char_traits@D@std@@V?$allocator@D@2@@std@@AAVHeader@1@@Z 1010af90 f   OpenExr:ImfStandardAttributes.obj
 0001:00109fb0       ?addUtcOffset@Imf@@YAXAAVHeader@1@ABM@Z 1010afb0 f   OpenExr:ImfStandardAttributes.obj
 0001:0010a030       ?hasUtcOffset@Imf@@YA_NABVHeader@1@@Z 1010b030 f   OpenExr:ImfStandardAttributes.obj
 0001:0010a050       ?utcOffsetAttribute@Imf@@YAABV?$TypedAttribute@M@1@ABVHeader@1@@Z 1010b050 f   OpenExr:ImfStandardAttributes.obj
 0001:0010a0c0       ?utcOffsetAttribute@Imf@@YAAAV?$TypedAttribute@M@1@AAVHeader@1@@Z 1010b0c0 f   OpenExr:ImfStandardAttributes.obj
 0001:0010a130       ?utcOffset@Imf@@YAABMABVHeader@1@@Z 1010b130 f   OpenExr:ImfStandardAttributes.obj
 0001:0010a150       ?utcOffset@Imf@@YAAAMAAVHeader@1@@Z 1010b150 f   OpenExr:ImfStandardAttributes.obj
 0001:0010a170       ?addLongitude@Imf@@YAXAAVHeader@1@ABM@Z 1010b170 f   OpenExr:ImfStandardAttributes.obj
 0001:0010a1f0       ?hasLongitude@Imf@@YA_NABVHeader@1@@Z 1010b1f0 f   OpenExr:ImfStandardAttributes.obj
 0001:0010a210       ?longitudeAttribute@Imf@@YAABV?$TypedAttribute@M@1@ABVHeader@1@@Z 1010b210 f   OpenExr:ImfStandardAttributes.obj
 0001:0010a280       ?longitudeAttribute@Imf@@YAAAV?$TypedAttribute@M@1@AAVHeader@1@@Z 1010b280 f   OpenExr:ImfStandardAttributes.obj
 0001:0010a2f0       ?longitude@Imf@@YAABMABVHeader@1@@Z 1010b2f0 f   OpenExr:ImfStandardAttributes.obj
 0001:0010a310       ?longitude@Imf@@YAAAMAAVHeader@1@@Z 1010b310 f   OpenExr:ImfStandardAttributes.obj
 0001:0010a330       ?addLatitude@Imf@@YAXAAVHeader@1@ABM@Z 1010b330 f   OpenExr:ImfStandardAttributes.obj
 0001:0010a3b0       ?hasLatitude@Imf@@YA_NABVHeader@1@@Z 1010b3b0 f   OpenExr:ImfStandardAttributes.obj
 0001:0010a3d0       ?latitudeAttribute@Imf@@YAABV?$TypedAttribute@M@1@ABVHeader@1@@Z 1010b3d0 f   OpenExr:ImfStandardAttributes.obj
 0001:0010a440       ?latitudeAttribute@Imf@@YAAAV?$TypedAttribute@M@1@AAVHeader@1@@Z 1010b440 f   OpenExr:ImfStandardAttributes.obj
 0001:0010a4b0       ?latitude@Imf@@YAABMABVHeader@1@@Z 1010b4b0 f   OpenExr:ImfStandardAttributes.obj
 0001:0010a4d0       ?latitude@Imf@@YAAAMAAVHeader@1@@Z 1010b4d0 f   OpenExr:ImfStandardAttributes.obj
 0001:0010a4f0       ?addAltitude@Imf@@YAXAAVHeader@1@ABM@Z 1010b4f0 f   OpenExr:ImfStandardAttributes.obj
 0001:0010a570       ?hasAltitude@Imf@@YA_NABVHeader@1@@Z 1010b570 f   OpenExr:ImfStandardAttributes.obj
 0001:0010a590       ?altitudeAttribute@Imf@@YAABV?$TypedAttribute@M@1@ABVHeader@1@@Z 1010b590 f   OpenExr:ImfStandardAttributes.obj
 0001:0010a600       ?altitudeAttribute@Imf@@YAAAV?$TypedAttribute@M@1@AAVHeader@1@@Z 1010b600 f   OpenExr:ImfStandardAttributes.obj
 0001:0010a670       ?altitude@Imf@@YAABMABVHeader@1@@Z 1010b670 f   OpenExr:ImfStandardAttributes.obj
 0001:0010a690       ?altitude@Imf@@YAAAMAAVHeader@1@@Z 1010b690 f   OpenExr:ImfStandardAttributes.obj
 0001:0010a6b0       ?addFocus@Imf@@YAXAAVHeader@1@ABM@Z 1010b6b0 f   OpenExr:ImfStandardAttributes.obj
 0001:0010a730       ?hasFocus@Imf@@YA_NABVHeader@1@@Z 1010b730 f   OpenExr:ImfStandardAttributes.obj
 0001:0010a750       ?focusAttribute@Imf@@YAABV?$TypedAttribute@M@1@ABVHeader@1@@Z 1010b750 f   OpenExr:ImfStandardAttributes.obj
 0001:0010a7c0       ?focusAttribute@Imf@@YAAAV?$TypedAttribute@M@1@AAVHeader@1@@Z 1010b7c0 f   OpenExr:ImfStandardAttributes.obj
 0001:0010a830       ?focus@Imf@@YAABMABVHeader@1@@Z 1010b830 f   OpenExr:ImfStandardAttributes.obj
 0001:0010a850       ?focus@Imf@@YAAAMAAVHeader@1@@Z 1010b850 f   OpenExr:ImfStandardAttributes.obj
 0001:0010a870       ?addExpTime@Imf@@YAXAAVHeader@1@ABM@Z 1010b870 f   OpenExr:ImfStandardAttributes.obj
 0001:0010a8f0       ?hasExpTime@Imf@@YA_NABVHeader@1@@Z 1010b8f0 f   OpenExr:ImfStandardAttributes.obj
 0001:0010a910       ?expTimeAttribute@Imf@@YAABV?$TypedAttribute@M@1@ABVHeader@1@@Z 1010b910 f   OpenExr:ImfStandardAttributes.obj
 0001:0010a980       ?expTimeAttribute@Imf@@YAAAV?$TypedAttribute@M@1@AAVHeader@1@@Z 1010b980 f   OpenExr:ImfStandardAttributes.obj
 0001:0010a9f0       ?expTime@Imf@@YAABMABVHeader@1@@Z 1010b9f0 f   OpenExr:ImfStandardAttributes.obj
 0001:0010aa10       ?expTime@Imf@@YAAAMAAVHeader@1@@Z 1010ba10 f   OpenExr:ImfStandardAttributes.obj
 0001:0010aa30       ?addAperture@Imf@@YAXAAVHeader@1@ABM@Z 1010ba30 f   OpenExr:ImfStandardAttributes.obj
 0001:0010aab0       ?hasAperture@Imf@@YA_NABVHeader@1@@Z 1010bab0 f   OpenExr:ImfStandardAttributes.obj
 0001:0010aad0       ?apertureAttribute@Imf@@YAABV?$TypedAttribute@M@1@ABVHeader@1@@Z 1010bad0 f   OpenExr:ImfStandardAttributes.obj
 0001:0010ab40       ?apertureAttribute@Imf@@YAAAV?$TypedAttribute@M@1@AAVHeader@1@@Z 1010bb40 f   OpenExr:ImfStandardAttributes.obj
 0001:0010abb0       ?aperture@Imf@@YAABMABVHeader@1@@Z 1010bbb0 f   OpenExr:ImfStandardAttributes.obj
 0001:0010abd0       ?aperture@Imf@@YAAAMAAVHeader@1@@Z 1010bbd0 f   OpenExr:ImfStandardAttributes.obj
 0001:0010abf0       ?addIsoSpeed@Imf@@YAXAAVHeader@1@ABM@Z 1010bbf0 f   OpenExr:ImfStandardAttributes.obj
 0001:0010ac70       ?hasIsoSpeed@Imf@@YA_NABVHeader@1@@Z 1010bc70 f   OpenExr:ImfStandardAttributes.obj
 0001:0010ac90       ?isoSpeedAttribute@Imf@@YAABV?$TypedAttribute@M@1@ABVHeader@1@@Z 1010bc90 f   OpenExr:ImfStandardAttributes.obj
 0001:0010ad00       ?isoSpeedAttribute@Imf@@YAAAV?$TypedAttribute@M@1@AAVHeader@1@@Z 1010bd00 f   OpenExr:ImfStandardAttributes.obj
 0001:0010ad70       ?isoSpeed@Imf@@YAABMABVHeader@1@@Z 1010bd70 f   OpenExr:ImfStandardAttributes.obj
 0001:0010ad90       ?isoSpeed@Imf@@YAAAMAAVHeader@1@@Z 1010bd90 f   OpenExr:ImfStandardAttributes.obj
 0001:0010adb0       ?addEnvmap@Imf@@YAXAAVHeader@1@ABW4Envmap@1@@Z 1010bdb0 f   OpenExr:ImfStandardAttributes.obj
 0001:0010ae30       ?hasEnvmap@Imf@@YA_NABVHeader@1@@Z 1010be30 f   OpenExr:ImfStandardAttributes.obj
 0001:0010ae50       ?envmapAttribute@Imf@@YAABV?$TypedAttribute@W4Envmap@Imf@@@1@ABVHeader@1@@Z 1010be50 f   OpenExr:ImfStandardAttributes.obj
 0001:0010aec0       ?envmapAttribute@Imf@@YAAAV?$TypedAttribute@W4Envmap@Imf@@@1@AAVHeader@1@@Z 1010bec0 f   OpenExr:ImfStandardAttributes.obj
 0001:0010af30       ?envmap@Imf@@YAABW4Envmap@1@ABVHeader@1@@Z 1010bf30 f   OpenExr:ImfStandardAttributes.obj
 0001:0010af50       ?envmap@Imf@@YAAAW4Envmap@1@AAVHeader@1@@Z 1010bf50 f   OpenExr:ImfStandardAttributes.obj
 0001:0010af70       ?addKeyCode@Imf@@YAXAAVHeader@1@ABVKeyCode@1@@Z 1010bf70 f   OpenExr:ImfStandardAttributes.obj
 0001:0010b000       ?hasKeyCode@Imf@@YA_NABVHeader@1@@Z 1010c000 f   OpenExr:ImfStandardAttributes.obj
 0001:0010b020       ?keyCodeAttribute@Imf@@YAABV?$TypedAttribute@VKeyCode@Imf@@@1@ABVHeader@1@@Z 1010c020 f   OpenExr:ImfStandardAttributes.obj
 0001:0010b090       ?keyCodeAttribute@Imf@@YAAAV?$TypedAttribute@VKeyCode@Imf@@@1@AAVHeader@1@@Z 1010c090 f   OpenExr:ImfStandardAttributes.obj
 0001:0010b100       ?keyCode@Imf@@YAABVKeyCode@1@ABVHeader@1@@Z 1010c100 f   OpenExr:ImfStandardAttributes.obj
 0001:0010b120       ?keyCode@Imf@@YAAAVKeyCode@1@AAVHeader@1@@Z 1010c120 f   OpenExr:ImfStandardAttributes.obj
 0001:0010b140       ?addTimeCode@Imf@@YAXAAVHeader@1@ABVTimeCode@1@@Z 1010c140 f   OpenExr:ImfStandardAttributes.obj
 0001:0010b1d0       ?hasTimeCode@Imf@@YA_NABVHeader@1@@Z 1010c1d0 f   OpenExr:ImfStandardAttributes.obj
 0001:0010b1f0       ?timeCodeAttribute@Imf@@YAABV?$TypedAttribute@VTimeCode@Imf@@@1@ABVHeader@1@@Z 1010c1f0 f   OpenExr:ImfStandardAttributes.obj
 0001:0010b260       ?timeCodeAttribute@Imf@@YAAAV?$TypedAttribute@VTimeCode@Imf@@@1@AAVHeader@1@@Z 1010c260 f   OpenExr:ImfStandardAttributes.obj
 0001:0010b2d0       ?timeCode@Imf@@YAABVTimeCode@1@ABVHeader@1@@Z 1010c2d0 f   OpenExr:ImfStandardAttributes.obj
 0001:0010b2f0       ?timeCode@Imf@@YAAAVTimeCode@1@AAVHeader@1@@Z 1010c2f0 f   OpenExr:ImfStandardAttributes.obj
 0001:0010b310       ?addWrapmodes@Imf@@YAXAAVHeader@1@ABV?$basic_string@DU?$char_traits@D@std@@V?$allocator@D@2@@std@@@Z 1010c310 f   OpenExr:ImfStandardAttributes.obj
 0001:0010b3e0       ?hasWrapmodes@Imf@@YA_NABVHeader@1@@Z 1010c3e0 f   OpenExr:ImfStandardAttributes.obj
 0001:0010b400       ?wrapmodesAttribute@Imf@@YAABV?$TypedAttribute@V?$basic_string@DU?$char_traits@D@std@@V?$allocator@D@2@@std@@@1@ABVHeader@1@@Z 1010c400 f   OpenExr:ImfStandardAttributes.obj
 0001:0010b470       ?wrapmodesAttribute@Imf@@YAAAV?$TypedAttribute@V?$basic_string@DU?$char_traits@D@std@@V?$allocator@D@2@@std@@@1@AAVHeader@1@@Z 1010c470 f   OpenExr:ImfStandardAttributes.obj
 0001:0010b4e0       ?wrapmodes@Imf@@YAABV?$basic_string@DU?$char_traits@D@std@@V?$allocator@D@2@@std@@ABVHeader@1@@Z 1010c4e0 f   OpenExr:ImfStandardAttributes.obj
 0001:0010b500       ?wrapmodes@Imf@@YAAAV?$basic_string@DU?$char_traits@D@std@@V?$allocator@D@2@@std@@AAVHeader@1@@Z 1010c500 f   OpenExr:ImfStandardAttributes.obj
 0001:0010b520       ?addFramesPerSecond@Imf@@YAXAAVHeader@1@ABVRational@1@@Z 1010c520 f   OpenExr:ImfStandardAttributes.obj
 0001:0010b5a0       ?hasFramesPerSecond@Imf@@YA_NABVHeader@1@@Z 1010c5a0 f   OpenExr:ImfStandardAttributes.obj
 0001:0010b5c0       ?framesPerSecondAttribute@Imf@@YAABV?$TypedAttribute@VRational@Imf@@@1@ABVHeader@1@@Z 1010c5c0 f   OpenExr:ImfStandardAttributes.obj
 0001:0010b630       ?framesPerSecondAttribute@Imf@@YAAAV?$TypedAttribute@VRational@Imf@@@1@AAVHeader@1@@Z 1010c630 f   OpenExr:ImfStandardAttributes.obj
 0001:0010b6a0       ?framesPerSecond@Imf@@YAABVRational@1@ABVHeader@1@@Z 1010c6a0 f   OpenExr:ImfStandardAttributes.obj
 0001:0010b6c0       ?framesPerSecond@Imf@@YAAAVRational@1@AAVHeader@1@@Z 1010c6c0 f   OpenExr:ImfStandardAttributes.obj
 0001:0010b6e0       ?addMultiView@Imf@@YAXAAVHeader@1@ABV?$vector@V?$basic_string@DU?$char_traits@D@std@@V?$allocator@D@2@@std@@V?$allocator@V?$basic_string@DU?$char_traits@D@std@@V?$allocator@D@2@@std@@@2@@std@@@Z 1010c6e0 f   OpenExr:ImfStandardAttributes.obj
 0001:0010b7a0       ?hasMultiView@Imf@@YA_NABVHeader@1@@Z 1010c7a0 f   OpenExr:ImfStandardAttributes.obj
 0001:0010b7c0       ?multiViewAttribute@Imf@@YAABV?$TypedAttribute@V?$vector@V?$basic_string@DU?$char_traits@D@std@@V?$allocator@D@2@@std@@V?$allocator@V?$basic_string@DU?$char_traits@D@std@@V?$allocator@D@2@@std@@@2@@std@@@1@ABVHeader@1@@Z 1010c7c0 f   OpenExr:ImfStandardAttributes.obj
 0001:0010b830       ?multiViewAttribute@Imf@@YAAAV?$TypedAttribute@V?$vector@V?$basic_string@DU?$char_traits@D@std@@V?$allocator@D@2@@std@@V?$allocator@V?$basic_string@DU?$char_traits@D@std@@V?$allocator@D@2@@std@@@2@@std@@@1@AAVHeader@1@@Z 1010c830 f   OpenExr:ImfStandardAttributes.obj
 0001:0010b8a0       ?multiView@Imf@@YAABV?$vector@V?$basic_string@DU?$char_traits@D@std@@V?$allocator@D@2@@std@@V?$allocator@V?$basic_string@DU?$char_traits@D@std@@V?$allocator@D@2@@std@@@2@@std@@ABVHeader@1@@Z 1010c8a0 f   OpenExr:ImfStandardAttributes.obj
 0001:0010b8c0       ?multiView@Imf@@YAAAV?$vector@V?$basic_string@DU?$char_traits@D@std@@V?$allocator@D@2@@std@@V?$allocator@V?$basic_string@DU?$char_traits@D@std@@V?$allocator@D@2@@std@@@2@@std@@AAVHeader@1@@Z 1010c8c0 f   OpenExr:ImfStandardAttributes.obj
 0001:0010b8e0       ?addWorldToCamera@Imf@@YAXAAVHeader@1@ABV?$Matrix44@M@Imath@@@Z 1010c8e0 f   OpenExr:ImfStandardAttributes.obj
 0001:0010b970       ?hasWorldToCamera@Imf@@YA_NABVHeader@1@@Z 1010c970 f   OpenExr:ImfStandardAttributes.obj
 0001:0010b990       ?worldToCameraAttribute@Imf@@YAABV?$TypedAttribute@V?$Matrix44@M@Imath@@@1@ABVHeader@1@@Z 1010c990 f   OpenExr:ImfStandardAttributes.obj
 0001:0010ba00       ?worldToCameraAttribute@Imf@@YAAAV?$TypedAttribute@V?$Matrix44@M@Imath@@@1@AAVHeader@1@@Z 1010ca00 f   OpenExr:ImfStandardAttributes.obj
 0001:0010ba70       ?worldToCamera@Imf@@YAABV?$Matrix44@M@Imath@@ABVHeader@1@@Z 1010ca70 f   OpenExr:ImfStandardAttributes.obj
 0001:0010ba90       ?worldToCamera@Imf@@YAAAV?$Matrix44@M@Imath@@AAVHeader@1@@Z 1010ca90 f   OpenExr:ImfStandardAttributes.obj
 0001:0010bab0       ?addWorldToNDC@Imf@@YAXAAVHeader@1@ABV?$Matrix44@M@Imath@@@Z 1010cab0 f   OpenExr:ImfStandardAttributes.obj
 0001:0010bb40       ?hasWorldToNDC@Imf@@YA_NABVHeader@1@@Z 1010cb40 f   OpenExr:ImfStandardAttributes.obj
 0001:0010bb60       ?worldToNDCAttribute@Imf@@YAABV?$TypedAttribute@V?$Matrix44@M@Imath@@@1@ABVHeader@1@@Z 1010cb60 f   OpenExr:ImfStandardAttributes.obj
 0001:0010bbd0       ?worldToNDCAttribute@Imf@@YAAAV?$TypedAttribute@V?$Matrix44@M@Imath@@@1@AAVHeader@1@@Z 1010cbd0 f   OpenExr:ImfStandardAttributes.obj
 0001:0010bc40       ?worldToNDC@Imf@@YAABV?$Matrix44@M@Imath@@ABVHeader@1@@Z 1010cc40 f   OpenExr:ImfStandardAttributes.obj
 0001:0010bc60       ?worldToNDC@Imf@@YAAAV?$Matrix44@M@Imath@@AAVHeader@1@@Z 1010cc60 f   OpenExr:ImfStandardAttributes.obj
 0001:0010bc80       ?addDeepImageState@Imf@@YAXAAVHeader@1@ABW4DeepImageState@1@@Z 1010cc80 f   OpenExr:ImfStandardAttributes.obj
 0001:0010bd00       ?hasDeepImageState@Imf@@YA_NABVHeader@1@@Z 1010cd00 f   OpenExr:ImfStandardAttributes.obj
 0001:0010bd20       ?deepImageStateAttribute@Imf@@YAABV?$TypedAttribute@W4DeepImageState@Imf@@@1@ABVHeader@1@@Z 1010cd20 f   OpenExr:ImfStandardAttributes.obj
 0001:0010bd90       ?deepImageStateAttribute@Imf@@YAAAV?$TypedAttribute@W4DeepImageState@Imf@@@1@AAVHeader@1@@Z 1010cd90 f   OpenExr:ImfStandardAttributes.obj
 0001:0010be00       ?deepImageState@Imf@@YAABW4DeepImageState@1@ABVHeader@1@@Z 1010ce00 f   OpenExr:ImfStandardAttributes.obj
 0001:0010be20       ?deepImageState@Imf@@YAAAW4DeepImageState@1@AAVHeader@1@@Z 1010ce20 f   OpenExr:ImfStandardAttributes.obj
 0001:0010be40       ?addOriginalDataWindow@Imf@@YAXAAVHeader@1@ABV?$Box@V?$Vec2@H@Imath@@@Imath@@@Z 1010ce40 f   OpenExr:ImfStandardAttributes.obj
 0001:0010bed0       ?hasOriginalDataWindow@Imf@@YA_NABVHeader@1@@Z 1010ced0 f   OpenExr:ImfStandardAttributes.obj
 0001:0010bef0       ?originalDataWindowAttribute@Imf@@YAABV?$TypedAttribute@V?$Box@V?$Vec2@H@Imath@@@Imath@@@1@ABVHeader@1@@Z 1010cef0 f   OpenExr:ImfStandardAttributes.obj
 0001:0010bf60       ?originalDataWindowAttribute@Imf@@YAAAV?$TypedAttribute@V?$Box@V?$Vec2@H@Imath@@@Imath@@@1@AAVHeader@1@@Z 1010cf60 f   OpenExr:ImfStandardAttributes.obj
 0001:0010bfd0       ?originalDataWindow@Imf@@YAABV?$Box@V?$Vec2@H@Imath@@@Imath@@ABVHeader@1@@Z 1010cfd0 f   OpenExr:ImfStandardAttributes.obj
 0001:0010bff0       ?originalDataWindow@Imf@@YAAAV?$Box@V?$Vec2@H@Imath@@@Imath@@AAVHeader@1@@Z 1010cff0 f   OpenExr:ImfStandardAttributes.obj
 0001:0010c010       ?addDwaCompressionLevel@Imf@@YAXAAVHeader@1@ABM@Z 1010d010 f   OpenExr:ImfStandardAttributes.obj
 0001:0010c090       ?hasDwaCompressionLevel@Imf@@YA_NABVHeader@1@@Z 1010d090 f   OpenExr:ImfStandardAttributes.obj
 0001:0010c0b0       ?dwaCompressionLevelAttribute@Imf@@YAABV?$TypedAttribute@M@1@ABVHeader@1@@Z 1010d0b0 f   OpenExr:ImfStandardAttributes.obj
 0001:0010c120       ?dwaCompressionLevelAttribute@Imf@@YAAAV?$TypedAttribute@M@1@AAVHeader@1@@Z 1010d120 f   OpenExr:ImfStandardAttributes.obj
 0001:0010c190       ?dwaCompressionLevel@Imf@@YAABMABVHeader@1@@Z 1010d190 f   OpenExr:ImfStandardAttributes.obj
 0001:0010c1b0       ?dwaCompressionLevel@Imf@@YAAAMAAVHeader@1@@Z 1010d1b0 f   OpenExr:ImfStandardAttributes.obj
 0001:0010c1d0       ??$findTypedAttribute@V?$TypedAttribute@M@Imf@@@Header@Imf@@QBEPBV?$TypedAttribute@M@1@QBD@Z 1010d1d0 f i OpenExr:ImfStandardAttributes.obj
 0001:0010c2b0       ??$findTypedAttribute@V?$TypedAttribute@UChromaticities@Imf@@@Imf@@@Header@Imf@@QBEPBV?$TypedAttribute@UChromaticities@Imf@@@1@QBD@Z 1010d2b0 f i OpenExr:ImfStandardAttributes.obj
 0001:0010c390       ??$findTypedAttribute@V?$TypedAttribute@V?$Box@V?$Vec2@H@Imath@@@Imath@@@Imf@@@Header@Imf@@QBEPBV?$TypedAttribute@V?$Box@V?$Vec2@H@Imath@@@Imath@@@1@QBD@Z 1010d390 f i OpenExr:ImfStandardAttributes.obj
 0001:0010c470       ??$findTypedAttribute@V?$TypedAttribute@V?$Matrix44@M@Imath@@@Imf@@@Header@Imf@@QBEPBV?$TypedAttribute@V?$Matrix44@M@Imath@@@1@QBD@Z 1010d470 f i OpenExr:ImfStandardAttributes.obj
 0001:0010c550       ??$findTypedAttribute@V?$TypedAttribute@V?$Vec2@M@Imath@@@Imf@@@Header@Imf@@QBEPBV?$TypedAttribute@V?$Vec2@M@Imath@@@1@QBD@Z 1010d550 f i OpenExr:ImfStandardAttributes.obj
 0001:0010c630       ??$findTypedAttribute@V?$TypedAttribute@V?$vector@V?$basic_string@DU?$char_traits@D@std@@V?$allocator@D@2@@std@@V?$allocator@V?$basic_string@DU?$char_traits@D@std@@V?$allocator@D@2@@std@@@2@@std@@@Imf@@@Header@Imf@@QBEPBV?$TypedAttribute@V?$vector@V?$basic_string@DU?$char_traits@D@std@@V?$allocator@D@2@@std@@V?$allocator@V?$basic_string@DU?$char_traits@D@std@@V?$allocator@D@2@@std@@@2@@std@@@1@QBD@Z 1010d630 f i OpenExr:ImfStandardAttributes.obj
 0001:0010c710       ??$findTypedAttribute@V?$TypedAttribute@VKeyCode@Imf@@@Imf@@@Header@Imf@@QBEPBV?$TypedAttribute@VKeyCode@Imf@@@1@QBD@Z 1010d710 f i OpenExr:ImfStandardAttributes.obj
 0001:0010c7f0       ??$findTypedAttribute@V?$TypedAttribute@VRational@Imf@@@Imf@@@Header@Imf@@QBEPBV?$TypedAttribute@VRational@Imf@@@1@QBD@Z 1010d7f0 f i OpenExr:ImfStandardAttributes.obj
 0001:0010c8d0       ??$findTypedAttribute@V?$TypedAttribute@VTimeCode@Imf@@@Imf@@@Header@Imf@@QBEPBV?$TypedAttribute@VTimeCode@Imf@@@1@QBD@Z 1010d8d0 f i OpenExr:ImfStandardAttributes.obj
 0001:0010c9b0       ??$findTypedAttribute@V?$TypedAttribute@W4DeepImageState@Imf@@@Imf@@@Header@Imf@@QBEPBV?$TypedAttribute@W4DeepImageState@Imf@@@1@QBD@Z 1010d9b0 f i OpenExr:ImfStandardAttributes.obj
 0001:0010ca90       ??$findTypedAttribute@V?$TypedAttribute@W4Envmap@Imf@@@Imf@@@Header@Imf@@QBEPBV?$TypedAttribute@W4Envmap@Imf@@@1@QBD@Z 1010da90 f i OpenExr:ImfStandardAttributes.obj
 0001:0010cb70       ??0?$vector@V?$basic_string@DU?$char_traits@D@std@@V?$allocator@D@2@@std@@V?$allocator@V?$basic_string@DU?$char_traits@D@std@@V?$allocator@D@2@@std@@@2@@std@@QAE@ABV01@@Z 1010db70 f i OpenExr:ImfStandardAttributes.obj
 0001:0010cc20       ??0RleCompressor@Imf@@QAE@ABVHeader@1@I@Z 1010dc20 f   OpenExr:ImfRleCompressor.obj
 0001:0010ccf0       ??1RleCompressor@Imf@@UAE@XZ 1010dcf0 f   OpenExr:ImfRleCompressor.obj
 0001:0010cd20       ?numScanLines@RleCompressor@Imf@@UBEHXZ 1010dd20 f   OpenExr:ImfRleCompressor.obj
 0001:0010cd30       ?compress@RleCompressor@Imf@@UAEHPBDHHAAPBD@Z 1010dd30 f   OpenExr:ImfRleCompressor.obj
 0001:0010cdd0       ?uncompress@RleCompressor@Imf@@UAEHPBDHHAAPBD@Z 1010ddd0 f   OpenExr:ImfRleCompressor.obj
 0001:0010ceb0       ??_ERleCompressor@Imf@@UAEPAXI@Z 1010deb0 f i OpenExr:ImfRleCompressor.obj
 0001:0010ceb0       ??_GRleCompressor@Imf@@UAEPAXI@Z 1010deb0 f i OpenExr:ImfRleCompressor.obj
 0001:0010cef0       ??0ZipCompressor@Imf@@QAE@ABVHeader@1@II@Z 1010def0 f   OpenExr:ImfZipCompressor.obj
 0001:0010cf80       ??1ZipCompressor@Imf@@UAE@XZ 1010df80 f   OpenExr:ImfZipCompressor.obj
 0001:0010cff0       ?numScanLines@ZipCompressor@Imf@@UBEHXZ 1010dff0 f   OpenExr:ImfZipCompressor.obj
 0001:0010d000       ?compress@ZipCompressor@Imf@@UAEHPBDHHAAPBD@Z 1010e000 f   OpenExr:ImfZipCompressor.obj
 0001:0010d040       ?uncompress@ZipCompressor@Imf@@UAEHPBDHHAAPBD@Z 1010e040 f   OpenExr:ImfZipCompressor.obj
 0001:0010d080       ??_GZipCompressor@Imf@@UAEPAXI@Z 1010e080 f i OpenExr:ImfZipCompressor.obj
 0001:0010d080       ??_EZipCompressor@Imf@@UAEPAXI@Z 1010e080 f i OpenExr:ImfZipCompressor.obj
 0001:0010d100       ??0PizCompressor@Imf@@QAE@ABVHeader@1@II@Z 1010e100 f   OpenExr:ImfPizCompressor.obj
 0001:0010d3c0       ??1PizCompressor@Imf@@UAE@XZ 1010e3c0 f   OpenExr:ImfPizCompressor.obj
 0001:0010d3f0       ?numScanLines@PizCompressor@Imf@@UBEHXZ 1010e3f0 f   OpenExr:ImfPizCompressor.obj
 0001:0010d400       ?format@PizCompressor@Imf@@UBE?AW4Format@Compressor@2@XZ 1010e400 f   OpenExr:ImfPizCompressor.obj
 0001:0010d410       ?compress@PizCompressor@Imf@@UAEHPBDHHAAPBD@Z 1010e410 f   OpenExr:ImfPizCompressor.obj
 0001:0010d460       ?compressTile@PizCompressor@Imf@@UAEHPBDHV?$Box@V?$Vec2@H@Imath@@@Imath@@AAPBD@Z 1010e460 f   OpenExr:ImfPizCompressor.obj
 0001:0010d4a0       ?uncompress@PizCompressor@Imf@@UAEHPBDHHAAPBD@Z 1010e4a0 f   OpenExr:ImfPizCompressor.obj
 0001:0010d4f0       ?uncompressTile@PizCompressor@Imf@@UAEHPBDHV?$Box@V?$Vec2@H@Imath@@@Imath@@AAPBD@Z 1010e4f0 f   OpenExr:ImfPizCompressor.obj
 0001:0010d530       ?compress@PizCompressor@Imf@@AAEHPBDHV?$Box@V?$Vec2@H@Imath@@@Imath@@AAPBD@Z 1010e530 f   OpenExr:ImfPizCompressor.obj
 0001:0010da50       ?uncompress@PizCompressor@Imf@@AAEHPBDHV?$Box@V?$Vec2@H@Imath@@@Imath@@AAPBD@Z 1010ea50 f   OpenExr:ImfPizCompressor.obj
 0001:0010df50       ?bitmapFromData@?A0x0e1b8d60@Imf@@YAXQBGHQAEAAG2@Z 1010ef50 f   OpenExr:ImfPizCompressor.obj
 0001:0010dfd0       ?forwardLutFromBitmap@?A0x0e1b8d60@Imf@@YAGQBEQAG@Z 1010efd0 f   OpenExr:ImfPizCompressor.obj
 0001:0010e010       ?reverseLutFromBitmap@?A0x0e1b8d60@Imf@@YAGQBEQAG@Z 1010f010 f   OpenExr:ImfPizCompressor.obj
 0001:0010e070       ?applyLut@?A0x0e1b8d60@Imf@@YAXQBGQAGH@Z 1010f070 f   OpenExr:ImfPizCompressor.obj
 0001:0010e0a0       ??$read@UCharPtrIO@Imf@@PBD@Xdr@Imf@@YAXAAPBDAAH@Z 1010f0a0 f i OpenExr:ImfPizCompressor.obj
 0001:0010e0f0       ??1?$AutoArray@PA_K$0BAAAB@@Imf@@QAE@XZ 1010f0f0 f i OpenExr:ImfHuf.obj
 0001:0010e0f0       ??1?$AutoArray@E$0CAAA@@Imf@@QAE@XZ 1010f0f0 f i OpenExr:ImfPizCompressor.obj
 0001:0010e0f0       ??1?$AutoArray@UHufDec@?A0xf10fb5ca@Imf@@$0EAAA@@Imf@@QAE@XZ 1010f0f0 f i OpenExr:ImfHuf.obj
 0001:0010e0f0       ??1?$AutoArray@_K$0BAAAB@@Imf@@QAE@XZ 1010f0f0 f i OpenExr:ImfHuf.obj
 0001:0010e0f0       ??1?$AutoArray@G$0BAAAA@@Imf@@QAE@XZ 1010f0f0 f i OpenExr:ImfPizCompressor.obj
 0001:0010e0f0       ??1?$AutoArray@H$0BAAAB@@Imf@@QAE@XZ 1010f0f0 f i OpenExr:ImfHuf.obj
 0001:0010e100       ??_GPizCompressor@Imf@@UAEPAXI@Z 1010f100 f i OpenExr:ImfPizCompressor.obj
 0001:0010e100       ??_EPizCompressor@Imf@@UAEPAXI@Z 1010f100 f i OpenExr:ImfPizCompressor.obj
 0001:0010e150       ??0Pxr24Compressor@Imf@@QAE@ABVHeader@1@II@Z 1010f150 f   OpenExr:ImfPxr24Compressor.obj
 0001:0010e310       ??1Pxr24Compressor@Imf@@UAE@XZ 1010f310 f   OpenExr:ImfPxr24Compressor.obj
 0001:0010e340       ?numScanLines@Pxr24Compressor@Imf@@UBEHXZ 1010f340 f   OpenExr:ImfPxr24Compressor.obj
 0001:0010e350       ?format@Pxr24Compressor@Imf@@UBE?AW4Format@Compressor@2@XZ 1010f350 f   OpenExr:ImfPxr24Compressor.obj
 0001:0010e360       ?compress@Pxr24Compressor@Imf@@UAEHPBDHHAAPBD@Z 1010f360 f   OpenExr:ImfPxr24Compressor.obj
 0001:0010e3a0       ?compressTile@Pxr24Compressor@Imf@@UAEHPBDHV?$Box@V?$Vec2@H@Imath@@@Imath@@AAPBD@Z 1010f3a0 f   OpenExr:ImfPxr24Compressor.obj
 0001:0010e3e0       ?uncompress@Pxr24Compressor@Imf@@UAEHPBDHHAAPBD@Z 1010f3e0 f   OpenExr:ImfPxr24Compressor.obj
 0001:0010e420       ?uncompressTile@Pxr24Compressor@Imf@@UAEHPBDHV?$Box@V?$Vec2@H@Imath@@@Imath@@AAPBD@Z 1010f420 f   OpenExr:ImfPxr24Compressor.obj
 0001:0010e460       ?compress@Pxr24Compressor@Imf@@AAEHPBDHV?$Box@V?$Vec2@H@Imath@@@Imath@@AAPBD@Z 1010f460 f   OpenExr:ImfPxr24Compressor.obj
 0001:0010e7f0       ?uncompress@Pxr24Compressor@Imf@@AAEHPBDHV?$Box@V?$Vec2@H@Imath@@@Imath@@AAPBD@Z 1010f7f0 f   OpenExr:ImfPxr24Compressor.obj
 0001:0010eb30       ?notEnoughData@?A0x59788a9a@Imf@@YAXXZ 1010fb30 f   OpenExr:ImfPxr24Compressor.obj
 0001:0010eb70       ?tooMuchData@?A0x59788a9a@Imf@@YAXXZ 1010fb70 f   OpenExr:ImfPxr24Compressor.obj
 0001:0010ebb0       ??_GPxr24Compressor@Imf@@UAEPAXI@Z 1010fbb0 f i OpenExr:ImfPxr24Compressor.obj
 0001:0010ebb0       ??_EPxr24Compressor@Imf@@UAEPAXI@Z 1010fbb0 f i OpenExr:ImfPxr24Compressor.obj
 0001:0010ebf0       ??0B44Compressor@Imf@@QAE@ABVHeader@1@II_N@Z 1010fbf0 f   OpenExr:ImfB44Compressor.obj
 0001:0010f010       ??1B44Compressor@Imf@@UAE@XZ 10110010 f   OpenExr:ImfB44Compressor.obj
 0001:0010f040       ?numScanLines@B44Compressor@Imf@@UBEHXZ 10110040 f   OpenExr:ImfB44Compressor.obj
 0001:0010f050       ?format@B44Compressor@Imf@@UBE?AW4Format@Compressor@2@XZ 10110050 f   OpenExr:ImfB44Compressor.obj
 0001:0010f060       ?compress@B44Compressor@Imf@@UAEHPBDHHAAPBD@Z 10110060 f   OpenExr:ImfB44Compressor.obj
 0001:0010f0b0       ?compressTile@B44Compressor@Imf@@UAEHPBDHV?$Box@V?$Vec2@H@Imath@@@Imath@@AAPBD@Z 101100b0 f   OpenExr:ImfB44Compressor.obj
 0001:0010f0f0       ?uncompress@B44Compressor@Imf@@UAEHPBDHHAAPBD@Z 101100f0 f   OpenExr:ImfB44Compressor.obj
 0001:0010f140       ?uncompressTile@B44Compressor@Imf@@UAEHPBDHV?$Box@V?$Vec2@H@Imath@@@Imath@@AAPBD@Z 10110140 f   OpenExr:ImfB44Compressor.obj
 0001:0010f180       ?compress@B44Compressor@Imf@@AAEHPBDHV?$Box@V?$Vec2@H@Imath@@@Imath@@AAPBD@Z 10110180 f   OpenExr:ImfB44Compressor.obj
 0001:0010f670       ?uncompress@B44Compressor@Imf@@AAEHPBDHV?$Box@V?$Vec2@H@Imath@@@Imath@@AAPBD@Z 10110670 f   OpenExr:ImfB44Compressor.obj
 0001:0010fbb0       ?pack@?A0x7339e531@Imf@@YAHQBGQAE_N2@Z 10110bb0 f   OpenExr:ImfB44Compressor.obj
 0001:0010ff80       ?notEnoughData@?A0x7339e531@Imf@@YAXXZ 10110f80 f   OpenExr:ImfB44Compressor.obj
 0001:0010ffc0       ?tooMuchData@?A0x7339e531@Imf@@YAXXZ 10110fc0 f   OpenExr:ImfB44Compressor.obj
 0001:00110000       ??_GB44Compressor@Imf@@UAEPAXI@Z 10111000 f i OpenExr:ImfB44Compressor.obj
 0001:00110000       ??_EB44Compressor@Imf@@UAEPAXI@Z 10111000 f i OpenExr:ImfB44Compressor.obj
 0001:00110050       ?convertFromLinear@?A0x7339e531@Imf@@YAXQAG@Z 10111050 f i OpenExr:ImfB44Compressor.obj
 0001:001100b0       ?convertToLinear@?A0x7339e531@Imf@@YAXQAG@Z 101110b0 f i OpenExr:ImfB44Compressor.obj
 0001:00110110       ?unpack14@?A0x7339e531@Imf@@YAXQBEQAG@Z 10111110 f i OpenExr:ImfB44Compressor.obj
 0001:00110340       ??0Zip@Imf@@QAE@I@Z        10111340 f   OpenExr:ImfZip.obj
 0001:00110370       ??0Zip@Imf@@QAE@II@Z       10111370 f   OpenExr:ImfZip.obj
 0001:001103f0       ??1Zip@Imf@@QAE@XZ         101113f0 f   OpenExr:ImfZip.obj
 0001:00110400       ?maxRawSize@Zip@Imf@@QAEIXZ 10111400 f   OpenExr:ImfZip.obj
 0001:00110410       ?maxCompressedSize@Zip@Imf@@QAEIXZ 10111410 f   OpenExr:ImfZip.obj
 0001:001104e0       ?compress@Zip@Imf@@QAEHPBDHPAD@Z 101114e0 f   OpenExr:ImfZip.obj
 0001:001105f0       ?uncompress@Zip@Imf@@QAEHPBDHPAD@Z 101115f0 f   OpenExr:ImfZip.obj
 0001:001106b0       ??0CpuId@Imf@@QAE@XZ       101116b0 f   OpenExr:ImfSystemSpecific.obj
 0001:001106d0       ?cpuid@?A0x963ff3c0@Imf@@YAXHAAH000@Z 101116d0 f   OpenExr:ImfSystemSpecific.obj
 0001:00110700       ?xgetbv@?A0x963ff3c0@Imf@@YAXHAAH0@Z 10111700 f   OpenExr:ImfSystemSpecific.obj
 0001:00110720       ?hufCompress@Imf@@YAHQBGHQAD@Z 10111720 f   OpenExr:ImfHuf.obj
 0001:001108c0       ?hufUncompress@Imf@@YAXQBDHQAGH@Z 101118c0 f   OpenExr:ImfHuf.obj
 0001:00110b30       ?invalidNBits@?A0xf10fb5ca@Imf@@YAXXZ 10111b30 f   OpenExr:ImfHuf.obj
 0001:00110b70       ?tooMuchData@?A0xf10fb5ca@Imf@@YAXXZ 10111b70 f   OpenExr:ImfHuf.obj
 0001:00110bb0       ?notEnoughData@?A0xf10fb5ca@Imf@@YAXXZ 10111bb0 f   OpenExr:ImfHuf.obj
 0001:00110bf0       ?invalidCode@?A0xf10fb5ca@Imf@@YAXXZ 10111bf0 f   OpenExr:ImfHuf.obj
 0001:00110c30       ?invalidTableSize@?A0xf10fb5ca@Imf@@YAXXZ 10111c30 f   OpenExr:ImfHuf.obj
 0001:00110c70       ?unexpectedEndOfTable@?A0xf10fb5ca@Imf@@YAXXZ 10111c70 f   OpenExr:ImfHuf.obj
 0001:00110cb0       ?tableTooLong@?A0xf10fb5ca@Imf@@YAXXZ 10111cb0 f   OpenExr:ImfHuf.obj
 0001:00110cf0       ?invalidTableEntry@?A0xf10fb5ca@Imf@@YAXXZ 10111cf0 f   OpenExr:ImfHuf.obj
 0001:00110d30       ?hufCanonicalCodeTable@?A0xf10fb5ca@Imf@@YAXQA_K@Z 10111d30 f   OpenExr:ImfHuf.obj
 0001:00110e60       ?hufBuildEncTable@?A0xf10fb5ca@Imf@@YAXPA_KPAH1@Z 10111e60 f   OpenExr:ImfHuf.obj
 0001:00111160       ?hufPackEncTable@?A0xf10fb5ca@Imf@@YAXPB_KHHPAPAD@Z 10112160 f   OpenExr:ImfHuf.obj
 0001:00111300       ?hufUnpackEncTable@?A0xf10fb5ca@Imf@@YAXPAPBDHHHPA_K@Z 10112300 f   OpenExr:ImfHuf.obj
 0001:00111420       ?hufClearDecTable@?A0xf10fb5ca@Imf@@YAXPAUHufDec@12@@Z 10112420 f   OpenExr:ImfHuf.obj
 0001:00111440       ?hufBuildDecTable@?A0xf10fb5ca@Imf@@YAXPB_KHHPAUHufDec@12@@Z 10112440 f   OpenExr:ImfHuf.obj
 0001:001115c0       ?hufFreeDecTable@?A0xf10fb5ca@Imf@@YAXPAUHufDec@12@@Z 101125c0 f   OpenExr:ImfHuf.obj
 0001:001115f0       ?hufEncode@?A0xf10fb5ca@Imf@@YAHPB_KPBGHHPAD@Z 101125f0 f   OpenExr:ImfHuf.obj
 0001:00111890       ?hufDecode@?A0xf10fb5ca@Imf@@YAXPB_KPBUHufDec@12@PBDHHHPAG@Z 10112890 f   OpenExr:ImfHuf.obj
 0001:00111ce0       ?countFrequencies@?A0xf10fb5ca@Imf@@YAXQA_KQBGH@Z 10112ce0 f   OpenExr:ImfHuf.obj
 0001:00111d30       ?writeUInt@?A0xf10fb5ca@Imf@@YAXQADI@Z 10112d30 f   OpenExr:ImfHuf.obj
 0001:00111d60       ?readUInt@?A0xf10fb5ca@Imf@@YAIQBD@Z 10112d60 f   OpenExr:ImfHuf.obj
 0001:00111d90       ??$_Adjust_heap@PAPA_KHPA_KUFHeapCompare@?A0xf10fb5ca@Imf@@@std@@YAXPAPA_KHH$$QAPA_KUFHeapCompare@?A0xf10fb5ca@Imf@@@Z 10112d90 f i OpenExr:ImfHuf.obj
 0001:00111e10       ??$_Make_heap@PAPA_KHPA_KUFHeapCompare@?A0xf10fb5ca@Imf@@@std@@YAXPAPA_K0UFHeapCompare@?A0xf10fb5ca@Imf@@PAH0@Z 10112e10 f i OpenExr:ImfHuf.obj
 0001:00111ec0       ??$_Push_heap@PAPA_KHPA_KUFHeapCompare@?A0xf10fb5ca@Imf@@@std@@YAXPAPA_KHH$$QAPA_KUFHeapCompare@?A0xf10fb5ca@Imf@@@Z 10112ec0 f i OpenExr:ImfHuf.obj
 0001:00111f30       ??0?$AutoArray@UHufDec@?A0xf10fb5ca@Imf@@$0EAAA@@Imf@@QAE@XZ 10112f30 f i OpenExr:ImfHuf.obj
 0001:00111f60       ??0?$AutoArray@_K$0BAAAB@@Imf@@QAE@XZ 10112f60 f i OpenExr:ImfHuf.obj
 0001:00111f90       ?getBits@?A0xf10fb5ca@Imf@@YA_KHAA_KAAHAAPBD@Z 10112f90 f i OpenExr:ImfHuf.obj
 0001:00112000       ?outputBits@?A0xf10fb5ca@Imf@@YAXH_KAA_KAAHAAPAD@Z 10113000 f i OpenExr:ImfHuf.obj
 0001:00112060       ?sendCode@?A0xf10fb5ca@Imf@@YAX_KH0AA_KAAHAAPAD@Z 10113060 f i OpenExr:ImfHuf.obj
 0001:00112190       ?pixelTypeSize@Imf@@YAHW4PixelType@1@@Z 10113190 f   OpenExr:ImfMisc.obj
 0001:00112200       ?numSamples@Imf@@YAHHHH@Z  10113200 f   OpenExr:ImfMisc.obj
 0001:00112270       ?bytesPerLineTable@Imf@@YAIABVHeader@1@AAV?$vector@IV?$allocator@I@std@@@std@@@Z 10113270 f   OpenExr:ImfMisc.obj
 0001:00112430       ?sampleCount@Imf@@YAAAHPADHHHH@Z 10113430 f   OpenExr:ImfMisc.obj
 0001:00112450       ?sampleCount@Imf@@YAABHPBDHHHH@Z 10113450 f   OpenExr:ImfMisc.obj
 0001:00112470       ?bytesPerDeepLineTable@Imf@@YAIABVHeader@1@HHPBDHHAAV?$vector@IV?$allocator@I@std@@@std@@@Z 10113470 f   OpenExr:ImfMisc.obj
 0001:001126b0       ?bytesPerDeepLineTable@Imf@@YAIABVHeader@1@PADHHAAV?$vector@IV?$allocator@I@std@@@std@@@Z 101136b0 f   OpenExr:ImfMisc.obj
 0001:001126f0       ?offsetInLineBufferTable@Imf@@YAXABV?$vector@IV?$allocator@I@std@@@std@@HHHAAV23@@Z 101136f0 f   OpenExr:ImfMisc.obj
 0001:00112740       ?offsetInLineBufferTable@Imf@@YAXABV?$vector@IV?$allocator@I@std@@@std@@HAAV23@@Z 10113740 f   OpenExr:ImfMisc.obj
 0001:00112790       ?lineBufferMinY@Imf@@YAHHHH@Z 10113790 f   OpenExr:ImfMisc.obj
 0001:001127b0       ?lineBufferMaxY@Imf@@YAHHHH@Z 101137b0 f   OpenExr:ImfMisc.obj
 0001:001127d0       ?defaultFormat@Imf@@YA?AW4Format@Compressor@1@PAV31@@Z 101137d0 f   OpenExr:ImfMisc.obj
 0001:001127f0       ?numLinesInBuffer@Imf@@YAHPAVCompressor@1@@Z 101137f0 f   OpenExr:ImfMisc.obj
 0001:00112810       ?copyIntoFrameBuffer@Imf@@YAXAAPBDPAD1I_NNW4Format@Compressor@1@W4PixelType@1@4@Z 10113810 f   OpenExr:ImfMisc.obj
 0001:00112ff0       ?copyIntoDeepFrameBuffer@Imf@@YAXAAPBDPADPBDHHHHHHHHHHHH_NNW4Format@Compressor@1@W4PixelType@1@5@Z 10113ff0 f   OpenExr:ImfMisc.obj
 0001:001145b0       ?skipChannel@Imf@@YAXAAPBDW4PixelType@1@I@Z 101155b0 f   OpenExr:ImfMisc.obj
 0001:00114620       ?convertInPlace@Imf@@YAXAAPADAAPBDW4PixelType@1@I@Z 10115620 f   OpenExr:ImfMisc.obj
 0001:00114790       ?copyFromFrameBuffer@Imf@@YAXAAPADAAPBDPBDIW4Format@Compressor@1@W4PixelType@1@@Z 10115790 f   OpenExr:ImfMisc.obj
 0001:00114a20       ?copyFromDeepFrameBuffer@Imf@@YAXAAPADPBDPADHHHHHHHHHHHHW4Format@Compressor@1@W4PixelType@1@@Z 10115a20 f   OpenExr:ImfMisc.obj
 0001:00114ee0       ?fillChannelWithZeroes@Imf@@YAXAAPADW4Format@Compressor@1@W4PixelType@1@I@Z 10115ee0 f   OpenExr:ImfMisc.obj
 0001:00115120       ?usesLongNames@Imf@@YA_NABVHeader@1@@Z 10116120 f   OpenExr:ImfMisc.obj
 0001:00115240       ?getChunkOffsetTableSize@Imf@@YAHABVHeader@1@_N@Z 10116240 f   OpenExr:ImfMisc.obj
 0001:00115310       ?getScanlineChunkOffsetTableSize@Imf@@YAHABVHeader@1@@Z 10116310 f   OpenExr:ImfMisc.obj
 0001:001153e0       ??$read@UCharPtrIO@Imf@@PBD@Xdr@Imf@@YAXAAPBDAAI@Z 101163e0 f i OpenExr:ImfMisc.obj
 0001:001153e0       ??$read@UCharPtrIO@Imf@@PBD@Xdr@Imf@@YAXAAPBDAAM@Z 101163e0 f i OpenExr:ImfDwaCompressor.obj
 0001:00115430       ??$skip@UCharPtrIO@Imf@@PBD@Xdr@Imf@@YAXAAPBDH@Z 10116430 f i OpenExr:ImfMisc.obj
 0001:001154c0       ?rleCompress@Imf@@YAHHQBDQAC@Z 101164c0 f   OpenExr:ImfRle.obj
 0001:00115590       ?rleUncompress@Imf@@YAHHHQBCQAD@Z 10116590 f   OpenExr:ImfRle.obj
 0001:00115620       ?writeMagicNumberAndVersionField@GenericOutputFile@Imf@@IAEXAAVOStream@2@ABVHeader@2@@Z 10116620 f   OpenExr:ImfGenericOutputFile.obj
 0001:001156c0       ?writeMagicNumberAndVersionField@GenericOutputFile@Imf@@IAEXAAVOStream@2@PBVHeader@2@H@Z 101166c0 f   OpenExr:ImfGenericOutputFile.obj
 0001:001157a0       ?readMagicNumberAndVersionField@GenericInputFile@Imf@@IAEXAAVIStream@2@AAH@Z 101167a0 f   OpenExr:ImfGenericInputFile.obj
 0001:00115aa0       ??0ScanLineInputFile@Imf@@QAE@ABVHeader@1@PAVIStream@1@H@Z 10116aa0 f   OpenExr:ImfScanLineInputFile.obj
 0001:00115bb0       ??1ScanLineInputFile@Imf@@UAE@XZ 10116bb0 f   OpenExr:ImfScanLineInputFile.obj
 0001:00115c80       ?fileName@ScanLineInputFile@Imf@@QBEPBDXZ 10116c80 f   OpenExr:ImfScanLineInputFile.obj
 0001:00115c90       ?header@ScanLineInputFile@Imf@@QBEABVHeader@2@XZ 10116c90 f   OpenExr:ImfScanLineInputFile.obj
 0001:00115ca0       ?version@ScanLineInputFile@Imf@@QBEHXZ 10116ca0 f   OpenExr:ImfScanLineInputFile.obj
 0001:00115cb0       ?setFrameBuffer@ScanLineInputFile@Imf@@QAEXABVFrameBuffer@2@@Z 10116cb0 f   OpenExr:ImfScanLineInputFile.obj
 0001:00116690       ?frameBuffer@ScanLineInputFile@Imf@@QBEABVFrameBuffer@2@XZ 10117690 f   OpenExr:ImfScanLineInputFile.obj
 0001:001166b0       ?isComplete@ScanLineInputFile@Imf@@QBE_NXZ 101176b0 f   OpenExr:ImfScanLineInputFile.obj
 0001:001166c0       ?isOptimizationEnabled@ScanLineInputFile@Imf@@QBE_NXZ 101176c0 f   OpenExr:ImfScanLineInputFile.obj
 0001:00116730       ?readPixels@ScanLineInputFile@Imf@@QAEXHH@Z 10117730 f   OpenExr:ImfScanLineInputFile.obj
 0001:00116ad0       ?readPixels@ScanLineInputFile@Imf@@QAEXH@Z 10117ad0 f   OpenExr:ImfScanLineInputFile.obj
 0001:00116af0       ?rawPixelData@ScanLineInputFile@Imf@@QAEXHAAPBDAAH@Z 10117af0 f   OpenExr:ImfScanLineInputFile.obj
 0001:00116d10       ??0ScanLineInputFile@Imf@@AAE@PAUInputPartData@1@@Z 10117d10 f   OpenExr:ImfScanLineInputFile.obj
 0001:00116e40       ?initialize@ScanLineInputFile@Imf@@AAEXABVHeader@2@@Z 10117e40 f   OpenExr:ImfScanLineInputFile.obj
 0001:001170d0       ??0InSliceInfo@?A0xc59857b3@Imf@@QAE@W4PixelType@2@0PADIIHH_N2N@Z 101180d0 f   OpenExr:ImfScanLineInputFile.obj
 0001:00117120       ??0LineBuffer@?A0xc59857b3@Imf@@QAE@QAVCompressor@2@@Z 10118120 f   OpenExr:ImfScanLineInputFile.obj
 0001:001171c0       ??1LineBuffer@?A0xc59857b3@Imf@@QAE@XZ 101181c0 f   OpenExr:ImfScanLineInputFile.obj
 0001:00117240       ??0Data@ScanLineInputFile@Imf@@QAE@H@Z 10118240 f   OpenExr:ImfScanLineInputFile.obj
 0001:001173b0       ??1Data@ScanLineInputFile@Imf@@UAE@XZ 101183b0 f   OpenExr:ImfScanLineInputFile.obj
 0001:001175b0       ?reconstructLineOffsets@?A0xc59857b3@Imf@@YAXAAVIStream@2@W4LineOrder@2@AAV?$vector@_KV?$allocator@_K@std@@@std@@@Z 101185b0 f   OpenExr:ImfScanLineInputFile.obj
 0001:00117750       ?readLineOffsets@?A0xc59857b3@Imf@@YAXAAVIStream@2@W4LineOrder@2@AAV?$vector@_KV?$allocator@_K@std@@@std@@AA_N@Z 10118750 f   OpenExr:ImfScanLineInputFile.obj
 0001:001177d0       ?readPixelData@?A0xc59857b3@Imf@@YAXPAUInputStreamMutex@2@PAUData@ScanLineInputFile@2@HAAPADAAH@Z 101187d0 f   OpenExr:ImfScanLineInputFile.obj
 0001:00117c50       ??0LineBufferTask@?A0xc59857b3@Imf@@QAE@PAVTaskGroup@IlmThread@@PAUData@ScanLineInputFile@2@PAULineBuffer@12@HHVOptimizationMode@2@@Z 10118c50 f   OpenExr:ImfScanLineInputFile.obj
 0001:00117c90       ??1LineBufferTask@?A0xc59857b3@Imf@@UAE@XZ 10118c90 f   OpenExr:ImfScanLineInputFile.obj
 0001:00117cf0       ?execute@LineBufferTask@?A0xc59857b3@Imf@@UAEXXZ 10118cf0 f   OpenExr:ImfScanLineInputFile.obj
 0001:00118010       ??0LineBufferTaskIIF@?A0xc59857b3@Imf@@QAE@PAVTaskGroup@IlmThread@@PAUData@ScanLineInputFile@2@PAULineBuffer@12@HHVOptimizationMode@2@@Z 10119010 f   OpenExr:ImfScanLineInputFile.obj
 0001:00118050       ??1LineBufferTaskIIF@?A0xc59857b3@Imf@@UAE@XZ 10119050 f   OpenExr:ImfScanLineInputFile.obj
 0001:001180b0       ?execute@LineBufferTaskIIF@?A0xc59857b3@Imf@@UAEXXZ 101190b0 f   OpenExr:ImfScanLineInputFile.obj
 0001:00119910       ?newLineBufferTask@?A0xc59857b3@Imf@@YAPAVTask@IlmThread@@PAVTaskGroup@4@PAUInputStreamMutex@2@PAUData@ScanLineInputFile@2@HHHVOptimizationMode@2@@Z 1011a910 f   OpenExr:ImfScanLineInputFile.obj
 0001:00119ac0       ?detectOptimizationMode@?A0xc59857b3@Imf@@YA?AVOptimizationMode@2@ABV?$vector@UsliceOptimizationData@?A0xc59857b3@Imf@@V?$allocator@UsliceOptimizationData@?A0xc59857b3@Imf@@@std@@@std@@@Z 1011aac0 f   OpenExr:ImfScanLineInputFile.obj
 0001:00119ba0       ??$_Adjust_heap@PAUsliceOptimizationData@?A0xc59857b3@Imf@@HU123@U?$less@X@std@@@std@@YAXPAUsliceOptimizationData@?A0xc59857b3@Imf@@HH$$QAU123@U?$less@X@0@@Z 1011aba0 f i OpenExr:ImfScanLineInputFile.obj
 0001:00119c80       ??$_Copy_impl@PAUsliceOptimizationData@?A0xc59857b3@Imf@@PAU123@@std@@YAPAUsliceOptimizationData@?A0xc59857b3@Imf@@PAU123@00U_Nonscalar_ptr_iterator_tag@0@@Z 1011ac80 f i OpenExr:ImfScanLineInputFile.obj
 0001:00119cf0       ??$_Insertion_sort1@PAUsliceOptimizationData@?A0xc59857b3@Imf@@U?$less@X@std@@U123@@std@@YAXPAUsliceOptimizationData@?A0xc59857b3@Imf@@0U?$less@X@0@0@Z 1011acf0 f i OpenExr:ImfScanLineInputFile.obj
 0001:00119e10       ??$_Make_heap@PAUsliceOptimizationData@?A0xc59857b3@Imf@@HU123@U?$less@X@std@@@std@@YAXPAUsliceOptimizationData@?A0xc59857b3@Imf@@0U?$less@X@0@PAH0@Z 1011ae10 f i OpenExr:ImfScanLineInputFile.obj
 0001:00119f60       ??$_Median@PAUsliceOptimizationData@?A0xc59857b3@Imf@@U?$less@X@std@@@std@@YAXPAUsliceOptimizationData@?A0xc59857b3@Imf@@00U?$less@X@0@@Z 1011af60 f i OpenExr:ImfScanLineInputFile.obj
 0001:0011a0d0       ??$_Move_backward@PAUsliceOptimizationData@?A0xc59857b3@Imf@@PAU123@@std@@YAPAUsliceOptimizationData@?A0xc59857b3@Imf@@PAU123@00U_Nonscalar_ptr_iterator_tag@0@@Z 1011b0d0 f i OpenExr:ImfScanLineInputFile.obj
 0001:0011a140       ??$_Push_heap@PAUsliceOptimizationData@?A0xc59857b3@Imf@@HU123@U?$less@X@std@@@std@@YAXPAUsliceOptimizationData@?A0xc59857b3@Imf@@HH$$QAU123@U?$less@X@0@@Z 1011b140 f i OpenExr:ImfScanLineInputFile.obj
 0001:0011a200       ??$_Sort@PAUsliceOptimizationData@?A0xc59857b3@Imf@@HU?$less@X@std@@@std@@YAXPAUsliceOptimizationData@?A0xc59857b3@Imf@@0HU?$less@X@0@@Z 1011b200 f i OpenExr:ImfScanLineInputFile.obj
 0001:0011a2e0       ??$_Sort_heap@PAUsliceOptimizationData@?A0xc59857b3@Imf@@U?$less@X@std@@@std@@YAXPAUsliceOptimizationData@?A0xc59857b3@Imf@@0U?$less@X@0@@Z 1011b2e0 f i OpenExr:ImfScanLineInputFile.obj
 0001:0011a390       ??$_Unguarded_partition@PAUsliceOptimizationData@?A0xc59857b3@Imf@@U?$less@X@std@@@std@@YA?AU?$pair@PAUsliceOptimizationData@?A0xc59857b3@Imf@@PAU123@@0@PAUsliceOptimizationData@?A0xc59857b3@Imf@@0U?$less@X@0@@Z 1011b390 f i OpenExr:ImfScanLineInputFile.obj
 0001:0011a520       ??$_Uninit_move@PAUUTXEXPORTTABLE@@PAU1@V?$allocator@UUTXEXPORTTABLE@@@std@@U1@@std@@YAPAUUTXEXPORTTABLE@@PAU1@00AAU?$_Wrap_alloc@V?$allocator@UUTXEXPORTTABLE@@@std@@@0@0U_Nonscalar_ptr_iterator_tag@0@@Z 1011b520 f i il_utx.obj
 0001:0011a520       ??$_Uninit_move@PAUsliceOptimizationData@?A0xc59857b3@Imf@@PAU123@V?$allocator@UsliceOptimizationData@?A0xc59857b3@Imf@@@std@@U123@@std@@YAPAUsliceOptimizationData@?A0xc59857b3@Imf@@PAU123@00AAU?$_Wrap_alloc@V?$allocator@UsliceOptimizationData@?A0xc59857b3@Imf@@@std@@@0@0U_Nonscalar_ptr_iterator_tag@0@@Z 1011b520 f i OpenExr:ImfScanLineInputFile.obj
 0001:0011a520       ??$_Uninit_copy@PAUsliceOptimizationData@?A0xc59857b3@Imf@@PAU123@V?$allocator@UsliceOptimizationData@?A0xc59857b3@Imf@@@std@@@std@@YAPAUsliceOptimizationData@?A0xc59857b3@Imf@@PAU123@00AAU?$_Wrap_alloc@V?$allocator@UsliceOptimizationData@?A0xc59857b3@Imf@@@std@@@0@U_Nonscalar_ptr_iterator_tag@0@@Z 1011b520 f i OpenExr:ImfScanLineInputFile.obj
 0001:0011a560       ??$getWritePointer@Vhalf@@@LineBufferTaskIIF@?A0xc59857b3@Imf@@QBEXHAAPAGAAI1H@Z 1011b560 f i OpenExr:ImfScanLineInputFile.obj
 0001:0011a6d0       ??$read@UStreamIO@Imf@@VIStream@2@@Xdr@Imf@@YAXAAVIStream@1@AAN@Z 1011b6d0 f i OpenExr:ImfHeader.obj
 0001:0011a6d0       ??$read@UStreamIO@Imf@@VIStream@2@@Xdr@Imf@@YAXAAVIStream@1@AA_K@Z 1011b6d0 f i OpenExr:ImfScanLineInputFile.obj
 0001:0011a790       ??$swap@UsliceOptimizationData@?A0xc59857b3@Imf@@@std@@YAXAAUsliceOptimizationData@?A0xc59857b3@Imf@@0@Z 1011b790 f i OpenExr:ImfScanLineInputFile.obj
 0001:0011a840       ??1?$vector@UsliceOptimizationData@?A0xc59857b3@Imf@@V?$allocator@UsliceOptimizationData@?A0xc59857b3@Imf@@@std@@@std@@QAE@XZ 1011b840 f i OpenExr:ImfScanLineInputFile.obj
 0001:0011a840       ??1?$vector@UOutSliceInfo@?A0x63a57f46@Imf@@V?$allocator@UOutSliceInfo@?A0x63a57f46@Imf@@@std@@@std@@QAE@XZ 1011b840 f i OpenExr:ImfOutputFile.obj
 0001:0011a840       ??1?$vector@PAVDeepScanLineInputFile@Imf@@V?$allocator@PAVDeepScanLineInputFile@Imf@@@std@@@std@@QAE@XZ 1011b840 f i OpenExr:ImfCompositeDeepScanLine.obj
 0001:0011a840       ?_Tidy@?$vector@UTInSliceInfo@?A0xd13efcfe@Imf@@V?$allocator@UTInSliceInfo@?A0xd13efcfe@Imf@@@std@@@std@@IAEXXZ 1011b840 f i OpenExr:ImfTiledInputFile.obj
 0001:0011a840       ??1?$vector@UInSliceInfo@?A0xc59857b3@Imf@@V?$allocator@UInSliceInfo@?A0xc59857b3@Imf@@@std@@@std@@QAE@XZ 1011b840 f i OpenExr:ImfScanLineInputFile.obj
 0001:0011a840       ?_Tidy@?$vector@UUTXEXPORTTABLE@@V?$allocator@UUTXEXPORTTABLE@@@std@@@std@@IAEXXZ 1011b840 f i il_utx.obj
 0001:0011a840       ??1?$vector@PAGV?$allocator@PAG@std@@@std@@QAE@XZ 1011b840 f i OpenExr:ImfDwaCompressor.obj
 0001:0011a840       ??1?$_Vb_val@V?$allocator@_N@std@@@std@@QAE@XZ 1011b840 f i OpenExr:ImfDwaCompressor.obj
 0001:0011a840       ??1?$vector@UUTXIMPORTTABLE@@V?$allocator@UUTXIMPORTTABLE@@@std@@@std@@QAE@XZ 1011b840 f i il_utx.obj
 0001:0011a840       ?_Tidy@?$vector@Utilepos@?A0x54296fbe@Imf@@V?$allocator@Utilepos@?A0x54296fbe@Imf@@@std@@@std@@IAEXXZ 1011b840 f i OpenExr:ImfTileOffsets.obj
 0001:0011a840       ??1?$vector@PBDV?$allocator@PBD@std@@@std@@QAE@XZ 1011b840 f i OpenExr:ImfDwaCompressor.obj
 0001:0011a840       ??1?$vector@PBVHeader@Imf@@V?$allocator@PBVHeader@Imf@@@std@@@std@@QAE@XZ 1011b840 f i OpenExr:ImfCompositeDeepScanLine.obj
 0001:0011a840       ??1?$vector@PAULineBuffer@?A0x63a57f46@Imf@@V?$allocator@PAULineBuffer@?A0x63a57f46@Imf@@@std@@@std@@QAE@XZ 1011b840 f i OpenExr:ImfOutputFile.obj
 0001:0011a840       ??1?$vector@PAULineBuffer@?A0xc59857b3@Imf@@V?$allocator@PAULineBuffer@?A0xc59857b3@Imf@@@std@@@std@@QAE@XZ 1011b840 f i OpenExr:ImfScanLineInputFile.obj
 0001:0011a840       ??1?$vector@GV?$allocator@G@std@@@std@@QAE@XZ 1011b840 f i OpenExr:ImfDwaCompressor.obj
 0001:0011a840       ??1?$vector@PAULineBuffer@?A0xa01d29ce@Imf@@V?$allocator@PAULineBuffer@?A0xa01d29ce@Imf@@@std@@@std@@QAE@XZ 1011b840 f i OpenExr:ImfDeepScanLineInputFile.obj
 0001:0011a840       ?_Tidy@?$vector@UOutSliceInfo@?A0x63a57f46@Imf@@V?$allocator@UOutSliceInfo@?A0x63a57f46@Imf@@@std@@@std@@IAEXXZ 1011b840 f i OpenExr:ImfOutputFile.obj
 0001:0011a840       ?_Tidy@?$vector@UUTXIMPORTTABLE@@V?$allocator@UUTXIMPORTTABLE@@@std@@@std@@IAEXXZ 1011b840 f i il_utx.obj
 0001:0011a840       ??1?$vector@IV?$allocator@I@std@@@std@@QAE@XZ 1011b840 f i OpenExr:ImfOutputFile.obj
 0001:0011a840       ??1?$vector@Utilepos@?A0x54296fbe@Imf@@V?$allocator@Utilepos@?A0x54296fbe@Imf@@@std@@@std@@QAE@XZ 1011b840 f i OpenExr:ImfTileOffsets.obj
 0001:0011a840       ??1?$vector@PAUTInSliceInfo@?A0x757584a7@Imf@@V?$allocator@PAUTInSliceInfo@?A0x757584a7@Imf@@@std@@@std@@QAE@XZ 1011b840 f i OpenExr:ImfDeepTiledInputFile.obj
 0001:0011a840       ??1?$vector@UTInSliceInfo@?A0xd13efcfe@Imf@@V?$allocator@UTInSliceInfo@?A0xd13efcfe@Imf@@@std@@@std@@QAE@XZ 1011b840 f i OpenExr:ImfTiledInputFile.obj
 0001:0011a840       ??1?$vector@PAVDeepScanLineInputPart@Imf@@V?$allocator@PAVDeepScanLineInputPart@Imf@@@std@@@std@@QAE@XZ 1011b840 f i OpenExr:ImfCompositeDeepScanLine.obj
 0001:0011a840       ??1?$vector@PAVTileOffsets@Imf@@V?$allocator@PAVTileOffsets@Imf@@@std@@@std@@QAE@XZ 1011b840 f i OpenExr:ImfMultiPartInputFile.obj
 0001:0011a840       ?_Tidy@?$vector@UsliceOptimizationData@?A0xc59857b3@Imf@@V?$allocator@UsliceOptimizationData@?A0xc59857b3@Imf@@@std@@@std@@IAEXXZ 1011b840 f i OpenExr:ImfScanLineInputFile.obj
 0001:0011a840       ??1?$vector@MV?$allocator@M@std@@@std@@QAE@XZ 1011b840 f i OpenExr:ImfHeader.obj
 0001:0011a840       ??1?$vector@PAUTileBuffer@?A0x757584a7@Imf@@V?$allocator@PAUTileBuffer@?A0x757584a7@Imf@@@std@@@std@@QAE@XZ 1011b840 f i OpenExr:ImfDeepTiledInputFile.obj
 0001:0011a840       ??1?$vector@PAUInSliceInfo@?A0xa01d29ce@Imf@@V?$allocator@PAUInSliceInfo@?A0xa01d29ce@Imf@@@std@@@std@@QAE@XZ 1011b840 f i OpenExr:ImfDeepScanLineInputFile.obj
 0001:0011a840       ??1?$vector@PAUTileBuffer@?A0xd13efcfe@Imf@@V?$allocator@PAUTileBuffer@?A0xd13efcfe@Imf@@@std@@@std@@QAE@XZ 1011b840 f i OpenExr:ImfTiledInputFile.obj
 0001:0011a840       ?_Tidy@?$vector@UCscChannelSet@DwaCompressor@Imf@@V?$allocator@UCscChannelSet@DwaCompressor@Imf@@@std@@@std@@IAEXXZ 1011b840 f i OpenExr:ImfDwaCompressor.obj
 0001:0011a840       ??1?$vector@UCscChannelSet@DwaCompressor@Imf@@V?$allocator@UCscChannelSet@DwaCompressor@Imf@@@std@@@std@@QAE@XZ 1011b840 f i OpenExr:ImfDwaCompressor.obj
 0001:0011a840       ?_Tidy@?$vector@UInSliceInfo@?A0xc59857b3@Imf@@V?$allocator@UInSliceInfo@?A0xc59857b3@Imf@@@std@@@std@@IAEXXZ 1011b840 f i OpenExr:ImfScanLineInputFile.obj
 0001:0011a840       ??1?$vector@_KV?$allocator@_K@std@@@std@@QAE@XZ 1011b840 f i OpenExr:ImfOutputFile.obj
 0001:0011a840       ??1?$vector@UUTXEXPORTTABLE@@V?$allocator@UUTXEXPORTTABLE@@@std@@@std@@QAE@XZ 1011b840 f i il_utx.obj
 0001:0011a840       ??1?$vector@PAUInputPartData@Imf@@V?$allocator@PAUInputPartData@Imf@@@std@@@std@@QAE@XZ 1011b840 f i OpenExr:ImfMultiPartInputFile.obj
 0001:0011a840       ??1?$vector@PBMV?$allocator@PBM@std@@@std@@QAE@XZ 1011b840 f i OpenExr:ImfCompositeDeepScanLine.obj
 0001:0011a840       ??1?$vector@HV?$allocator@H@std@@@std@@QAE@XZ 1011b840 f i OpenExr:ImfMultiPartInputFile.obj
 0001:0011a870       ??4?$vector@UTInSliceInfo@?A0xd13efcfe@Imf@@V?$allocator@UTInSliceInfo@?A0xd13efcfe@Imf@@@std@@@std@@QAEAAV01@ABV01@@Z 1011b870 f i OpenExr:ImfTiledInputFile.obj
 0001:0011a870       ??4?$vector@UInSliceInfo@?A0xc59857b3@Imf@@V?$allocator@UInSliceInfo@?A0xc59857b3@Imf@@@std@@@std@@QAEAAV01@ABV01@@Z 1011b870 f i OpenExr:ImfScanLineInputFile.obj
 0001:0011a9f0       ??4?$vector@UsliceOptimizationData@?A0xc59857b3@Imf@@V?$allocator@UsliceOptimizationData@?A0xc59857b3@Imf@@@std@@@std@@QAEAAV01@ABV01@@Z 1011b9f0 f i OpenExr:ImfScanLineInputFile.obj
 0001:0011ab10       ??4?$vector@_KV?$allocator@_K@std@@@std@@QAEAAV01@ABV01@@Z 1011bb10 f i OpenExr:ImfScanLineInputFile.obj
 0001:0011ac30       ??_GData@ScanLineInputFile@Imf@@UAEPAXI@Z 1011bc30 f i OpenExr:ImfScanLineInputFile.obj
 0001:0011ac30       ??_EData@ScanLineInputFile@Imf@@UAEPAXI@Z 1011bc30 f i OpenExr:ImfScanLineInputFile.obj
 0001:0011ac60       ??_GLineBufferTask@?A0xc59857b3@Imf@@UAEPAXI@Z 1011bc60 f i OpenExr:ImfScanLineInputFile.obj
 0001:0011ac60       ??_ELineBufferTask@?A0xc59857b3@Imf@@UAEPAXI@Z 1011bc60 f i OpenExr:ImfScanLineInputFile.obj
 0001:0011ace0       ??_ELineBufferTaskIIF@?A0xc59857b3@Imf@@UAEPAXI@Z 1011bce0 f i OpenExr:ImfScanLineInputFile.obj
 0001:0011ace0       ??_GLineBufferTaskIIF@?A0xc59857b3@Imf@@UAEPAXI@Z 1011bce0 f i OpenExr:ImfScanLineInputFile.obj
 0001:0011ad60       ??_GScanLineInputFile@Imf@@UAEPAXI@Z 1011bd60 f i OpenExr:ImfScanLineInputFile.obj
 0001:0011ad60       ??_EScanLineInputFile@Imf@@UAEPAXI@Z 1011bd60 f i OpenExr:ImfScanLineInputFile.obj
 0001:0011ad90       ?_Buy@?$vector@UInSliceInfo@?A0xc59857b3@Imf@@V?$allocator@UInSliceInfo@?A0xc59857b3@Imf@@@std@@@std@@IAE_NI@Z 1011bd90 f i OpenExr:ImfScanLineInputFile.obj
 0001:0011ad90       ?_Buy@?$vector@UTInSliceInfo@?A0xd13efcfe@Imf@@V?$allocator@UTInSliceInfo@?A0xd13efcfe@Imf@@@std@@@std@@IAE_NI@Z 1011bd90 f i OpenExr:ImfTiledInputFile.obj
 0001:0011ae00       ?_Buy@?$vector@UsliceOptimizationData@?A0xc59857b3@Imf@@V?$allocator@UsliceOptimizationData@?A0xc59857b3@Imf@@@std@@@std@@IAE_NI@Z 1011be00 f i OpenExr:ImfScanLineInputFile.obj
 0001:0011ae70       ?_Reallocate@?$vector@UInSliceInfo@?A0xc59857b3@Imf@@V?$allocator@UInSliceInfo@?A0xc59857b3@Imf@@@std@@@std@@IAEXI@Z 1011be70 f i OpenExr:ImfScanLineInputFile.obj
 0001:0011ae70       ?_Reallocate@?$vector@UTInSliceInfo@?A0xd13efcfe@Imf@@V?$allocator@UTInSliceInfo@?A0xd13efcfe@Imf@@@std@@@std@@IAEXI@Z 1011be70 f i OpenExr:ImfTiledInputFile.obj
 0001:0011af60       ?_Reserve@?$vector@UInSliceInfo@?A0xc59857b3@Imf@@V?$allocator@UInSliceInfo@?A0xc59857b3@Imf@@@std@@@std@@IAEXI@Z 1011bf60 f i OpenExr:ImfScanLineInputFile.obj
 0001:0011af60       ?_Reserve@?$vector@UTInSliceInfo@?A0xd13efcfe@Imf@@V?$allocator@UTInSliceInfo@?A0xd13efcfe@Imf@@@std@@@std@@IAEXI@Z 1011bf60 f i OpenExr:ImfTiledInputFile.obj
 0001:0011b010       ?push_back@?$vector@UTInSliceInfo@?A0xd13efcfe@Imf@@V?$allocator@UTInSliceInfo@?A0xd13efcfe@Imf@@@std@@@std@@QAEX$$QAUTInSliceInfo@?A0xd13efcfe@Imf@@@Z 1011c010 f i OpenExr:ImfTiledInputFile.obj
 0001:0011b010       ?push_back@?$vector@UInSliceInfo@?A0xc59857b3@Imf@@V?$allocator@UInSliceInfo@?A0xc59857b3@Imf@@@std@@@std@@QAEX$$QAUInSliceInfo@?A0xc59857b3@Imf@@@Z 1011c010 f i OpenExr:ImfScanLineInputFile.obj
 0001:0011b0c0       ??0TiledInputFile@Imf@@QAE@QBDH@Z 1011c0c0 f   OpenExr:ImfTiledInputFile.obj
 0001:0011b430       ??0TiledInputFile@Imf@@QAE@AAVIStream@1@H@Z 1011c430 f   OpenExr:ImfTiledInputFile.obj
 0001:0011b730       ??1TiledInputFile@Imf@@UAE@XZ 1011c730 f   OpenExr:ImfTiledInputFile.obj
 0001:0011b820       ?fileName@TiledInputFile@Imf@@QBEPBDXZ 1011c820 f   OpenExr:ImfTiledInputFile.obj
 0001:0011b840       ?header@TiledInputFile@Imf@@QBEABVHeader@2@XZ 1011c840 f   OpenExr:ImfTiledInputFile.obj
 0001:0011b850       ?version@TiledInputFile@Imf@@QBEHXZ 1011c850 f   OpenExr:ImfTiledInputFile.obj
 0001:0011b860       ?setFrameBuffer@TiledInputFile@Imf@@QAEXABVFrameBuffer@2@@Z 1011c860 f   OpenExr:ImfTiledInputFile.obj
 0001:0011bf80       ?frameBuffer@TiledInputFile@Imf@@QBEABVFrameBuffer@2@XZ 1011cf80 f   OpenExr:ImfTiledInputFile.obj
 0001:0011bfb0       ?isComplete@TiledInputFile@Imf@@QBE_NXZ 1011cfb0 f   OpenExr:ImfTiledInputFile.obj
 0001:0011bfc0       ?tileXSize@TiledInputFile@Imf@@QBEIXZ 1011cfc0 f   OpenExr:ImfTiledInputFile.obj
 0001:0011bfd0       ?tileYSize@TiledInputFile@Imf@@QBEIXZ 1011cfd0 f   OpenExr:ImfTiledInputFile.obj
 0001:0011bfe0       ?levelMode@TiledInputFile@Imf@@QBE?AW4LevelMode@2@XZ 1011cfe0 f   OpenExr:ImfTiledInputFile.obj
 0001:0011bff0       ?levelRoundingMode@TiledInputFile@Imf@@QBE?AW4LevelRoundingMode@2@XZ 1011cff0 f   OpenExr:ImfTiledInputFile.obj
 0001:0011c000       ?numLevels@TiledInputFile@Imf@@QBEHXZ 1011d000 f   OpenExr:ImfTiledInputFile.obj
 0001:0011c170       ?numXLevels@TiledInputFile@Imf@@QBEHXZ 1011d170 f   OpenExr:ImfTiledInputFile.obj
 0001:0011c180       ?numYLevels@TiledInputFile@Imf@@QBEHXZ 1011d180 f   OpenExr:ImfTiledInputFile.obj
 0001:0011c190       ?isValidLevel@TiledInputFile@Imf@@QBE_NHH@Z 1011d190 f   OpenExr:ImfTiledInputFile.obj
 0001:0011c1d0       ?levelWidth@TiledInputFile@Imf@@QBEHH@Z 1011d1d0 f   OpenExr:ImfTiledInputFile.obj
 0001:0011c340       ?levelHeight@TiledInputFile@Imf@@QBEHH@Z 1011d340 f   OpenExr:ImfTiledInputFile.obj
 0001:0011c4b0       ?numXTiles@TiledInputFile@Imf@@QBEHH@Z 1011d4b0 f   OpenExr:ImfTiledInputFile.obj
 0001:0011c620       ?numYTiles@TiledInputFile@Imf@@QBEHH@Z 1011d620 f   OpenExr:ImfTiledInputFile.obj
 0001:0011c790       ?dataWindowForLevel@TiledInputFile@Imf@@QBE?AV?$Box@V?$Vec2@H@Imath@@@Imath@@H@Z 1011d790 f   OpenExr:ImfTiledInputFile.obj
 0001:0011c7b0       ?dataWindowForLevel@TiledInputFile@Imf@@QBE?AV?$Box@V?$Vec2@H@Imath@@@Imath@@HH@Z 1011d7b0 f   OpenExr:ImfTiledInputFile.obj
 0001:0011c930       ?dataWindowForTile@TiledInputFile@Imf@@QBE?AV?$Box@V?$Vec2@H@Imath@@@Imath@@HHH@Z 1011d930 f   OpenExr:ImfTiledInputFile.obj
 0001:0011c950       ?dataWindowForTile@TiledInputFile@Imf@@QBE?AV?$Box@V?$Vec2@H@Imath@@@Imath@@HHHH@Z 1011d950 f   OpenExr:ImfTiledInputFile.obj
 0001:0011cb50       ?readTile@TiledInputFile@Imf@@QAEXHHH@Z 1011db50 f   OpenExr:ImfTiledInputFile.obj
 0001:0011cb70       ?readTile@TiledInputFile@Imf@@QAEXHHHH@Z 1011db70 f   OpenExr:ImfTiledInputFile.obj
 0001:0011cb90       ?readTiles@TiledInputFile@Imf@@QAEXHHHHHH@Z 1011db90 f   OpenExr:ImfTiledInputFile.obj
 0001:0011d1e0       ?readTiles@TiledInputFile@Imf@@QAEXHHHHH@Z 1011e1e0 f   OpenExr:ImfTiledInputFile.obj
 0001:0011d200       ?rawTileData@TiledInputFile@Imf@@QAEXAAH000AAPBD0@Z 1011e200 f   OpenExr:ImfTiledInputFile.obj
 0001:0011d5b0       ??0TiledInputFile@Imf@@AAE@PAUInputPartData@1@@Z 1011e5b0 f   OpenExr:ImfTiledInputFile.obj
 0001:0011d640       ??0TiledInputFile@Imf@@AAE@ABVHeader@1@PAVIStream@1@HH@Z 1011e640 f   OpenExr:ImfTiledInputFile.obj
 0001:0011d790       ?initialize@TiledInputFile@Imf@@AAEXXZ 1011e790 f   OpenExr:ImfTiledInputFile.obj
 0001:0011dac0       ?multiPartInitialize@TiledInputFile@Imf@@AAEXPAUInputPartData@2@@Z 1011eac0 f   OpenExr:ImfTiledInputFile.obj
 0001:0011dbe0       ?compatibilityInitialize@TiledInputFile@Imf@@AAEXAAVIStream@2@@Z 1011ebe0 f   OpenExr:ImfTiledInputFile.obj
 0001:0011dc90       ?isValidTile@TiledInputFile@Imf@@ABE_NHHHH@Z 1011ec90 f   OpenExr:ImfTiledInputFile.obj
 0001:0011dce0       ?tileOrder@TiledInputFile@Imf@@ABEXQAH000@Z 1011ece0 f   OpenExr:ImfTiledInputFile.obj
 0001:0011dcf0       ??0TInSliceInfo@?A0xd13efcfe@Imf@@QAE@W4PixelType@2@0PADII_N2NHH@Z 1011ecf0 f   OpenExr:ImfTiledInputFile.obj
 0001:0011dd40       ??0TileBuffer@?A0xd13efcfe@Imf@@QAE@QAVCompressor@2@@Z 1011ed40 f   OpenExr:ImfTiledInputFile.obj
 0001:0011ddf0       ??1TileBuffer@?A0xd13efcfe@Imf@@QAE@XZ 1011edf0 f   OpenExr:ImfTiledInputFile.obj
 0001:0011de70       ??0Data@TiledInputFile@Imf@@QAE@H@Z 1011ee70 f   OpenExr:ImfTiledInputFile.obj
 0001:0011dfe0       ??1Data@TiledInputFile@Imf@@UAE@XZ 1011efe0 f   OpenExr:ImfTiledInputFile.obj
 0001:0011e1b0       ?readTileData@?A0xd13efcfe@Imf@@YAXPAUInputStreamMutex@2@PAUData@TiledInputFile@2@HHHHAAPADAAH@Z 1011f1b0 f   OpenExr:ImfTiledInputFile.obj
 0001:0011e7a0       ?readNextTileData@?A0xd13efcfe@Imf@@YAXPAUInputStreamMutex@2@PAUData@TiledInputFile@2@AAH222AAPAD2@Z 1011f7a0 f   OpenExr:ImfTiledInputFile.obj
 0001:0011e9a0       ??0TileBufferTask@?A0xd13efcfe@Imf@@QAE@PAVTaskGroup@IlmThread@@PAUData@TiledInputFile@2@PAUTileBuffer@12@@Z 1011f9a0 f   OpenExr:ImfTiledInputFile.obj
 0001:0011e9d0       ??1TileBufferTask@?A0xd13efcfe@Imf@@UAE@XZ 1011f9d0 f   OpenExr:ImfTiledInputFile.obj
 0001:0011ea30       ?execute@TileBufferTask@?A0xd13efcfe@Imf@@UAEXXZ 1011fa30 f   OpenExr:ImfTiledInputFile.obj
 0001:0011ec70       ?newTileBufferTask@?A0xd13efcfe@Imf@@YAPAVTileBufferTask@12@PAVTaskGroup@IlmThread@@PAUInputStreamMutex@2@PAUData@TiledInputFile@2@HHHHH@Z 1011fc70 f   OpenExr:ImfTiledInputFile.obj
 0001:0011ed80       ??$_Copy_impl@PAUTInSliceInfo@?A0xd13efcfe@Imf@@PAU123@@std@@YAPAUTInSliceInfo@?A0xd13efcfe@Imf@@PAU123@00@Z 1011fd80 f i OpenExr:ImfTiledInputFile.obj
 0001:0011ed80       ??$_Copy_impl@PAUInSliceInfo@?A0xc59857b3@Imf@@PAU123@@std@@YAPAUInSliceInfo@?A0xc59857b3@Imf@@PAU123@00@Z 1011fd80 f i OpenExr:ImfScanLineInputFile.obj
 0001:0011edc0       ??$_Copy_impl@PAV?$vector@V?$vector@_KV?$allocator@_K@std@@@std@@V?$allocator@V?$vector@_KV?$allocator@_K@std@@@std@@@2@@std@@PAV12@@std@@YAPAV?$vector@V?$vector@_KV?$allocator@_K@std@@@std@@V?$allocator@V?$vector@_KV?$allocator@_K@std@@@std@@@2@@0@PAV10@00@Z 1011fdc0 f i OpenExr:ImfTiledInputFile.obj
 0001:0011edf0       ??$_Copy_impl@PAV?$vector@_KV?$allocator@_K@std@@@std@@PAV12@@std@@YAPAV?$vector@_KV?$allocator@_K@std@@@0@PAV10@00@Z 1011fdf0 f i OpenExr:ImfTiledInputFile.obj
 0001:0011ee20       ??$_Destroy_range@U?$_Wrap_alloc@V?$allocator@V?$vector@PADV?$allocator@PAD@std@@@std@@@std@@@std@@@std@@YAXPAV?$vector@PADV?$allocator@PAD@std@@@0@0AAU?$_Wrap_alloc@V?$allocator@V?$vector@PADV?$allocator@PAD@std@@@std@@@std@@@0@U_Nonscalar_ptr_iterator_tag@0@@Z 1011fe20 f i OpenExr:ImfDwaCompressor.obj
 0001:0011ee20       ??$_Destroy_range@U?$_Wrap_alloc@V?$allocator@V?$vector@PAMV?$allocator@PAM@std@@@std@@@std@@@std@@@std@@YAXPAV?$vector@PAMV?$allocator@PAM@std@@@0@0AAU?$_Wrap_alloc@V?$allocator@V?$vector@PAMV?$allocator@PAM@std@@@std@@@std@@@0@U_Nonscalar_ptr_iterator_tag@0@@Z 1011fe20 f i OpenExr:ImfCompositeDeepScanLine.obj
 0001:0011ee20       ??$_Destroy_range@U?$_Wrap_alloc@V?$allocator@V?$vector@MV?$allocator@M@std@@@std@@@std@@@std@@@std@@YAXPAV?$vector@MV?$allocator@M@std@@@0@0AAU?$_Wrap_alloc@V?$allocator@V?$vector@MV?$allocator@M@std@@@std@@@std@@@0@U_Nonscalar_ptr_iterator_tag@0@@Z 1011fe20 f i OpenExr:ImfCompositeDeepScanLine.obj
 0001:0011ee20       ??$_Destroy_range@U?$_Wrap_alloc@V?$allocator@V?$vector@_KV?$allocator@_K@std@@@std@@@std@@@std@@@std@@YAXPAV?$vector@_KV?$allocator@_K@std@@@0@0AAU?$_Wrap_alloc@V?$allocator@V?$vector@_KV?$allocator@_K@std@@@std@@@std@@@0@U_Nonscalar_ptr_iterator_tag@0@@Z 1011fe20 f i OpenExr:ImfTiledInputFile.obj
 0001:0011ee20       ??$_Destroy_range@U?$_Wrap_alloc@V?$allocator@V?$vector@PBDV?$allocator@PBD@std@@@std@@@std@@@std@@@std@@YAXPAV?$vector@PBDV?$allocator@PBD@std@@@0@0AAU?$_Wrap_alloc@V?$allocator@V?$vector@PBDV?$allocator@PBD@std@@@std@@@std@@@0@U_Nonscalar_ptr_iterator_tag@0@@Z 1011fe20 f i OpenExr:ImfDwaCompressor.obj
 0001:0011ee20       ??$_Destroy_range@U?$_Wrap_alloc@V?$allocator@V?$vector@IV?$allocator@I@std@@@std@@@std@@@std@@@std@@YAXPAV?$vector@IV?$allocator@I@std@@@0@0AAU?$_Wrap_alloc@V?$allocator@V?$vector@IV?$allocator@I@std@@@std@@@std@@@0@U_Nonscalar_ptr_iterator_tag@0@@Z 1011fe20 f i OpenExr:ImfCompositeDeepScanLine.obj
 0001:0011ee60       ??$_Uninit_copy@PAV?$vector@V?$vector@_KV?$allocator@_K@std@@@std@@V?$allocator@V?$vector@_KV?$allocator@_K@std@@@std@@@2@@std@@PAV12@V?$allocator@V?$vector@V?$vector@_KV?$allocator@_K@std@@@std@@V?$allocator@V?$vector@_KV?$allocator@_K@std@@@std@@@2@@std@@@2@@std@@YAPAV?$vector@V?$vector@_KV?$allocator@_K@std@@@std@@V?$allocator@V?$vector@_KV?$allocator@_K@std@@@std@@@2@@0@PAV10@00AAU?$_Wrap_alloc@V?$allocator@V?$vector@V?$vector@_KV?$allocator@_K@std@@@std@@V?$allocator@V?$vector@_KV?$allocator@_K@std@@@std@@@2@@std@@@std@@@0@U_Nonscalar_ptr_iterator_tag@0@@Z 1011fe60 f i OpenExr:ImfTiledInputFile.obj
 0001:0011ee60       ??$_Uninit_copy@PBV?$vector@V?$vector@_KV?$allocator@_K@std@@@std@@V?$allocator@V?$vector@_KV?$allocator@_K@std@@@std@@@2@@std@@PAV12@V?$allocator@V?$vector@V?$vector@_KV?$allocator@_K@std@@@std@@V?$allocator@V?$vector@_KV?$allocator@_K@std@@@std@@@2@@std@@@2@@std@@YAPAV?$vector@V?$vector@_KV?$allocator@_K@std@@@std@@V?$allocator@V?$vector@_KV?$allocator@_K@std@@@std@@@2@@0@PBV10@0PAV10@AAU?$_Wrap_alloc@V?$allocator@V?$vector@V?$vector@_KV?$allocator@_K@std@@@std@@V?$allocator@V?$vector@_KV?$allocator@_K@std@@@std@@@2@@std@@@std@@@0@U_Nonscalar_ptr_iterator_tag@0@@Z 1011fe60 f i OpenExr:ImfMultiPartInputFile.obj
 0001:0011ef00       ??$_Uninit_copy@PBV?$vector@_KV?$allocator@_K@std@@@std@@PAV12@V?$allocator@V?$vector@_KV?$allocator@_K@std@@@std@@@2@@std@@YAPAV?$vector@_KV?$allocator@_K@std@@@0@PBV10@0PAV10@AAU?$_Wrap_alloc@V?$allocator@V?$vector@_KV?$allocator@_K@std@@@std@@@std@@@0@U_Nonscalar_ptr_iterator_tag@0@@Z 1011ff00 f i OpenExr:ImfTiledInputFile.obj
 0001:0011ef00       ??$_Uninit_copy@PAV?$vector@_KV?$allocator@_K@std@@@std@@PAV12@V?$allocator@V?$vector@_KV?$allocator@_K@std@@@std@@@2@@std@@YAPAV?$vector@_KV?$allocator@_K@std@@@0@PAV10@00AAU?$_Wrap_alloc@V?$allocator@V?$vector@_KV?$allocator@_K@std@@@std@@@std@@@0@U_Nonscalar_ptr_iterator_tag@0@@Z 1011ff00 f i OpenExr:ImfTiledInputFile.obj
 0001:0011efa0       ??$_Uninit_move@PAUInSliceInfo@?A0xc59857b3@Imf@@PAU123@V?$allocator@UInSliceInfo@?A0xc59857b3@Imf@@@std@@U123@@std@@YAPAUInSliceInfo@?A0xc59857b3@Imf@@PAU123@00AAU?$_Wrap_alloc@V?$allocator@UInSliceInfo@?A0xc59857b3@Imf@@@std@@@0@0U_Nonscalar_ptr_iterator_tag@0@@Z 1011ffa0 f i OpenExr:ImfScanLineInputFile.obj
 0001:0011efa0       ??$_Uninit_move@PAUTInSliceInfo@?A0xd13efcfe@Imf@@PAU123@V?$allocator@UTInSliceInfo@?A0xd13efcfe@Imf@@@std@@U123@@std@@YAPAUTInSliceInfo@?A0xd13efcfe@Imf@@PAU123@00AAU?$_Wrap_alloc@V?$allocator@UTInSliceInfo@?A0xd13efcfe@Imf@@@std@@@0@0U_Nonscalar_ptr_iterator_tag@0@@Z 1011ffa0 f i OpenExr:ImfTiledInputFile.obj
 0001:0011efa0       ??$_Uninit_copy@PAUInSliceInfo@?A0xc59857b3@Imf@@PAU123@V?$allocator@UInSliceInfo@?A0xc59857b3@Imf@@@std@@@std@@YAPAUInSliceInfo@?A0xc59857b3@Imf@@PAU123@00AAU?$_Wrap_alloc@V?$allocator@UInSliceInfo@?A0xc59857b3@Imf@@@std@@@0@U_Nonscalar_ptr_iterator_tag@0@@Z 1011ffa0 f i OpenExr:ImfScanLineInputFile.obj
 0001:0011efa0       ??$_Uninit_copy@PAUTInSliceInfo@?A0xd13efcfe@Imf@@PAU123@V?$allocator@UTInSliceInfo@?A0xd13efcfe@Imf@@@std@@@std@@YAPAUTInSliceInfo@?A0xd13efcfe@Imf@@PAU123@00AAU?$_Wrap_alloc@V?$allocator@UTInSliceInfo@?A0xd13efcfe@Imf@@@std@@@0@U_Nonscalar_ptr_iterator_tag@0@@Z 1011ffa0 f i OpenExr:ImfTiledInputFile.obj
 0001:0011efe0       ??$destroy@V?$vector@V?$vector@_KV?$allocator@_K@std@@@std@@V?$allocator@V?$vector@_KV?$allocator@_K@std@@@std@@@2@@std@@@?$_Wrap_alloc@V?$allocator@V?$vector@V?$vector@_KV?$allocator@_K@std@@@std@@V?$allocator@V?$vector@_KV?$allocator@_K@std@@@std@@@2@@std@@@std@@@std@@QAEXPAV?$vector@V?$vector@_KV?$allocator@_K@std@@@std@@V?$allocator@V?$vector@_KV?$allocator@_K@std@@@std@@@2@@1@@Z 1011ffe0 f i OpenExr:ImfTiledInputFile.obj
 0001:0011f020       ??$destroy@V?$vector@_KV?$allocator@_K@std@@@std@@@?$_Wrap_alloc@V?$allocator@V?$vector@_KV?$allocator@_K@std@@@std@@@std@@@std@@QAEXPAV?$vector@_KV?$allocator@_K@std@@@1@@Z 10120020 f i OpenExr:ImfTiledInputFile.obj
 0001:0011f050       ??0?$vector@V?$vector@_KV?$allocator@_K@std@@@std@@V?$allocator@V?$vector@_KV?$allocator@_K@std@@@std@@@2@@std@@QAE@ABV01@@Z 10120050 f i OpenExr:ImfTiledInputFile.obj
 0001:0011f100       ??0?$vector@_KV?$allocator@_K@std@@@std@@QAE@ABV01@@Z 10120100 f i OpenExr:ImfTiledInputFile.obj
 0001:0011f160       ??1TileOffsets@Imf@@QAE@XZ 10120160 f i OpenExr:ImfTiledInputFile.obj
 0001:0011f1b0       ??4?$vector@V?$vector@V?$vector@_KV?$allocator@_K@std@@@std@@V?$allocator@V?$vector@_KV?$allocator@_K@std@@@std@@@2@@std@@V?$allocator@V?$vector@V?$vector@_KV?$allocator@_K@std@@@std@@V?$allocator@V?$vector@_KV?$allocator@_K@std@@@std@@@2@@std@@@2@@std@@QAEAAV01@ABV01@@Z 101201b0 f i OpenExr:ImfTiledInputFile.obj
 0001:0011f380       ??4?$vector@V?$vector@_KV?$allocator@_K@std@@@std@@V?$allocator@V?$vector@_KV?$allocator@_K@std@@@std@@@2@@std@@QAEAAV01@ABV01@@Z 10120380 f i OpenExr:ImfTiledInputFile.obj
 0001:0011f550       ??_GData@TiledInputFile@Imf@@UAEPAXI@Z 10120550 f i OpenExr:ImfTiledInputFile.obj
 0001:0011f550       ??_EData@TiledInputFile@Imf@@UAEPAXI@Z 10120550 f i OpenExr:ImfTiledInputFile.obj
 0001:0011f580       ??_GTileBufferTask@?A0xd13efcfe@Imf@@UAEPAXI@Z 10120580 f i OpenExr:ImfTiledInputFile.obj
 0001:0011f580       ??_ETileBufferTask@?A0xd13efcfe@Imf@@UAEPAXI@Z 10120580 f i OpenExr:ImfTiledInputFile.obj
 0001:0011f600       ??_ETiledInputFile@Imf@@UAEPAXI@Z 10120600 f i OpenExr:ImfTiledInputFile.obj
 0001:0011f600       ??_GTiledInputFile@Imf@@UAEPAXI@Z 10120600 f i OpenExr:ImfTiledInputFile.obj
 0001:0011f630       ?_Buy@?$vector@V?$vector@IV?$allocator@I@std@@@std@@V?$allocator@V?$vector@IV?$allocator@I@std@@@std@@@2@@std@@IAE_NI@Z 10120630 f i OpenExr:ImfCompositeDeepScanLine.obj
 0001:0011f630       ?_Buy@?$vector@V?$vector@V?$vector@PAMV?$allocator@PAM@std@@@std@@V?$allocator@V?$vector@PAMV?$allocator@PAM@std@@@std@@@2@@std@@V?$allocator@V?$vector@V?$vector@PAMV?$allocator@PAM@std@@@std@@V?$allocator@V?$vector@PAMV?$allocator@PAM@std@@@std@@@2@@std@@@2@@std@@IAE_NI@Z 10120630 f i OpenExr:ImfCompositeDeepScanLine.obj
 0001:0011f630       ?_Buy@?$vector@V?$vector@V?$vector@_KV?$allocator@_K@std@@@std@@V?$allocator@V?$vector@_KV?$allocator@_K@std@@@std@@@2@@std@@V?$allocator@V?$vector@V?$vector@_KV?$allocator@_K@std@@@std@@V?$allocator@V?$vector@_KV?$allocator@_K@std@@@std@@@2@@std@@@2@@std@@IAE_NI@Z 10120630 f i OpenExr:ImfTiledInputFile.obj
 0001:0011f630       ?_Buy@?$vector@V?$vector@_KV?$allocator@_K@std@@@std@@V?$allocator@V?$vector@_KV?$allocator@_K@std@@@std@@@2@@std@@IAE_NI@Z 10120630 f i OpenExr:ImfTiledInputFile.obj
 0001:0011f630       ?_Buy@?$vector@V?$vector@PBDV?$allocator@PBD@std@@@std@@V?$allocator@V?$vector@PBDV?$allocator@PBD@std@@@std@@@2@@std@@IAE_NI@Z 10120630 f i OpenExr:ImfDwaCompressor.obj
 0001:0011f630       ?_Buy@?$vector@V?$vector@PADV?$allocator@PAD@std@@@std@@V?$allocator@V?$vector@PADV?$allocator@PAD@std@@@std@@@2@@std@@IAE_NI@Z 10120630 f i OpenExr:ImfDwaCompressor.obj
 0001:0011f630       ?_Buy@?$vector@V?$vector@MV?$allocator@M@std@@@std@@V?$allocator@V?$vector@MV?$allocator@M@std@@@std@@@2@@std@@IAE_NI@Z 10120630 f i OpenExr:ImfCompositeDeepScanLine.obj
 0001:0011f6a0       ??0MultiPartInputFile@Imf@@QAE@QBDH_N@Z 101206a0 f   OpenExr:ImfMultiPartInputFile.obj
 0001:0011f890       ??0MultiPartInputFile@Imf@@QAE@AAVIStream@1@H_N@Z 10120890 f   OpenExr:ImfMultiPartInputFile.obj
 0001:0011fa60       ??1MultiPartInputFile@Imf@@UAE@XZ 10120a60 f   OpenExr:ImfMultiPartInputFile.obj
 0001:0011fb30       ?parts@MultiPartInputFile@Imf@@QBEHXZ 10120b30 f   OpenExr:ImfMultiPartInputFile.obj
 0001:0011fb50       ?header@MultiPartInputFile@Imf@@QBEABVHeader@2@H@Z 10120b50 f   OpenExr:ImfMultiPartInputFile.obj
 0001:0011fb70       ?version@MultiPartInputFile@Imf@@QBEHXZ 10120b70 f   OpenExr:ImfMultiPartInputFile.obj
 0001:0011fb80       ?partComplete@MultiPartInputFile@Imf@@QBE_NH@Z 10120b80 f   OpenExr:ImfMultiPartInputFile.obj
 0001:0011fba0       ?getPart@MultiPartInputFile@Imf@@AAEPAUInputPartData@2@H@Z 10120ba0 f   OpenExr:ImfMultiPartInputFile.obj
 0001:0011fc00       ?initialize@MultiPartInputFile@Imf@@AAEXXZ 10120c00 f   OpenExr:ImfMultiPartInputFile.obj
 0001:00120580       ?chunkOffsetReconstruction@Data@MultiPartInputFile@Imf@@QAEXAAVIStream@3@ABV?$vector@PAUInputPartData@Imf@@V?$allocator@PAUInputPartData@Imf@@@std@@@std@@@Z 10121580 f   OpenExr:ImfMultiPartInputFile.obj
 0001:00120fe0       ?readChunkOffsetTables@Data@MultiPartInputFile@Imf@@QAEX_N@Z 10121fe0 f   OpenExr:ImfMultiPartInputFile.obj
 0001:001210e0       ?checkSharedAttributesValues@Data@MultiPartInputFile@Imf@@QBE_NABVHeader@3@0AAV?$vector@V?$basic_string@DU?$char_traits@D@std@@V?$allocator@D@2@@std@@V?$allocator@V?$basic_string@DU?$char_traits@D@std@@V?$allocator@D@2@@std@@@2@@std@@@Z 101220e0 f   OpenExr:ImfMultiPartInputFile.obj
 0001:00121310       ?createTileOffsets@Data@MultiPartInputFile@Imf@@QAEPAVTileOffsets@3@ABVHeader@3@@Z 10122310 f   OpenExr:ImfMultiPartInputFile.obj
 0001:001213f0       ?getPart@Data@MultiPartInputFile@Imf@@QAEPAUInputPartData@3@H@Z 101223f0 f   OpenExr:ImfMultiPartInputFile.obj
 0001:00121450       ??$?HDU?$char_traits@D@std@@V?$allocator@D@1@@std@@YA?AV?$basic_string@DU?$char_traits@D@std@@V?$allocator@D@2@@0@PBDABV10@@Z 10122450 f i OpenExr:ImfMultiPartInputFile.obj
 0001:00121540       ??$_Buynode@ABUpiecewise_construct_t@std@@V?$tuple@ABH@2@V?$tuple@$$$V@2@@?$_Tree_buy@U?$pair@$$CBHPAVGenericInputFile@Imf@@@std@@V?$allocator@U?$pair@$$CBHPAVGenericInputFile@Imf@@@std@@@2@@std@@QAEPAU?$_Tree_node@U?$pair@$$CBHPAVGenericInputFile@Imf@@@std@@PAX@1@ABUpiecewise_construct_t@1@$$QAV?$tuple@ABH@1@$$QAV?$tuple@$$$V@1@@Z 10122540 f i OpenExr:ImfMultiPartInputFile.obj
 0001:00121570       ??$_Insert_at@AAU?$pair@$$CBHPAVGenericInputFile@Imf@@@std@@PAU?$_Tree_node@U?$pair@$$CBHPAVGenericInputFile@Imf@@@std@@PAX@2@@?$_Tree@V?$_Tmap_traits@HPAVGenericInputFile@Imf@@U?$less@H@std@@V?$allocator@U?$pair@$$CBHPAVGenericInputFile@Imf@@@std@@@4@$0A@@std@@@std@@IAE?AV?$_Tree_iterator@V?$_Tree_val@U?$_Tree_simple_types@U?$pair@$$CBHPAVGenericInputFile@Imf@@@std@@@std@@@std@@@1@_NPAU?$_Tree_node@U?$pair@$$CBHPAVGenericInputFile@Imf@@@std@@PAX@1@AAU?$pair@$$CBHPAVGenericInputFile@Imf@@@1@1@Z 10122570 f i OpenExr:ImfMultiPartInputFile.obj
 0001:00121780       ??$_Insert_hint@AAU?$pair@$$CBHPAVGenericInputFile@Imf@@@std@@PAU?$_Tree_node@U?$pair@$$CBHPAVGenericInputFile@Imf@@@std@@PAX@2@@?$_Tree@V?$_Tmap_traits@HPAVGenericInputFile@Imf@@U?$less@H@std@@V?$allocator@U?$pair@$$CBHPAVGenericInputFile@Imf@@@std@@@4@$0A@@std@@@std@@IAE?AV?$_Tree_iterator@V?$_Tree_val@U?$_Tree_simple_types@U?$pair@$$CBHPAVGenericInputFile@Imf@@@std@@@std@@@std@@@1@V?$_Tree_const_iterator@V?$_Tree_val@U?$_Tree_simple_types@U?$pair@$$CBHPAVGenericInputFile@Imf@@@std@@@std@@@std@@@1@AAU?$pair@$$CBHPAVGenericInputFile@Imf@@@1@PAU?$_Tree_node@U?$pair@$$CBHPAVGenericInputFile@Imf@@@std@@PAX@1@@Z 10122780 f i OpenExr:ImfMultiPartInputFile.obj
 0001:00121970       ??$_Insert_nohint@AAU?$pair@$$CBHPAVGenericInputFile@Imf@@@std@@PAU?$_Tree_node@U?$pair@$$CBHPAVGenericInputFile@Imf@@@std@@PAX@2@@?$_Tree@V?$_Tmap_traits@HPAVGenericInputFile@Imf@@U?$less@H@std@@V?$allocator@U?$pair@$$CBHPAVGenericInputFile@Imf@@@std@@@4@$0A@@std@@@std@@IAE?AU?$pair@V?$_Tree_iterator@V?$_Tree_val@U?$_Tree_simple_types@U?$pair@$$CBHPAVGenericInputFile@Imf@@@std@@@std@@@std@@@std@@_N@1@_NAAU?$pair@$$CBHPAVGenericInputFile@Imf@@@1@PAU?$_Tree_node@U?$pair@$$CBHPAVGenericInputFile@Imf@@@std@@PAX@1@@Z 10122970 f i OpenExr:ImfMultiPartInputFile.obj
 0001:00121a90       ??$_Uninit_move@PAVHeader@Imf@@PAV12@V?$allocator@VHeader@Imf@@@std@@V12@@std@@YAPAVHeader@Imf@@PAV12@00AAU?$_Wrap_alloc@V?$allocator@VHeader@Imf@@@std@@@0@0U_Nonscalar_ptr_iterator_tag@0@@Z 10122a90 f i OpenExr:ImfMultiPartInputFile.obj
 0001:00121b30       ??$getInputPart@VDeepScanLineInputFile@Imf@@@MultiPartInputFile@Imf@@AAEPAVDeepScanLineInputFile@1@H@Z 10122b30 f i OpenExr:ImfMultiPartInputFile.obj
 0001:00121c50       ??0?$vector@V?$vector@V?$vector@_KV?$allocator@_K@std@@@std@@V?$allocator@V?$vector@_KV?$allocator@_K@std@@@std@@@2@@std@@V?$allocator@V?$vector@V?$vector@_KV?$allocator@_K@std@@@std@@V?$allocator@V?$vector@_KV?$allocator@_K@std@@@std@@@2@@std@@@2@@std@@QAE@ABV01@@Z 10122c50 f i OpenExr:ImfMultiPartInputFile.obj
 0001:00121d00       ??0Data@MultiPartInputFile@Imf@@QAE@_NH0@Z 10122d00 f i OpenExr:ImfMultiPartInputFile.obj
 0001:00121dc0       ??1?$map@V?$basic_string@DU?$char_traits@D@std@@V?$allocator@D@2@@std@@UCscChannelSet@DwaCompressor@Imf@@U?$less@V?$basic_string@DU?$char_traits@D@std@@V?$allocator@D@2@@std@@@2@V?$allocator@U?$pair@$$CBV?$basic_string@DU?$char_traits@D@std@@V?$allocator@D@2@@std@@UCscChannelSet@DwaCompressor@Imf@@@std@@@2@@std@@QAE@XZ 10122dc0 f i OpenExr:ImfDwaCompressor.obj
 0001:00121dc0       ??1?$set@V?$basic_string@DU?$char_traits@D@std@@V?$allocator@D@2@@std@@U?$less@V?$basic_string@DU?$char_traits@D@std@@V?$allocator@D@2@@std@@@2@V?$allocator@V?$basic_string@DU?$char_traits@D@std@@V?$allocator@D@2@@std@@@2@@std@@QAE@XZ 10122dc0 f i OpenExr:ImfMultiPartInputFile.obj
 0001:00121df0       ??1?$vector@VHeader@Imf@@V?$allocator@VHeader@Imf@@@std@@@std@@QAE@XZ 10122df0 f i OpenExr:ImfMultiPartInputFile.obj
 0001:00121e40       ??1Data@MultiPartInputFile@Imf@@UAE@XZ 10122e40 f i OpenExr:ImfMultiPartInputFile.obj
 0001:00121f90       ??A?$map@HPAVGenericInputFile@Imf@@U?$less@H@std@@V?$allocator@U?$pair@$$CBHPAVGenericInputFile@Imf@@@std@@@4@@std@@QAEAAPAVGenericInputFile@Imf@@ABH@Z 10122f90 f i OpenExr:ImfMultiPartInputFile.obj
 0001:00122020       ??E?$_Tree_unchecked_const_iterator@V?$_Tree_val@U?$_Tree_simple_types@U?$pair@QBDP6APAVAttribute@Imf@@XZ@std@@@std@@@std@@U_Iterator_base0@2@@std@@QAEAAV01@XZ 10123020 f i OpenExr:ImfAttribute.obj
 0001:00122020       ??E?$_Tree_unchecked_const_iterator@V?$_Tree_val@U?$_Tree_simple_types@U?$pair@$$CBVName@Imf@@UDeepSlice@2@@std@@@std@@@std@@U_Iterator_base0@2@@std@@QAEAAV01@XZ 10123020 f i OpenExr:ImfCompositeDeepScanLine.obj
 0001:00122020       ??E?$_Tree_unchecked_const_iterator@V?$_Tree_val@U?$_Tree_simple_types@V?$basic_string@DU?$char_traits@D@std@@V?$allocator@D@2@@std@@@std@@@std@@U_Iterator_base0@2@@std@@QAEAAV01@XZ 10123020 f i OpenExr:ImfMultiPartInputFile.obj
 0001:00122020       ??E?$_Tree_unchecked_const_iterator@V?$_Tree_val@U?$_Tree_simple_types@U?$pair@$$CBVName@Imf@@USlice@2@@std@@@std@@@std@@U_Iterator_base0@2@@std@@QAEAAV01@XZ 10123020 f i OpenExr:ImfRgbaFile.obj
 0001:00122020       ??E?$_Tree_unchecked_const_iterator@V?$_Tree_val@U?$_Tree_simple_types@U?$pair@$$CBV?$basic_string@DU?$char_traits@D@std@@V?$allocator@D@2@@std@@UCscChannelSet@DwaCompressor@Imf@@@std@@@std@@@std@@U_Iterator_base0@2@@std@@QAEAAV01@XZ 10123020 f i OpenExr:ImfDwaCompressor.obj
 0001:00122020       ??E?$_Tree_unchecked_const_iterator@V?$_Tree_val@U?$_Tree_simple_types@U?$pair@$$CBVName@Imf@@UChannel@2@@std@@@std@@@std@@U_Iterator_base0@2@@std@@QAEAAV01@XZ 10123020 f i OpenExr:ImfHeader.obj
 0001:00122020       ??E?$_Tree_unchecked_const_iterator@V?$_Tree_val@U?$_Tree_simple_types@U?$pair@$$CBVName@Imf@@PAVAttribute@2@@std@@@std@@@std@@U_Iterator_base0@2@@std@@QAEAAV01@XZ 10123020 f i OpenExr:ImfHeader.obj
 0001:00122020       ??E?$_Tree_unchecked_const_iterator@V?$_Tree_val@U?$_Tree_simple_types@U?$pair@$$CBHPAVGenericInputFile@Imf@@@std@@@std@@@std@@U_Iterator_base0@2@@std@@QAEAAV01@XZ 10123020 f i OpenExr:ImfMultiPartInputFile.obj
 0001:00122070       ??_EData@MultiPartInputFile@Imf@@UAEPAXI@Z 10123070 f i OpenExr:ImfMultiPartInputFile.obj
 0001:00122070       ??_GData@MultiPartInputFile@Imf@@UAEPAXI@Z 10123070 f i OpenExr:ImfMultiPartInputFile.obj
 0001:001220a0       ??_EMultiPartInputFile@Imf@@UAEPAXI@Z 101230a0 f i OpenExr:ImfMultiPartInputFile.obj
 0001:001220a0       ??_GMultiPartInputFile@Imf@@UAEPAXI@Z 101230a0 f i OpenExr:ImfMultiPartInputFile.obj
 0001:001220d0       ?_Buyheadnode@?$_Tree_alloc@$0A@U?$_Tree_base_types@V?$basic_string@DU?$char_traits@D@std@@V?$allocator@D@2@@std@@V?$allocator@V?$basic_string@DU?$char_traits@D@std@@V?$allocator@D@2@@std@@@2@@std@@@std@@QAEPAU?$_Tree_node@V?$basic_string@DU?$char_traits@D@std@@V?$allocator@D@2@@std@@PAX@2@XZ 101230d0 f i OpenExr:ImfMultiPartInputFile.obj
 0001:00122100       ?_Lbound@?$_Tree@V?$_Tset_traits@V?$basic_string@DU?$char_traits@D@std@@V?$allocator@D@2@@std@@U?$less@V?$basic_string@DU?$char_traits@D@std@@V?$allocator@D@2@@std@@@2@V?$allocator@V?$basic_string@DU?$char_traits@D@std@@V?$allocator@D@2@@std@@@2@$0A@@std@@@std@@IAEPAU?$_Tree_node@V?$basic_string@DU?$char_traits@D@std@@V?$allocator@D@2@@std@@PAX@2@ABV?$basic_string@DU?$char_traits@D@std@@V?$allocator@D@2@@2@@Z 10123100 f i OpenExr:ImfMultiPartInputFile.obj
 0001:00122100       ?_Lbound@?$_Tree@V?$_Tmap_traits@V?$basic_string@DU?$char_traits@D@std@@V?$allocator@D@2@@std@@UCscChannelSet@DwaCompressor@Imf@@U?$less@V?$basic_string@DU?$char_traits@D@std@@V?$allocator@D@2@@std@@@2@V?$allocator@U?$pair@$$CBV?$basic_string@DU?$char_traits@D@std@@V?$allocator@D@2@@std@@UCscChannelSet@DwaCompressor@Imf@@@std@@@2@$0A@@std@@@std@@IAEPAU?$_Tree_node@U?$pair@$$CBV?$basic_string@DU?$char_traits@D@std@@V?$allocator@D@2@@std@@UCscChannelSet@DwaCompressor@Imf@@@std@@PAX@2@ABV?$basic_string@DU?$char_traits@D@std@@V?$allocator@D@2@@2@@Z 10123100 f i OpenExr:ImfDwaCompressor.obj
 0001:001221e0       ?_Reallocate@?$vector@VHeader@Imf@@V?$allocator@VHeader@Imf@@@std@@@std@@IAEXI@Z 101231e0 f i OpenExr:ImfMultiPartInputFile.obj
 0001:00122300       ?_Reserve@?$vector@VHeader@Imf@@V?$allocator@VHeader@Imf@@@std@@@std@@IAEXI@Z 10123300 f i OpenExr:ImfMultiPartInputFile.obj
 0001:001223a0       ?_Rrotate@?$_Tree@V?$_Tmap_traits@PBDP6APAVAttribute@Imf@@XZUNameCompare@?A0xd430efe7@2@V?$allocator@U?$pair@QBDP6APAVAttribute@Imf@@XZ@std@@@std@@$0A@@std@@@std@@IAEXPAU?$_Tree_node@U?$pair@QBDP6APAVAttribute@Imf@@XZ@std@@PAX@2@@Z 101233a0 f i OpenExr:ImfAttribute.obj
 0001:001223a0       ?_Rrotate@?$_Tree@V?$_Tmap_traits@VName@Imf@@UDeepSlice@2@U?$less@VName@Imf@@@std@@V?$allocator@U?$pair@$$CBVName@Imf@@UDeepSlice@2@@std@@@5@$0A@@std@@@std@@IAEXPAU?$_Tree_node@U?$pair@$$CBVName@Imf@@UDeepSlice@2@@std@@PAX@2@@Z 101233a0 f i OpenExr:ImfCompositeDeepScanLine.obj
 0001:001223a0       ?_Rrotate@?$_Tree@V?$_Tmap_traits@VName@Imf@@USlice@2@U?$less@VName@Imf@@@std@@V?$allocator@U?$pair@$$CBVName@Imf@@USlice@2@@std@@@5@$0A@@std@@@std@@IAEXPAU?$_Tree_node@U?$pair@$$CBVName@Imf@@USlice@2@@std@@PAX@2@@Z 101233a0 f i OpenExr:ImfRgbaFile.obj
 0001:001223a0       ?_Rrotate@?$_Tree@V?$_Tset_traits@V?$basic_string@DU?$char_traits@D@std@@V?$allocator@D@2@@std@@U?$less@V?$basic_string@DU?$char_traits@D@std@@V?$allocator@D@2@@std@@@2@V?$allocator@V?$basic_string@DU?$char_traits@D@std@@V?$allocator@D@2@@std@@@2@$0A@@std@@@std@@IAEXPAU?$_Tree_node@V?$basic_string@DU?$char_traits@D@std@@V?$allocator@D@2@@std@@PAX@2@@Z 101233a0 f i OpenExr:ImfChannelList.obj
 0001:001223a0       ?_Rrotate@?$_Tree@V?$_Tmap_traits@V?$basic_string@DU?$char_traits@D@std@@V?$allocator@D@2@@std@@UCscChannelSet@DwaCompressor@Imf@@U?$less@V?$basic_string@DU?$char_traits@D@std@@V?$allocator@D@2@@std@@@2@V?$allocator@U?$pair@$$CBV?$basic_string@DU?$char_traits@D@std@@V?$allocator@D@2@@std@@UCscChannelSet@DwaCompressor@Imf@@@std@@@2@$0A@@std@@@std@@IAEXPAU?$_Tree_node@U?$pair@$$CBV?$basic_string@DU?$char_traits@D@std@@V?$allocator@D@2@@std@@UCscChannelSet@DwaCompressor@Imf@@@std@@PAX@2@@Z 101233a0 f i OpenExr:ImfDwaCompressor.obj
 0001:001223a0       ?_Rrotate@?$_Tree@V?$_Tmap_traits@VName@Imf@@PAVAttribute@2@U?$less@VName@Imf@@@std@@V?$allocator@U?$pair@$$CBVName@Imf@@PAVAttribute@2@@std@@@5@$0A@@std@@@std@@IAEXPAU?$_Tree_node@U?$pair@$$CBVName@Imf@@PAVAttribute@2@@std@@PAX@2@@Z 101233a0 f i OpenExr:ImfHeader.obj
 0001:001223a0       ?_Rrotate@?$_Tree@V?$_Tmap_traits@HPAVGenericInputFile@Imf@@U?$less@H@std@@V?$allocator@U?$pair@$$CBHPAVGenericInputFile@Imf@@@std@@@4@$0A@@std@@@std@@IAEXPAU?$_Tree_node@U?$pair@$$CBHPAVGenericInputFile@Imf@@@std@@PAX@2@@Z 101233a0 f i OpenExr:ImfMultiPartInputFile.obj
 0001:001223a0       ?_Rrotate@?$_Tree@V?$_Tmap_traits@VName@Imf@@UChannel@2@U?$less@VName@Imf@@@std@@V?$allocator@U?$pair@$$CBVName@Imf@@UChannel@2@@std@@@5@$0A@@std@@@std@@IAEXPAU?$_Tree_node@U?$pair@$$CBVName@Imf@@UChannel@2@@std@@PAX@2@@Z 101233a0 f i OpenExr:ImfHeader.obj
 0001:00122400       ?erase@?$_Tree@V?$_Tmap_traits@VName@Imf@@UChannel@2@U?$less@VName@Imf@@@std@@V?$allocator@U?$pair@$$CBVName@Imf@@UChannel@2@@std@@@5@$0A@@std@@@std@@QAE?AV?$_Tree_iterator@V?$_Tree_val@U?$_Tree_simple_types@U?$pair@$$CBVName@Imf@@UChannel@2@@std@@@std@@@std@@@2@V?$_Tree_const_iterator@V?$_Tree_val@U?$_Tree_simple_types@U?$pair@$$CBVName@Imf@@UChannel@2@@std@@@std@@@std@@@2@@Z 10123400 f i OpenExr:ImfHeader.obj
 0001:00122400       ?erase@?$_Tree@V?$_Tmap_traits@VName@Imf@@USlice@2@U?$less@VName@Imf@@@std@@V?$allocator@U?$pair@$$CBVName@Imf@@USlice@2@@std@@@5@$0A@@std@@@std@@QAE?AV?$_Tree_iterator@V?$_Tree_val@U?$_Tree_simple_types@U?$pair@$$CBVName@Imf@@USlice@2@@std@@@std@@@std@@@2@V?$_Tree_const_iterator@V?$_Tree_val@U?$_Tree_simple_types@U?$pair@$$CBVName@Imf@@USlice@2@@std@@@std@@@std@@@2@@Z 10123400 f i OpenExr:ImfRgbaFile.obj
 0001:00122400       ?erase@?$_Tree@V?$_Tmap_traits@VName@Imf@@UDeepSlice@2@U?$less@VName@Imf@@@std@@V?$allocator@U?$pair@$$CBVName@Imf@@UDeepSlice@2@@std@@@5@$0A@@std@@@std@@QAE?AV?$_Tree_iterator@V?$_Tree_val@U?$_Tree_simple_types@U?$pair@$$CBVName@Imf@@UDeepSlice@2@@std@@@std@@@std@@@2@V?$_Tree_const_iterator@V?$_Tree_val@U?$_Tree_simple_types@U?$pair@$$CBVName@Imf@@UDeepSlice@2@@std@@@std@@@std@@@2@@Z 10123400 f i OpenExr:ImfCompositeDeepScanLine.obj
 0001:00122400       ?erase@?$_Tree@V?$_Tmap_traits@PBDP6APAVAttribute@Imf@@XZUNameCompare@?A0xd430efe7@2@V?$allocator@U?$pair@QBDP6APAVAttribute@Imf@@XZ@std@@@std@@$0A@@std@@@std@@QAE?AV?$_Tree_iterator@V?$_Tree_val@U?$_Tree_simple_types@U?$pair@QBDP6APAVAttribute@Imf@@XZ@std@@@std@@@std@@@2@V?$_Tree_const_iterator@V?$_Tree_val@U?$_Tree_simple_types@U?$pair@QBDP6APAVAttribute@Imf@@XZ@std@@@std@@@std@@@2@@Z 10123400 f i OpenExr:ImfAttribute.obj
 0001:00122400       ?erase@?$_Tree@V?$_Tmap_traits@HPAVGenericInputFile@Imf@@U?$less@H@std@@V?$allocator@U?$pair@$$CBHPAVGenericInputFile@Imf@@@std@@@4@$0A@@std@@@std@@QAE?AV?$_Tree_iterator@V?$_Tree_val@U?$_Tree_simple_types@U?$pair@$$CBHPAVGenericInputFile@Imf@@@std@@@std@@@std@@@2@V?$_Tree_const_iterator@V?$_Tree_val@U?$_Tree_simple_types@U?$pair@$$CBHPAVGenericInputFile@Imf@@@std@@@std@@@std@@@2@@Z 10123400 f i OpenExr:ImfMultiPartInputFile.obj
 0001:00122400       ?erase@?$_Tree@V?$_Tmap_traits@VName@Imf@@PAVAttribute@2@U?$less@VName@Imf@@@std@@V?$allocator@U?$pair@$$CBVName@Imf@@PAVAttribute@2@@std@@@5@$0A@@std@@@std@@QAE?AV?$_Tree_iterator@V?$_Tree_val@U?$_Tree_simple_types@U?$pair@$$CBVName@Imf@@PAVAttribute@2@@std@@@std@@@std@@@2@V?$_Tree_const_iterator@V?$_Tree_val@U?$_Tree_simple_types@U?$pair@$$CBVName@Imf@@PAVAttribute@2@@std@@@std@@@std@@@2@@Z 10123400 f i OpenExr:ImfHeader.obj
 0001:00122670       ?erase@?$_Tree@V?$_Tset_traits@V?$basic_string@DU?$char_traits@D@std@@V?$allocator@D@2@@std@@U?$less@V?$basic_string@DU?$char_traits@D@std@@V?$allocator@D@2@@std@@@2@V?$allocator@V?$basic_string@DU?$char_traits@D@std@@V?$allocator@D@2@@std@@@2@$0A@@std@@@std@@QAE?AV?$_Tree_const_iterator@V?$_Tree_val@U?$_Tree_simple_types@V?$basic_string@DU?$char_traits@D@std@@V?$allocator@D@2@@std@@@std@@@std@@@2@V32@0@Z 10123670 f i OpenExr:ImfMultiPartInputFile.obj
 0001:00122670       ?erase@?$_Tree@V?$_Tmap_traits@V?$basic_string@DU?$char_traits@D@std@@V?$allocator@D@2@@std@@UCscChannelSet@DwaCompressor@Imf@@U?$less@V?$basic_string@DU?$char_traits@D@std@@V?$allocator@D@2@@std@@@2@V?$allocator@U?$pair@$$CBV?$basic_string@DU?$char_traits@D@std@@V?$allocator@D@2@@std@@UCscChannelSet@DwaCompressor@Imf@@@std@@@2@$0A@@std@@@std@@QAE?AV?$_Tree_iterator@V?$_Tree_val@U?$_Tree_simple_types@U?$pair@$$CBV?$basic_string@DU?$char_traits@D@std@@V?$allocator@D@2@@std@@UCscChannelSet@DwaCompressor@Imf@@@std@@@std@@@std@@@2@V?$_Tree_const_iterator@V?$_Tree_val@U?$_Tree_simple_types@U?$pair@$$CBV?$basic_string@DU?$char_traits@D@std@@V?$allocator@D@2@@std@@UCscChannelSet@DwaCompressor@Imf@@@std@@@std@@@std@@@2@0@Z 10123670 f i OpenExr:ImfDwaCompressor.obj
 0001:00122730       ?push_back@?$vector@V?$basic_string@DU?$char_traits@D@std@@V?$allocator@D@2@@std@@V?$allocator@V?$basic_string@DU?$char_traits@D@std@@V?$allocator@D@2@@std@@@2@@std@@QAEX$$QAV?$basic_string@DU?$char_traits@D@std@@V?$allocator@D@2@@2@@Z 10123730 f i OpenExr:ImfMultiPartInputFile.obj
 0001:001227b0       ?push_back@?$vector@VHeader@Imf@@V?$allocator@VHeader@Imf@@@std@@@std@@QAEXABVHeader@Imf@@@Z 101237b0 f i OpenExr:ImfMultiPartInputFile.obj
 0001:00122870       ??0CompositeDeepScanLine@Imf@@QAE@XZ 10123870 f   OpenExr:ImfCompositeDeepScanLine.obj
 0001:001228f0       ??1CompositeDeepScanLine@Imf@@UAE@XZ 101238f0 f   OpenExr:ImfCompositeDeepScanLine.obj
 0001:00122910       ?addSource@CompositeDeepScanLine@Imf@@QAEXPAVDeepScanLineInputPart@2@@Z 10123910 f   OpenExr:ImfCompositeDeepScanLine.obj
 0001:00122940       ?addSource@CompositeDeepScanLine@Imf@@QAEXPAVDeepScanLineInputFile@2@@Z 10123940 f   OpenExr:ImfCompositeDeepScanLine.obj
 0001:00122970       ?setFrameBuffer@CompositeDeepScanLine@Imf@@QAEXABVFrameBuffer@2@@Z 10123970 f   OpenExr:ImfCompositeDeepScanLine.obj
 0001:00122dc0       ?frameBuffer@CompositeDeepScanLine@Imf@@QBEABVFrameBuffer@2@XZ 10123dc0 f   OpenExr:ImfCompositeDeepScanLine.obj
 0001:00122dd0       ?readPixels@CompositeDeepScanLine@Imf@@QAEXHH@Z 10123dd0 f   OpenExr:ImfCompositeDeepScanLine.obj
 0001:001234d0       ?sources@CompositeDeepScanLine@Imf@@QBEHXZ 101244d0 f   OpenExr:ImfCompositeDeepScanLine.obj
 0001:001234f0       ?dataWindow@CompositeDeepScanLine@Imf@@QBEABV?$Box@V?$Vec2@H@Imath@@@Imath@@XZ 101244f0 f   OpenExr:ImfCompositeDeepScanLine.obj
 0001:00123500       ?setCompositing@CompositeDeepScanLine@Imf@@QAEXPAVDeepCompositing@2@@Z 10124500 f   OpenExr:ImfCompositeDeepScanLine.obj
 0001:00123510       ?check_valid@Data@CompositeDeepScanLine@Imf@@QAEXABVHeader@3@@Z 10124510 f   OpenExr:ImfCompositeDeepScanLine.obj
 0001:00123910       ?handleDeepFrameBuffer@Data@CompositeDeepScanLine@Imf@@QAEXAAVDeepFrameBuffer@3@AAV?$vector@IV?$allocator@I@std@@@std@@AAV?$vector@V?$vector@PAMV?$allocator@PAM@std@@@std@@V?$allocator@V?$vector@PAMV?$allocator@PAM@std@@@std@@@2@@6@ABVHeader@3@HH@Z 10124910 f   OpenExr:ImfCompositeDeepScanLine.obj
 0001:00123bb0       ??0Data@CompositeDeepScanLine@Imf@@QAE@XZ 10124bb0 f   OpenExr:ImfCompositeDeepScanLine.obj
 0001:00123cc0       ?execute@LineCompositeTask@?A0x3efe57c4@Imf@@UAEXXZ 10124cc0 f   OpenExr:ImfCompositeDeepScanLine.obj
 0001:00123ce0       ?composite_line@?A0x3efe57c4@Imf@@YAXHHPAUData@CompositeDeepScanLine@2@AAV?$vector@PBDV?$allocator@PBD@std@@@std@@ABV?$vector@V?$vector@V?$vector@PAMV?$allocator@PAM@std@@@std@@V?$allocator@V?$vector@PAMV?$allocator@PAM@std@@@std@@@2@@std@@V?$allocator@V?$vector@V?$vector@PAMV?$allocator@PAM@std@@@std@@V?$allocator@V?$vector@PAMV?$allocator@PAM@std@@@std@@@2@@std@@@2@@6@ABV?$vector@IV?$allocator@I@std@@@6@3@Z 10124ce0 f   OpenExr:ImfCompositeDeepScanLine.obj
 0001:00124000       ??$_Destroy_range@U?$_Wrap_alloc@V?$allocator@V?$vector@V?$vector@PAMV?$allocator@PAM@std@@@std@@V?$allocator@V?$vector@PAMV?$allocator@PAM@std@@@std@@@2@@std@@@std@@@std@@@std@@YAXPAV?$vector@V?$vector@PAMV?$allocator@PAM@std@@@std@@V?$allocator@V?$vector@PAMV?$allocator@PAM@std@@@std@@@2@@0@0AAU?$_Wrap_alloc@V?$allocator@V?$vector@V?$vector@PAMV?$allocator@PAM@std@@@std@@V?$allocator@V?$vector@PAMV?$allocator@PAM@std@@@std@@@2@@std@@@std@@@0@U_Nonscalar_ptr_iterator_tag@0@@Z 10125000 f i OpenExr:ImfCompositeDeepScanLine.obj
 0001:00124000       ??$_Destroy_range@U?$_Wrap_alloc@V?$allocator@V?$vector@V?$vector@_KV?$allocator@_K@std@@@std@@V?$allocator@V?$vector@_KV?$allocator@_K@std@@@std@@@2@@std@@@std@@@std@@@std@@YAXPAV?$vector@V?$vector@_KV?$allocator@_K@std@@@std@@V?$allocator@V?$vector@_KV?$allocator@_K@std@@@std@@@2@@0@0AAU?$_Wrap_alloc@V?$allocator@V?$vector@V?$vector@_KV?$allocator@_K@std@@@std@@V?$allocator@V?$vector@_KV?$allocator@_K@std@@@std@@@2@@std@@@std@@@0@U_Nonscalar_ptr_iterator_tag@0@@Z 10125000 f i OpenExr:ImfTiledInputFile.obj
 0001:00124080       ??$_Uninit_def_fill_n@PAV?$basic_string@DU?$char_traits@D@std@@V?$allocator@D@2@@std@@IV?$allocator@V?$basic_string@DU?$char_traits@D@std@@V?$allocator@D@2@@std@@@2@V12@@std@@YAXPAV?$basic_string@DU?$char_traits@D@std@@V?$allocator@D@2@@0@IAAU?$_Wrap_alloc@V?$allocator@V?$basic_string@DU?$char_traits@D@std@@V?$allocator@D@2@@std@@@std@@@0@0U_Nonscalar_ptr_iterator_tag@0@@Z 10125080 f i OpenExr:ImfCompositeDeepScanLine.obj
 0001:001240b0       ??$_Uninit_def_fill_n@PAVDeepFrameBuffer@Imf@@IV?$allocator@VDeepFrameBuffer@Imf@@@std@@V12@@std@@YAXPAVDeepFrameBuffer@Imf@@IAAU?$_Wrap_alloc@V?$allocator@VDeepFrameBuffer@Imf@@@std@@@0@0U_Nonscalar_ptr_iterator_tag@0@@Z 101250b0 f i OpenExr:ImfCompositeDeepScanLine.obj
 0001:00124180       ??$destroy@VDeepFrameBuffer@Imf@@@?$_Wrap_alloc@V?$allocator@VDeepFrameBuffer@Imf@@@std@@@std@@QAEXPAVDeepFrameBuffer@Imf@@@Z 10125180 f i OpenExr:ImfCompositeDeepScanLine.obj
 0001:001241b0       ??0?$vector@PAGV?$allocator@PAG@std@@@std@@QAE@I@Z 101251b0 f i OpenExr:ImfDwaCompressor.obj
 0001:001241b0       ??0?$vector@MV?$allocator@M@std@@@std@@QAE@I@Z 101251b0 f i OpenExr:ImfCompositeDeepScanLine.obj
 0001:001241b0       ??0?$vector@PBDV?$allocator@PBD@std@@@std@@QAE@I@Z 101251b0 f i OpenExr:ImfCompositeDeepScanLine.obj
 0001:001241b0       ??0?$vector@PBMV?$allocator@PBM@std@@@std@@QAE@I@Z 101251b0 f i OpenExr:ImfCompositeDeepScanLine.obj
 0001:001241b0       ??0?$vector@PAVTileOffsets@Imf@@V?$allocator@PAVTileOffsets@Imf@@@std@@@std@@QAE@I@Z 101251b0 f i OpenExr:ImfMultiPartInputFile.obj
 0001:001241b0       ??0?$vector@PBVHeader@Imf@@V?$allocator@PBVHeader@Imf@@@std@@@std@@QAE@I@Z 101251b0 f i OpenExr:ImfCompositeDeepScanLine.obj
 0001:001241b0       ??0?$vector@HV?$allocator@H@std@@@std@@QAE@I@Z 101251b0 f i OpenExr:ImfMultiPartInputFile.obj
 0001:001241b0       ??0?$vector@IV?$allocator@I@std@@@std@@QAE@I@Z 101251b0 f i OpenExr:ImfCompositeDeepScanLine.obj
 0001:00124200       ??0?$vector@V?$vector@V?$vector@PAMV?$allocator@PAM@std@@@std@@V?$allocator@V?$vector@PAMV?$allocator@PAM@std@@@std@@@2@@std@@V?$allocator@V?$vector@V?$vector@PAMV?$allocator@PAM@std@@@std@@V?$allocator@V?$vector@PAMV?$allocator@PAM@std@@@std@@@2@@std@@@2@@std@@QAE@I@Z 10125200 f i OpenExr:ImfCompositeDeepScanLine.obj
 0001:001242a0       ??0?$vector@VDeepFrameBuffer@Imf@@V?$allocator@VDeepFrameBuffer@Imf@@@std@@@std@@QAE@I@Z 101252a0 f i OpenExr:ImfCompositeDeepScanLine.obj
 0001:00124340       ??1?$vector@VDeepFrameBuffer@Imf@@V?$allocator@VDeepFrameBuffer@Imf@@@std@@@std@@QAE@XZ 10125340 f i OpenExr:ImfCompositeDeepScanLine.obj
 0001:00124350       ??1Data@CompositeDeepScanLine@Imf@@QAE@XZ 10125350 f i OpenExr:ImfCompositeDeepScanLine.obj
 0001:00124480       ??_GCompositeDeepScanLine@Imf@@UAEPAXI@Z 10125480 f i OpenExr:ImfCompositeDeepScanLine.obj
 0001:00124480       ??_ECompositeDeepScanLine@Imf@@UAEPAXI@Z 10125480 f i OpenExr:ImfCompositeDeepScanLine.obj
 0001:001244c0       ??_ELineCompositeTask@?A0x3efe57c4@Imf@@UAEPAXI@Z 101254c0 f i OpenExr:ImfCompositeDeepScanLine.obj
 0001:001244c0       ??_GLineCompositeTask@?A0x3efe57c4@Imf@@UAEPAXI@Z 101254c0 f i OpenExr:ImfCompositeDeepScanLine.obj
 0001:001244f0       ?_Buy@?$vector@VDeepFrameBuffer@Imf@@V?$allocator@VDeepFrameBuffer@Imf@@@std@@@std@@IAE_NI@Z 101254f0 f i OpenExr:ImfCompositeDeepScanLine.obj
 0001:00124560       ?_Buyheadnode@?$_Tree_alloc@$0A@U?$_Tree_base_types@U?$pair@$$CBVName@Imf@@UDeepSlice@2@@std@@V?$allocator@U?$pair@$$CBVName@Imf@@UDeepSlice@2@@std@@@2@@std@@@std@@QAEPAU?$_Tree_node@U?$pair@$$CBVName@Imf@@UDeepSlice@2@@std@@PAX@2@XZ 10125560 f i OpenExr:ImfCompositeDeepScanLine.obj
 0001:001245a0       ?_Reallocate@?$vector@V?$vector@_KV?$allocator@_K@std@@@std@@V?$allocator@V?$vector@_KV?$allocator@_K@std@@@std@@@2@@std@@IAEXI@Z 101255a0 f i OpenExr:ImfTileOffsets.obj
 0001:001245a0       ?_Reallocate@?$vector@V?$vector@PAMV?$allocator@PAM@std@@@std@@V?$allocator@V?$vector@PAMV?$allocator@PAM@std@@@std@@@2@@std@@IAEXI@Z 101255a0 f i OpenExr:ImfCompositeDeepScanLine.obj
 0001:001245a0       ?_Reallocate@?$vector@V?$vector@PBDV?$allocator@PBD@std@@@std@@V?$allocator@V?$vector@PBDV?$allocator@PBD@std@@@std@@@2@@std@@IAEXI@Z 101255a0 f i OpenExr:ImfDwaCompressor.obj
 0001:001245a0       ?_Reallocate@?$vector@V?$vector@PADV?$allocator@PAD@std@@@std@@V?$allocator@V?$vector@PADV?$allocator@PAD@std@@@std@@@2@@std@@IAEXI@Z 101255a0 f i OpenExr:ImfDwaCompressor.obj
 0001:001246a0       ?_Reserve@?$vector@PAVDeepScanLineInputFile@Imf@@V?$allocator@PAVDeepScanLineInputFile@Imf@@@std@@@std@@IAEXI@Z 101256a0 f i OpenExr:ImfCompositeDeepScanLine.obj
 0001:001246a0       ?_Reserve@?$vector@MV?$allocator@M@std@@@std@@IAEXI@Z 101256a0 f i OpenExr:ImfFloatVectorAttribute.obj
 0001:001246a0       ?_Reserve@?$vector@PAULineBuffer@?A0x63a57f46@Imf@@V?$allocator@PAULineBuffer@?A0x63a57f46@Imf@@@std@@@std@@IAEXI@Z 101256a0 f i OpenExr:ImfOutputFile.obj
 0001:001246a0       ?_Reserve@?$vector@PAUTileBuffer@?A0xd13efcfe@Imf@@V?$allocator@PAUTileBuffer@?A0xd13efcfe@Imf@@@std@@@std@@IAEXI@Z 101256a0 f i OpenExr:ImfTiledInputFile.obj
 0001:001246a0       ?_Reserve@?$vector@PADV?$allocator@PAD@std@@@std@@IAEXI@Z 101256a0 f i OpenExr:ImfDwaCompressor.obj
 0001:001246a0       ?_Reserve@?$vector@HV?$allocator@H@std@@@std@@IAEXI@Z 101256a0 f i OpenExr:ImfCompositeDeepScanLine.obj
 0001:001246a0       ?_Reserve@?$vector@PAULineBuffer@?A0xc59857b3@Imf@@V?$allocator@PAULineBuffer@?A0xc59857b3@Imf@@@std@@@std@@IAEXI@Z 101256a0 f i OpenExr:ImfScanLineInputFile.obj
 0001:001246a0       ?_Reserve@?$vector@PAVDeepScanLineInputPart@Imf@@V?$allocator@PAVDeepScanLineInputPart@Imf@@@std@@@std@@IAEXI@Z 101256a0 f i OpenExr:ImfCompositeDeepScanLine.obj
 0001:001246a0       ?_Reserve@?$vector@W4PixelType@Imf@@V?$allocator@W4PixelType@Imf@@@std@@@std@@IAEXI@Z 101256a0 f i OpenExr:ImfDwaCompressor.obj
 0001:001246a0       ?_Reserve@?$vector@IV?$allocator@I@std@@@std@@IAEXI@Z 101256a0 f i OpenExr:ImfMisc.obj
 0001:001246a0       ?_Reserve@?$vector@PAULineBuffer@?A0xa01d29ce@Imf@@V?$allocator@PAULineBuffer@?A0xa01d29ce@Imf@@@std@@@std@@IAEXI@Z 101256a0 f i OpenExr:ImfDeepScanLineInputFile.obj
 0001:001246a0       ?_Reserve@?$vector@PAUTileBuffer@?A0x757584a7@Imf@@V?$allocator@PAUTileBuffer@?A0x757584a7@Imf@@@std@@@std@@IAEXI@Z 101256a0 f i OpenExr:ImfDeepTiledInputFile.obj
 0001:001246a0       ?_Reserve@?$vector@PAMV?$allocator@PAM@std@@@std@@IAEXI@Z 101256a0 f i OpenExr:ImfCompositeDeepScanLine.obj
 0001:00124720       ?_Tidy@?$vector@V?$vector@V?$vector@_KV?$allocator@_K@std@@@std@@V?$allocator@V?$vector@_KV?$allocator@_K@std@@@std@@@2@@std@@V?$allocator@V?$vector@V?$vector@_KV?$allocator@_K@std@@@std@@V?$allocator@V?$vector@_KV?$allocator@_K@std@@@std@@@2@@std@@@2@@std@@IAEXXZ 10125720 f i OpenExr:ImfTiledInputFile.obj
 0001:00124720       ?_Tidy@?$vector@V?$vector@V?$vector@PAMV?$allocator@PAM@std@@@std@@V?$allocator@V?$vector@PAMV?$allocator@PAM@std@@@std@@@2@@std@@V?$allocator@V?$vector@V?$vector@PAMV?$allocator@PAM@std@@@std@@V?$allocator@V?$vector@PAMV?$allocator@PAM@std@@@std@@@2@@std@@@2@@std@@IAEXXZ 10125720 f i OpenExr:ImfCompositeDeepScanLine.obj
 0001:00124720       ??1?$vector@V?$vector@V?$vector@_KV?$allocator@_K@std@@@std@@V?$allocator@V?$vector@_KV?$allocator@_K@std@@@std@@@2@@std@@V?$allocator@V?$vector@V?$vector@_KV?$allocator@_K@std@@@std@@V?$allocator@V?$vector@_KV?$allocator@_K@std@@@std@@@2@@std@@@2@@std@@QAE@XZ 10125720 f i OpenExr:ImfTiledInputFile.obj
 0001:00124720       ??1?$vector@V?$vector@V?$vector@PAMV?$allocator@PAM@std@@@std@@V?$allocator@V?$vector@PAMV?$allocator@PAM@std@@@std@@@2@@std@@V?$allocator@V?$vector@V?$vector@PAMV?$allocator@PAM@std@@@std@@V?$allocator@V?$vector@PAMV?$allocator@PAM@std@@@std@@@2@@std@@@2@@std@@QAE@XZ 10125720 f i OpenExr:ImfCompositeDeepScanLine.obj
 0001:00124770       ?_Tidy@?$vector@VDeepFrameBuffer@Imf@@V?$allocator@VDeepFrameBuffer@Imf@@@std@@@std@@IAEXXZ 10125770 f i OpenExr:ImfCompositeDeepScanLine.obj
 0001:001247d0       ?push_back@?$vector@PAVDeepScanLineInputPart@Imf@@V?$allocator@PAVDeepScanLineInputPart@Imf@@@std@@@std@@QAEXABQAVDeepScanLineInputPart@Imf@@@Z 101257d0 f i OpenExr:ImfCompositeDeepScanLine.obj
 0001:001247d0       ?push_back@?$vector@HV?$allocator@H@std@@@std@@QAEX$$QAH@Z 101257d0 f i OpenExr:ImfCompositeDeepScanLine.obj
 0001:001247d0       ?push_back@?$vector@W4PixelType@Imf@@V?$allocator@W4PixelType@Imf@@@std@@@std@@QAEXABW4PixelType@Imf@@@Z 101257d0 f i OpenExr:ImfDwaCompressor.obj
 0001:001247d0       ?push_back@?$vector@PAVDeepScanLineInputFile@Imf@@V?$allocator@PAVDeepScanLineInputFile@Imf@@@std@@@std@@QAEXABQAVDeepScanLineInputFile@Imf@@@Z 101257d0 f i OpenExr:ImfCompositeDeepScanLine.obj
 0001:001247d0       ?push_back@?$vector@PADV?$allocator@PAD@std@@@std@@QAEXABQAD@Z 101257d0 f i OpenExr:ImfDwaCompressor.obj
 0001:00124840       ?resize@?$vector@MV?$allocator@M@std@@@std@@QAEXI@Z 10125840 f i OpenExr:ImfFloatVectorAttribute.obj
 0001:00124840       ?resize@?$vector@PAULineBuffer@?A0x63a57f46@Imf@@V?$allocator@PAULineBuffer@?A0x63a57f46@Imf@@@std@@@std@@QAEXI@Z 10125840 f i OpenExr:ImfOutputFile.obj
 0001:00124840       ?resize@?$vector@IV?$allocator@I@std@@@std@@QAEXI@Z 10125840 f i OpenExr:ImfMisc.obj
 0001:00124840       ?resize@?$vector@PAUTileBuffer@?A0x757584a7@Imf@@V?$allocator@PAUTileBuffer@?A0x757584a7@Imf@@@std@@@std@@QAEXI@Z 10125840 f i OpenExr:ImfDeepTiledInputFile.obj
 0001:00124840       ?resize@?$vector@PAMV?$allocator@PAM@std@@@std@@QAEXI@Z 10125840 f i OpenExr:ImfCompositeDeepScanLine.obj
 0001:00124840       ?resize@?$vector@PAULineBuffer@?A0xa01d29ce@Imf@@V?$allocator@PAULineBuffer@?A0xa01d29ce@Imf@@@std@@@std@@QAEXI@Z 10125840 f i OpenExr:ImfDeepScanLineInputFile.obj
 0001:00124840       ?resize@?$vector@HV?$allocator@H@std@@@std@@QAEXI@Z 10125840 f i OpenExr:ImfCompositeDeepScanLine.obj
 0001:00124840       ?resize@?$vector@PAUTileBuffer@?A0xd13efcfe@Imf@@V?$allocator@PAUTileBuffer@?A0xd13efcfe@Imf@@@std@@@std@@QAEXI@Z 10125840 f i OpenExr:ImfTiledInputFile.obj
 0001:00124840       ?resize@?$vector@PAULineBuffer@?A0xc59857b3@Imf@@V?$allocator@PAULineBuffer@?A0xc59857b3@Imf@@@std@@@std@@QAEXI@Z 10125840 f i OpenExr:ImfScanLineInputFile.obj
 0001:001248a0       ?resize@?$vector@V?$basic_string@DU?$char_traits@D@std@@V?$allocator@D@2@@std@@V?$allocator@V?$basic_string@DU?$char_traits@D@std@@V?$allocator@D@2@@std@@@2@@std@@QAEXI@Z 101258a0 f i OpenExr:ImfCompositeDeepScanLine.obj
 0001:001249b0       ??0DeepScanLineInputFile@Imf@@QAE@QBDH@Z 101259b0 f   OpenExr:ImfDeepScanLineInputFile.obj
 0001:00124ce0       ??0DeepScanLineInputFile@Imf@@QAE@ABVHeader@1@PAVIStream@1@HH@Z 10125ce0 f   OpenExr:ImfDeepScanLineInputFile.obj
 0001:00124e10       ??1DeepScanLineInputFile@Imf@@UAE@XZ 10125e10 f   OpenExr:ImfDeepScanLineInputFile.obj
 0001:00124f00       ?fileName@DeepScanLineInputFile@Imf@@QBEPBDXZ 10125f00 f   OpenExr:ImfDeepScanLineInputFile.obj
 0001:00124f20       ?header@DeepScanLineInputFile@Imf@@QBEABVHeader@2@XZ 10125f20 f   OpenExr:ImfDeepScanLineInputFile.obj
 0001:00124f30       ?version@DeepScanLineInputFile@Imf@@QBEHXZ 10125f30 f   OpenExr:ImfDeepScanLineInputFile.obj
 0001:00124f40       ?setFrameBuffer@DeepScanLineInputFile@Imf@@QAEXABVDeepFrameBuffer@2@@Z 10125f40 f   OpenExr:ImfDeepScanLineInputFile.obj
 0001:00125900       ?frameBuffer@DeepScanLineInputFile@Imf@@QBEABVDeepFrameBuffer@2@XZ 10126900 f   OpenExr:ImfDeepScanLineInputFile.obj
 0001:00125930       ?isComplete@DeepScanLineInputFile@Imf@@QBE_NXZ 10126930 f   OpenExr:ImfDeepScanLineInputFile.obj
 0001:00125940       ?readPixels@DeepScanLineInputFile@Imf@@QAEXHH@Z 10126940 f   OpenExr:ImfDeepScanLineInputFile.obj
 0001:00125d10       ?readPixels@DeepScanLineInputFile@Imf@@QAEXH@Z 10126d10 f   OpenExr:ImfDeepScanLineInputFile.obj
 0001:00125d30       ?readPixels@DeepScanLineInputFile@Imf@@QBEXPBDABVDeepFrameBuffer@2@HH@Z 10126d30 f   OpenExr:ImfDeepScanLineInputFile.obj
 0001:00126250       ?rawPixelData@DeepScanLineInputFile@Imf@@QAEXHPADAA_K@Z 10127250 f   OpenExr:ImfDeepScanLineInputFile.obj
 0001:001266f0       ?firstScanLineInChunk@DeepScanLineInputFile@Imf@@QBEHH@Z 101276f0 f   OpenExr:ImfDeepScanLineInputFile.obj
 0001:00126720       ?lastScanLineInChunk@DeepScanLineInputFile@Imf@@QBEHH@Z 10127720 f   OpenExr:ImfDeepScanLineInputFile.obj
 0001:00126760       ?readPixelSampleCounts@DeepScanLineInputFile@Imf@@QAEXHH@Z 10127760 f   OpenExr:ImfDeepScanLineInputFile.obj
 0001:00126b30       ?readPixelSampleCounts@DeepScanLineInputFile@Imf@@QAEXH@Z 10127b30 f   OpenExr:ImfDeepScanLineInputFile.obj
 0001:00126b50       ?readPixelSampleCounts@DeepScanLineInputFile@Imf@@QBEXPBDABVDeepFrameBuffer@2@HH@Z 10127b50 f   OpenExr:ImfDeepScanLineInputFile.obj
 0001:00126f50       ??0DeepScanLineInputFile@Imf@@AAE@PAUInputPartData@1@@Z 10127f50 f   OpenExr:ImfDeepScanLineInputFile.obj
 0001:00127030       ?initialize@DeepScanLineInputFile@Imf@@AAEXABVHeader@2@@Z 10128030 f   OpenExr:ImfDeepScanLineInputFile.obj
 0001:00127720       ?compatibilityInitialize@DeepScanLineInputFile@Imf@@AAEXAAVIStream@2@@Z 10128720 f   OpenExr:ImfDeepScanLineInputFile.obj
 0001:00127820       ?multiPartInitialize@DeepScanLineInputFile@Imf@@AAEXPAUInputPartData@2@@Z 10128820 f   OpenExr:ImfDeepScanLineInputFile.obj
 0001:00127890       ??0InSliceInfo@?A0xa01d29ce@Imf@@QAE@W4PixelType@2@PAD0IIIHH_N2N@Z 10128890 f   OpenExr:ImfDeepScanLineInputFile.obj
 0001:001278e0       ??0LineBuffer@?A0xa01d29ce@Imf@@QAE@XZ 101288e0 f   OpenExr:ImfDeepScanLineInputFile.obj
 0001:00127980       ??1LineBuffer@?A0xa01d29ce@Imf@@QAE@XZ 10128980 f   OpenExr:ImfDeepScanLineInputFile.obj
 0001:00127a00       ??0Data@DeepScanLineInputFile@Imf@@QAE@H@Z 10128a00 f   OpenExr:ImfDeepScanLineInputFile.obj
 0001:00127c50       ??1Data@DeepScanLineInputFile@Imf@@UAE@XZ 10128c50 f   OpenExr:ImfDeepScanLineInputFile.obj
 0001:00127ee0       ?reconstructLineOffsets@?A0xa01d29ce@Imf@@YAXAAVIStream@2@W4LineOrder@2@AAV?$vector@_KV?$allocator@_K@std@@@std@@@Z 10128ee0 f   OpenExr:ImfDeepScanLineInputFile.obj
 0001:00128080       ?readLineOffsets@?A0xa01d29ce@Imf@@YAXAAVIStream@2@W4LineOrder@2@AAV?$vector@_KV?$allocator@_K@std@@@std@@AA_N@Z 10129080 f   OpenExr:ImfDeepScanLineInputFile.obj
 0001:00128100       ?readPixelData@?A0xa01d29ce@Imf@@YAXPAUInputStreamMutex@2@PAUData@DeepScanLineInputFile@2@HAAPADAA_K3@Z 10129100 f   OpenExr:ImfDeepScanLineInputFile.obj
 0001:00128710       ??0LineBufferTask@?A0xa01d29ce@Imf@@QAE@PAVTaskGroup@IlmThread@@PAUData@DeepScanLineInputFile@2@PAULineBuffer@12@HH@Z 10129710 f   OpenExr:ImfDeepScanLineInputFile.obj
 0001:00128750       ??1LineBufferTask@?A0xa01d29ce@Imf@@UAE@XZ 10129750 f   OpenExr:ImfDeepScanLineInputFile.obj
 0001:001287b0       ?execute@LineBufferTask@?A0xa01d29ce@Imf@@UAEXXZ 101297b0 f   OpenExr:ImfDeepScanLineInputFile.obj
 0001:00128b20       ?newLineBufferTask@?A0xa01d29ce@Imf@@YAPAVLineBufferTask@12@PAVTaskGroup@IlmThread@@PAUData@DeepScanLineInputFile@2@HHH@Z 10129b20 f   OpenExr:ImfDeepScanLineInputFile.obj
 0001:00128ca0       ?readSampleCountForLineBlock@?A0xa01d29ce@Imf@@YAXPAUInputStreamMutex@2@PAUData@DeepScanLineInputFile@2@H@Z 10129ca0 f   OpenExr:ImfDeepScanLineInputFile.obj
 0001:001295f0       ?fillSampleCountFromCache@?A0xa01d29ce@Imf@@YAXHPAUData@DeepScanLineInputFile@2@@Z 1012a5f0 f   OpenExr:ImfDeepScanLineInputFile.obj
 0001:00129670       ??$_Buynode@AAU?$pair@$$CBVName@Imf@@UDeepSlice@2@@std@@@?$_Tree_buy@U?$pair@$$CBVName@Imf@@UDeepSlice@2@@std@@V?$allocator@U?$pair@$$CBVName@Imf@@UDeepSlice@2@@std@@@2@@std@@QAEPAU?$_Tree_node@U?$pair@$$CBVName@Imf@@UDeepSlice@2@@std@@PAX@1@AAU?$pair@$$CBVName@Imf@@UDeepSlice@2@@1@@Z 1012a670 f i OpenExr:ImfDeepScanLineInputFile.obj
 0001:001296a0       ??$_Copy_nodes@U?$integral_constant@_N$0A@@std@@@?$_Tree@V?$_Tmap_traits@VName@Imf@@UDeepSlice@2@U?$less@VName@Imf@@@std@@V?$allocator@U?$pair@$$CBVName@Imf@@UDeepSlice@2@@std@@@5@$0A@@std@@@std@@IAEPAU?$_Tree_node@U?$pair@$$CBVName@Imf@@UDeepSlice@2@@std@@PAX@1@PAU21@0U?$integral_constant@_N$0A@@1@@Z 1012a6a0 f i OpenExr:ImfDeepScanLineInputFile.obj
 0001:00129760       ??1?$Array2D@I@Imf@@QAE@XZ 1012a760 f i OpenExr:ImfDeepScanLineInputFile.obj
 0001:00129770       ??4?$vector@PAUTInSliceInfo@?A0x757584a7@Imf@@V?$allocator@PAUTInSliceInfo@?A0x757584a7@Imf@@@std@@@std@@QAEAAV01@ABV01@@Z 1012a770 f i OpenExr:ImfDeepTiledInputFile.obj
 0001:00129770       ??4?$vector@MV?$allocator@M@std@@@std@@QAEAAV01@ABV01@@Z 1012a770 f i OpenExr:ImfHeader.obj
 0001:00129770       ??4?$vector@PAUInSliceInfo@?A0xa01d29ce@Imf@@V?$allocator@PAUInSliceInfo@?A0xa01d29ce@Imf@@@std@@@std@@QAEAAV01@ABV01@@Z 1012a770 f i OpenExr:ImfDeepScanLineInputFile.obj
 0001:00129890       ??_EData@DeepScanLineInputFile@Imf@@UAEPAXI@Z 1012a890 f i OpenExr:ImfDeepScanLineInputFile.obj
 0001:00129890       ??_GData@DeepScanLineInputFile@Imf@@UAEPAXI@Z 1012a890 f i OpenExr:ImfDeepScanLineInputFile.obj
 0001:001298c0       ??_EDeepScanLineInputFile@Imf@@UAEPAXI@Z 1012a8c0 f i OpenExr:ImfDeepScanLineInputFile.obj
 0001:001298c0       ??_GDeepScanLineInputFile@Imf@@UAEPAXI@Z 1012a8c0 f i OpenExr:ImfDeepScanLineInputFile.obj
 0001:001298f0       ??_GLineBufferTask@?A0xa01d29ce@Imf@@UAEPAXI@Z 1012a8f0 f i OpenExr:ImfDeepScanLineInputFile.obj
 0001:001298f0       ??_ELineBufferTask@?A0xa01d29ce@Imf@@UAEPAXI@Z 1012a8f0 f i OpenExr:ImfDeepScanLineInputFile.obj
 0001:00129970       ?_Buy@?$vector@PBDV?$allocator@PBD@std@@@std@@IAE_NI@Z 1012a970 f i OpenExr:ImfDwaCompressor.obj
 0001:00129970       ?_Buy@?$vector@PAUInSliceInfo@?A0xa01d29ce@Imf@@V?$allocator@PAUInSliceInfo@?A0xa01d29ce@Imf@@@std@@@std@@IAE_NI@Z 1012a970 f i OpenExr:ImfDeepScanLineInputFile.obj
 0001:00129970       ?_Buy@?$vector@PADV?$allocator@PAD@std@@@std@@IAE_NI@Z 1012a970 f i OpenExr:ImfDwaCompressor.obj
 0001:00129970       ?_Buy@?$vector@PBVHeader@Imf@@V?$allocator@PBVHeader@Imf@@@std@@@std@@IAE_NI@Z 1012a970 f i OpenExr:ImfCompositeDeepScanLine.obj
 0001:00129970       ?_Buy@?$vector@MV?$allocator@M@std@@@std@@IAE_NI@Z 1012a970 f i OpenExr:ImfHeader.obj
 0001:00129970       ?_Buy@?$vector@IV?$allocator@I@std@@@std@@IAE_NI@Z 1012a970 f i OpenExr:ImfCompositeDeepScanLine.obj
 0001:00129970       ?_Buy@?$vector@PAGV?$allocator@PAG@std@@@std@@IAE_NI@Z 1012a970 f i OpenExr:ImfDwaCompressor.obj
 0001:00129970       ?_Buy@?$vector@IV?$allocator@_N@std@@@std@@IAE_NI@Z 1012a970 f i OpenExr:ImfDwaCompressor.obj
 0001:00129970       ?_Buy@?$vector@PAVTileOffsets@Imf@@V?$allocator@PAVTileOffsets@Imf@@@std@@@std@@IAE_NI@Z 1012a970 f i OpenExr:ImfMultiPartInputFile.obj
 0001:00129970       ?_Buy@?$vector@HV?$allocator@H@std@@@std@@IAE_NI@Z 1012a970 f i OpenExr:ImfMultiPartInputFile.obj
 0001:00129970       ?_Buy@?$vector@PBMV?$allocator@PBM@std@@@std@@IAE_NI@Z 1012a970 f i OpenExr:ImfCompositeDeepScanLine.obj
 0001:00129970       ?_Buy@?$vector@PAUTInSliceInfo@?A0x757584a7@Imf@@V?$allocator@PAUTInSliceInfo@?A0x757584a7@Imf@@@std@@@std@@IAE_NI@Z 1012a970 f i OpenExr:ImfDeepTiledInputFile.obj
 0001:001299e0       ?_Buynode0@?$_Tree_buy@U?$pair@$$CBVName@Imf@@UDeepSlice@2@@std@@V?$allocator@U?$pair@$$CBVName@Imf@@UDeepSlice@2@@std@@@2@@std@@QAEPAU?$_Tree_node@U?$pair@$$CBVName@Imf@@UDeepSlice@2@@std@@PAX@2@XZ 1012a9e0 f i OpenExr:ImfDeepScanLineInputFile.obj
 0001:00129a20       ?_Reallocate@?$vector@PAVDeepScanLineInputPart@Imf@@V?$allocator@PAVDeepScanLineInputPart@Imf@@@std@@@std@@IAEXI@Z 1012aa20 f i OpenExr:ImfCompositeDeepScanLine.obj
 0001:00129a20       ?_Reallocate@?$vector@IV?$allocator@I@std@@@std@@IAEXI@Z 1012aa20 f i OpenExr:ImfMisc.obj
 0001:00129a20       ?_Reallocate@?$vector@PAULineBuffer@?A0x63a57f46@Imf@@V?$allocator@PAULineBuffer@?A0x63a57f46@Imf@@@std@@@std@@IAEXI@Z 1012aa20 f i OpenExr:ImfOutputFile.obj
 0001:00129a20       ?_Reallocate@?$vector@PAULineBuffer@?A0xa01d29ce@Imf@@V?$allocator@PAULineBuffer@?A0xa01d29ce@Imf@@@std@@@std@@IAEXI@Z 1012aa20 f i OpenExr:ImfDeepScanLineInputFile.obj
 0001:00129a20       ?_Reallocate@?$vector@PBDV?$allocator@PBD@std@@@std@@IAEXI@Z 1012aa20 f i OpenExr:ImfDwaCompressor.obj
 0001:00129a20       ?_Reallocate@?$vector@HV?$allocator@H@std@@@std@@IAEXI@Z 1012aa20 f i OpenExr:ImfCompositeDeepScanLine.obj
 0001:00129a20       ?_Reallocate@?$vector@W4PixelType@Imf@@V?$allocator@W4PixelType@Imf@@@std@@@std@@IAEXI@Z 1012aa20 f i OpenExr:ImfDwaCompressor.obj
 0001:00129a20       ?_Reallocate@?$vector@PAVDeepScanLineInputFile@Imf@@V?$allocator@PAVDeepScanLineInputFile@Imf@@@std@@@std@@IAEXI@Z 1012aa20 f i OpenExr:ImfCompositeDeepScanLine.obj
 0001:00129a20       ?_Reallocate@?$vector@PAULineBuffer@?A0xc59857b3@Imf@@V?$allocator@PAULineBuffer@?A0xc59857b3@Imf@@@std@@@std@@IAEXI@Z 1012aa20 f i OpenExr:ImfScanLineInputFile.obj
 0001:00129a20       ?_Reallocate@?$vector@PAUInputPartData@Imf@@V?$allocator@PAUInputPartData@Imf@@@std@@@std@@IAEXI@Z 1012aa20 f i OpenExr:ImfMultiPartInputFile.obj
 0001:00129a20       ?_Reallocate@?$vector@PADV?$allocator@PAD@std@@@std@@IAEXI@Z 1012aa20 f i OpenExr:ImfDwaCompressor.obj
 0001:00129a20       ?_Reallocate@?$vector@PAUTileBuffer@?A0xd13efcfe@Imf@@V?$allocator@PAUTileBuffer@?A0xd13efcfe@Imf@@@std@@@std@@IAEXI@Z 1012aa20 f i OpenExr:ImfTiledInputFile.obj
 0001:00129a20       ?_Reallocate@?$vector@PAUTInSliceInfo@?A0x757584a7@Imf@@V?$allocator@PAUTInSliceInfo@?A0x757584a7@Imf@@@std@@@std@@IAEXI@Z 1012aa20 f i OpenExr:ImfDeepTiledInputFile.obj
 0001:00129a20       ?_Reallocate@?$vector@PAUInSliceInfo@?A0xa01d29ce@Imf@@V?$allocator@PAUInSliceInfo@?A0xa01d29ce@Imf@@@std@@@std@@IAEXI@Z 1012aa20 f i OpenExr:ImfDeepScanLineInputFile.obj
 0001:00129a20       ?_Reallocate@?$vector@MV?$allocator@M@std@@@std@@IAEXI@Z 1012aa20 f i OpenExr:ImfFloatVectorAttribute.obj
 0001:00129a20       ?_Reallocate@?$vector@PAMV?$allocator@PAM@std@@@std@@IAEXI@Z 1012aa20 f i OpenExr:ImfCompositeDeepScanLine.obj
 0001:00129a20       ?_Reallocate@?$vector@PAUTileBuffer@?A0x757584a7@Imf@@V?$allocator@PAUTileBuffer@?A0x757584a7@Imf@@@std@@@std@@IAEXI@Z 1012aa20 f i OpenExr:ImfDeepTiledInputFile.obj
 0001:00129aa0       ?wav2Encode@Imf@@YAXPAGHHHHG@Z 1012aaa0 f   OpenExr:ImfWav.obj
 0001:00129df0       ?wav2Decode@Imf@@YAXPAGHHHHG@Z 1012adf0 f   OpenExr:ImfWav.obj
 0001:0012a100       ??0FastHufDecoder@Imf@@QAE@AAPBDHHHH@Z 1012b100 f   OpenExr:ImfFastHuf.obj
 0001:0012a900       ??1FastHufDecoder@Imf@@QAE@XZ 1012b900 f   OpenExr:ImfFastHuf.obj
 0001:0012a910       ?enabled@FastHufDecoder@Imf@@SA_NXZ 1012b910 f   OpenExr:ImfFastHuf.obj
 0001:0012a920       ?decode@FastHufDecoder@Imf@@QAEXPBEHPAGH@Z 1012b920 f   OpenExr:ImfFastHuf.obj
 0001:0012ad60       ?buildTables@FastHufDecoder@Imf@@AAEXPA_K0@Z 1012bd60 f   OpenExr:ImfFastHuf.obj
 0001:0012afc0       ?readBits@FastHufDecoder@Imf@@AAE_KHAA_KAAHAAPBD@Z 1012bfc0 f i OpenExr:ImfFastHuf.obj
 0001:0012b030       ?refill@FastHufDecoder@Imf@@AAEXAA_KH0AAHAAPBE1@Z 1012c030 f i OpenExr:ImfFastHuf.obj
 0001:0012b1b0       ?halfToUint@Imf@@YAIVhalf@@@Z 1012c1b0 f   OpenExr:ImfConvert.obj
 0001:0012b200       ?floatToUint@Imf@@YAIM@Z   1012c200 f   OpenExr:ImfConvert.obj
 0001:0012b260       ?uintToHalf@Imf@@YA?AVhalf@@I@Z 1012c260 f   OpenExr:ImfConvert.obj
 0001:0012b2b0       ?floatToHalf@Imf@@YA?AVhalf@@M@Z 1012c2b0 f   OpenExr:ImfConvert.obj
 0001:0012b310       ?levelSize@Imf@@YAHHHHW4LevelRoundingMode@1@@Z 1012c310 f   OpenExr:ImfTiledMisc.obj
 0001:0012b3a0       ?dataWindowForLevel@Imf@@YA?AV?$Box@V?$Vec2@H@Imath@@@Imath@@ABVTileDescription@1@HHHHHH@Z 1012c3a0 f   OpenExr:ImfTiledMisc.obj
 0001:0012b3f0       ?dataWindowForTile@Imf@@YA?AV?$Box@V?$Vec2@H@Imath@@@Imath@@ABVTileDescription@1@HHHHHHHH@Z 1012c3f0 f   OpenExr:ImfTiledMisc.obj
 0001:0012b4a0       ?calculateBytesPerPixel@Imf@@YAIABVHeader@1@@Z 1012c4a0 f   OpenExr:ImfTiledMisc.obj
 0001:0012b550       ?calculateBytesPerLine@Imf@@YAXABVHeader@1@PADHHHHHHAAV?$vector@HV?$allocator@H@std@@@std@@2AAV?$vector@_KV?$allocator@_K@std@@@4@@Z 1012c550 f   OpenExr:ImfTiledMisc.obj
 0001:0012b6b0       ?precalculateTileInfo@Imf@@YAXABVTileDescription@1@HHHHAAPAH1AAH2@Z 1012c6b0 f   OpenExr:ImfTiledMisc.obj
 0001:0012b760       ?getTiledChunkOffsetTableSize@Imf@@YAHABVHeader@1@@Z 1012c760 f   OpenExr:ImfTiledMisc.obj
 0001:0012b970       ?floorLog2@?A0x5a7e8c9e@Imf@@YAHH@Z 1012c970 f   OpenExr:ImfTiledMisc.obj
 0001:0012b990       ?ceilLog2@?A0x5a7e8c9e@Imf@@YAHH@Z 1012c990 f   OpenExr:ImfTiledMisc.obj
 0001:0012b9c0       ?roundLog2@?A0x5a7e8c9e@Imf@@YAHHW4LevelRoundingMode@2@@Z 1012c9c0 f   OpenExr:ImfTiledMisc.obj
 0001:0012ba10       ?calculateNumXLevels@?A0x5a7e8c9e@Imf@@YAHABVTileDescription@2@HHHH@Z 1012ca10 f   OpenExr:ImfTiledMisc.obj
 0001:0012bad0       ?calculateNumYLevels@?A0x5a7e8c9e@Imf@@YAHABVTileDescription@2@HHHH@Z 1012cad0 f   OpenExr:ImfTiledMisc.obj
 0001:0012bb90       ?calculateNumTiles@?A0x5a7e8c9e@Imf@@YAXPAHHHHHW4LevelRoundingMode@2@@Z 1012cb90 f   OpenExr:ImfTiledMisc.obj
 0001:0012bc40       ??0TileOffsets@Imf@@QAE@W4LevelMode@1@HHPBH1@Z 1012cc40 f   OpenExr:ImfTileOffsets.obj
 0001:0012bed0       ?readFrom@TileOffsets@Imf@@QAEXAAVIStream@2@AA_N_N2@Z 1012ced0 f   OpenExr:ImfTileOffsets.obj
 0001:0012c010       ?readFrom@TileOffsets@Imf@@QAEXV?$vector@_KV?$allocator@_K@std@@@std@@AA_N@Z 1012d010 f   OpenExr:ImfTileOffsets.obj
 0001:0012c290       ?writeTo@TileOffsets@Imf@@QBE_KAAVOStream@2@@Z 1012d290 f   OpenExr:ImfTileOffsets.obj
 0001:0012c4b0       ?isEmpty@TileOffsets@Imf@@QBE_NXZ 1012d4b0 f   OpenExr:ImfTileOffsets.obj
 0001:0012c5e0       ?getTileOrder@TileOffsets@Imf@@QBEXQAH000@Z 1012d5e0 f   OpenExr:ImfTileOffsets.obj
 0001:0012c990       ??RTileOffsets@Imf@@QAEAA_KHHHH@Z 1012d990 f   OpenExr:ImfTileOffsets.obj
 0001:0012ca30       ??RTileOffsets@Imf@@QAEAA_KHHH@Z 1012da30 f   OpenExr:ImfTileOffsets.obj
 0001:0012ca50       ??RTileOffsets@Imf@@QBEAB_KHHHH@Z 1012da50 f   OpenExr:ImfTileOffsets.obj
 0001:0012caf0       ??RTileOffsets@Imf@@QBEAB_KHHH@Z 1012daf0 f   OpenExr:ImfTileOffsets.obj
 0001:0012cb10       ?isValidTile@TileOffsets@Imf@@QBE_NHHHH@Z 1012db10 f   OpenExr:ImfTileOffsets.obj
 0001:0012cc40       ?getOffsets@TileOffsets@Imf@@QBEABV?$vector@V?$vector@V?$vector@_KV?$allocator@_K@std@@@std@@V?$allocator@V?$vector@_KV?$allocator@_K@std@@@std@@@2@@std@@V?$allocator@V?$vector@V?$vector@_KV?$allocator@_K@std@@@std@@V?$allocator@V?$vector@_KV?$allocator@_K@std@@@std@@@2@@std@@@2@@std@@XZ 1012dc40 f   OpenExr:ImfTileOffsets.obj
 0001:0012cc50       ?findTiles@TileOffsets@Imf@@AAEXAAVIStream@2@_N11@Z 1012dc50 f   OpenExr:ImfTileOffsets.obj
 0001:0012d020       ?reconstructFromFile@TileOffsets@Imf@@AAEXAAVIStream@2@_N1@Z 1012e020 f   OpenExr:ImfTileOffsets.obj
 0001:0012d0c0       ?anyOffsetsAreInvalid@TileOffsets@Imf@@ABE_NXZ 1012e0c0 f   OpenExr:ImfTileOffsets.obj
 0001:0012d200       ??$_Adjust_heap@PAUtilepos@?A0x54296fbe@Imf@@HU123@U?$less@X@std@@@std@@YAXPAUtilepos@?A0x54296fbe@Imf@@HH$$QAU123@U?$less@X@0@@Z 1012e200 f i OpenExr:ImfTileOffsets.obj
 0001:0012d2a0       ??$_Insertion_sort1@PAUtilepos@?A0x54296fbe@Imf@@U?$less@X@std@@U123@@std@@YAXPAUtilepos@?A0x54296fbe@Imf@@0U?$less@X@0@0@Z 1012e2a0 f i OpenExr:ImfTileOffsets.obj
 0001:0012d360       ??$_Make_heap@PAUtilepos@?A0x54296fbe@Imf@@HU123@U?$less@X@std@@@std@@YAXPAUtilepos@?A0x54296fbe@Imf@@0U?$less@X@0@PAH0@Z 1012e360 f i OpenExr:ImfTileOffsets.obj
 0001:0012d470       ??$_Med3@PAUtilepos@?A0x54296fbe@Imf@@U?$less@X@std@@@std@@YAXPAUtilepos@?A0x54296fbe@Imf@@00U?$less@X@0@@Z 1012e470 f i OpenExr:ImfTileOffsets.obj
 0001:0012d520       ??$_Median@PAUtilepos@?A0x54296fbe@Imf@@U?$less@X@std@@@std@@YAXPAUtilepos@?A0x54296fbe@Imf@@00U?$less@X@0@@Z 1012e520 f i OpenExr:ImfTileOffsets.obj
 0001:0012d5d0       ??$_Push_heap@PAUtilepos@?A0x54296fbe@Imf@@HU123@U?$less@X@std@@@std@@YAXPAUtilepos@?A0x54296fbe@Imf@@HH$$QAU123@U?$less@X@0@@Z 1012e5d0 f i OpenExr:ImfTileOffsets.obj
 0001:0012d650       ??$_Sort@PAUtilepos@?A0x54296fbe@Imf@@HU?$less@X@std@@@std@@YAXPAUtilepos@?A0x54296fbe@Imf@@0HU?$less@X@0@@Z 1012e650 f i OpenExr:ImfTileOffsets.obj
 0001:0012d790       ??$_Sort_heap@PAUtilepos@?A0x54296fbe@Imf@@U?$less@X@std@@@std@@YAXPAUtilepos@?A0x54296fbe@Imf@@0U?$less@X@0@@Z 1012e790 f i OpenExr:ImfTileOffsets.obj
 0001:0012d840       ??$_Unguarded_partition@PAUtilepos@?A0x54296fbe@Imf@@U?$less@X@std@@@std@@YA?AU?$pair@PAUtilepos@?A0x54296fbe@Imf@@PAU123@@0@PAUtilepos@?A0x54296fbe@Imf@@0U?$less@X@0@@Z 1012e840 f i OpenExr:ImfTileOffsets.obj
 0001:0012dae0       ??$_Uninit_def_fill_n@PAUtilepos@?A0x54296fbe@Imf@@IV?$allocator@Utilepos@?A0x54296fbe@Imf@@@std@@U123@@std@@YAXPAUtilepos@?A0x54296fbe@Imf@@IAAU?$_Wrap_alloc@V?$allocator@Utilepos@?A0x54296fbe@Imf@@@std@@@0@0U_Nonscalar_ptr_iterator_tag@0@@Z 1012eae0 f i OpenExr:ImfTileOffsets.obj
 0001:0012db10       ??0?$vector@Utilepos@?A0x54296fbe@Imf@@V?$allocator@Utilepos@?A0x54296fbe@Imf@@@std@@@std@@QAE@I@Z 1012eb10 f i OpenExr:ImfTileOffsets.obj
 0001:0012dbb0       ?_Buy@?$vector@V?$basic_string@DU?$char_traits@D@std@@V?$allocator@D@2@@std@@V?$allocator@V?$basic_string@DU?$char_traits@D@std@@V?$allocator@D@2@@std@@@2@@std@@IAE_NI@Z 1012ebb0 f i OpenExr:ImfHeader.obj
 0001:0012dbb0       ?_Buy@?$vector@Utilepos@?A0x54296fbe@Imf@@V?$allocator@Utilepos@?A0x54296fbe@Imf@@@std@@@std@@IAE_NI@Z 1012ebb0 f i OpenExr:ImfTileOffsets.obj
 0001:0012dc20       ?_Reallocate@?$vector@V?$vector@V?$vector@_KV?$allocator@_K@std@@@std@@V?$allocator@V?$vector@_KV?$allocator@_K@std@@@std@@@2@@std@@V?$allocator@V?$vector@V?$vector@_KV?$allocator@_K@std@@@std@@V?$allocator@V?$vector@_KV?$allocator@_K@std@@@std@@@2@@std@@@2@@std@@IAEXI@Z 1012ec20 f i OpenExr:ImfTileOffsets.obj
 0001:0012dd20       ?_Reserve@?$vector@V?$vector@V?$vector@_KV?$allocator@_K@std@@@std@@V?$allocator@V?$vector@_KV?$allocator@_K@std@@@std@@@2@@std@@V?$allocator@V?$vector@V?$vector@_KV?$allocator@_K@std@@@std@@V?$allocator@V?$vector@_KV?$allocator@_K@std@@@std@@@2@@std@@@2@@std@@IAEXI@Z 1012ed20 f i OpenExr:ImfTileOffsets.obj
 0001:0012ddc0       ?_Reserve@?$vector@V?$vector@_KV?$allocator@_K@std@@@std@@V?$allocator@V?$vector@_KV?$allocator@_K@std@@@std@@@2@@std@@IAEXI@Z 1012edc0 f i OpenExr:ImfTileOffsets.obj
 0001:0012ddc0       ?_Reserve@?$vector@V?$vector@PAMV?$allocator@PAM@std@@@std@@V?$allocator@V?$vector@PAMV?$allocator@PAM@std@@@std@@@2@@std@@IAEXI@Z 1012edc0 f i OpenExr:ImfCompositeDeepScanLine.obj
 0001:0012ddc0       ?_Reserve@?$vector@V?$vector@PBDV?$allocator@PBD@std@@@std@@V?$allocator@V?$vector@PBDV?$allocator@PBD@std@@@std@@@2@@std@@IAEXI@Z 1012edc0 f i OpenExr:ImfDwaCompressor.obj
 0001:0012ddc0       ?_Reserve@?$vector@V?$vector@PADV?$allocator@PAD@std@@@std@@V?$allocator@V?$vector@PADV?$allocator@PAD@std@@@std@@@2@@std@@IAEXI@Z 1012edc0 f i OpenExr:ImfDwaCompressor.obj
 0001:0012de60       ?resize@?$vector@V?$vector@V?$vector@_KV?$allocator@_K@std@@@std@@V?$allocator@V?$vector@_KV?$allocator@_K@std@@@std@@@2@@std@@V?$allocator@V?$vector@V?$vector@_KV?$allocator@_K@std@@@std@@V?$allocator@V?$vector@_KV?$allocator@_K@std@@@std@@@2@@std@@@2@@std@@QAEXI@Z 1012ee60 f i OpenExr:ImfTileOffsets.obj
 0001:0012df70       ?resize@?$vector@V?$vector@_KV?$allocator@_K@std@@@std@@V?$allocator@V?$vector@_KV?$allocator@_K@std@@@std@@@2@@std@@QAEXI@Z 1012ef70 f i OpenExr:ImfTileOffsets.obj
 0001:0012df70       ?resize@?$vector@V?$vector@PAMV?$allocator@PAM@std@@@std@@V?$allocator@V?$vector@PAMV?$allocator@PAM@std@@@std@@@2@@std@@QAEXI@Z 1012ef70 f i OpenExr:ImfCompositeDeepScanLine.obj
 0001:0012e080       ??0InputPartData@Imf@@QAE@PAUInputStreamMutex@1@ABVHeader@1@HHH@Z 1012f080 f   OpenExr:ImfInputPartData.obj
 0001:0012e0d0       ??0DeepTiledInputFile@Imf@@QAE@QBDH@Z 1012f0d0 f   OpenExr:ImfDeepTiledInputFile.obj
 0001:0012e400       ??0DeepTiledInputFile@Imf@@QAE@AAVIStream@1@H@Z 1012f400 f   OpenExr:ImfDeepTiledInputFile.obj
 0001:0012e710       ??1DeepTiledInputFile@Imf@@UAE@XZ 1012f710 f   OpenExr:ImfDeepTiledInputFile.obj
 0001:0012e810       ?fileName@DeepTiledInputFile@Imf@@QBEPBDXZ 1012f810 f   OpenExr:ImfDeepTiledInputFile.obj
 0001:0012e830       ?header@DeepTiledInputFile@Imf@@QBEABVHeader@2@XZ 1012f830 f   OpenExr:ImfDeepTiledInputFile.obj
 0001:0012e840       ?version@DeepTiledInputFile@Imf@@QBEHXZ 1012f840 f   OpenExr:ImfDeepTiledInputFile.obj
 0001:0012e850       ?setFrameBuffer@DeepTiledInputFile@Imf@@QAEXABVDeepFrameBuffer@2@@Z 1012f850 f   OpenExr:ImfDeepTiledInputFile.obj
 0001:0012f390       ?frameBuffer@DeepTiledInputFile@Imf@@QBEABVDeepFrameBuffer@2@XZ 10130390 f   OpenExr:ImfDeepTiledInputFile.obj
 0001:0012f3c0       ?isComplete@DeepTiledInputFile@Imf@@QBE_NXZ 101303c0 f   OpenExr:ImfDeepTiledInputFile.obj
 0001:0012f3d0       ?tileXSize@DeepTiledInputFile@Imf@@QBEIXZ 101303d0 f   OpenExr:ImfDeepTiledInputFile.obj
 0001:0012f3e0       ?tileYSize@DeepTiledInputFile@Imf@@QBEIXZ 101303e0 f   OpenExr:ImfDeepTiledInputFile.obj
 0001:0012f3f0       ?levelMode@DeepTiledInputFile@Imf@@QBE?AW4LevelMode@2@XZ 101303f0 f   OpenExr:ImfDeepTiledInputFile.obj
 0001:0012f400       ?levelRoundingMode@DeepTiledInputFile@Imf@@QBE?AW4LevelRoundingMode@2@XZ 10130400 f   OpenExr:ImfDeepTiledInputFile.obj
 0001:0012f410       ?numLevels@DeepTiledInputFile@Imf@@QBEHXZ 10130410 f   OpenExr:ImfDeepTiledInputFile.obj
 0001:0012f580       ?numXLevels@DeepTiledInputFile@Imf@@QBEHXZ 10130580 f   OpenExr:ImfDeepTiledInputFile.obj
 0001:0012f590       ?numYLevels@DeepTiledInputFile@Imf@@QBEHXZ 10130590 f   OpenExr:ImfDeepTiledInputFile.obj
 0001:0012f5a0       ?isValidLevel@DeepTiledInputFile@Imf@@QBE_NHH@Z 101305a0 f   OpenExr:ImfDeepTiledInputFile.obj
 0001:0012f5e0       ?totalTiles@DeepTiledInputFile@Imf@@QBEIXZ 101305e0 f   OpenExr:ImfDeepTiledInputFile.obj
 0001:0012f700       ?levelWidth@DeepTiledInputFile@Imf@@QBEHH@Z 10130700 f   OpenExr:ImfDeepTiledInputFile.obj
 0001:0012f870       ?levelHeight@DeepTiledInputFile@Imf@@QBEHH@Z 10130870 f   OpenExr:ImfDeepTiledInputFile.obj
 0001:0012f9f0       ?numXTiles@DeepTiledInputFile@Imf@@QBEHH@Z 101309f0 f   OpenExr:ImfDeepTiledInputFile.obj
 0001:0012fb70       ?numYTiles@DeepTiledInputFile@Imf@@QBEHH@Z 10130b70 f   OpenExr:ImfDeepTiledInputFile.obj
 0001:0012fcf0       ?dataWindowForLevel@DeepTiledInputFile@Imf@@QBE?AV?$Box@V?$Vec2@H@Imath@@@Imath@@H@Z 10130cf0 f   OpenExr:ImfDeepTiledInputFile.obj
 0001:0012fd10       ?dataWindowForLevel@DeepTiledInputFile@Imf@@QBE?AV?$Box@V?$Vec2@H@Imath@@@Imath@@HH@Z 10130d10 f   OpenExr:ImfDeepTiledInputFile.obj
 0001:0012fea0       ?dataWindowForTile@DeepTiledInputFile@Imf@@QBE?AV?$Box@V?$Vec2@H@Imath@@@Imath@@HHH@Z 10130ea0 f   OpenExr:ImfDeepTiledInputFile.obj
 0001:0012fec0       ?dataWindowForTile@DeepTiledInputFile@Imf@@QBE?AV?$Box@V?$Vec2@H@Imath@@@Imath@@HHHH@Z 10130ec0 f   OpenExr:ImfDeepTiledInputFile.obj
 0001:001300c0       ?readTile@DeepTiledInputFile@Imf@@QAEXHHH@Z 101310c0 f   OpenExr:ImfDeepTiledInputFile.obj
 0001:001300e0       ?readTile@DeepTiledInputFile@Imf@@QAEXHHHH@Z 101310e0 f   OpenExr:ImfDeepTiledInputFile.obj
 0001:00130100       ?readTiles@DeepTiledInputFile@Imf@@QAEXHHHHHH@Z 10131100 f   OpenExr:ImfDeepTiledInputFile.obj
 0001:00130760       ?readTiles@DeepTiledInputFile@Imf@@QAEXHHHHH@Z 10131760 f   OpenExr:ImfDeepTiledInputFile.obj
 0001:00130780       ?rawTileData@DeepTiledInputFile@Imf@@QBEXAAH000PADAA_K@Z 10131780 f   OpenExr:ImfDeepTiledInputFile.obj
 0001:00130f20       ?readPixelSampleCount@DeepTiledInputFile@Imf@@QAEXHHH@Z 10131f20 f   OpenExr:ImfDeepTiledInputFile.obj
 0001:00130f40       ?readPixelSampleCount@DeepTiledInputFile@Imf@@QAEXHHHH@Z 10131f40 f   OpenExr:ImfDeepTiledInputFile.obj
 0001:00130f60       ?readPixelSampleCounts@DeepTiledInputFile@Imf@@QAEXHHHHHH@Z 10131f60 f   OpenExr:ImfDeepTiledInputFile.obj
 0001:00132220       ?readPixelSampleCounts@DeepTiledInputFile@Imf@@QAEXHHHHH@Z 10133220 f   OpenExr:ImfDeepTiledInputFile.obj
 0001:00132240       ??0DeepTiledInputFile@Imf@@AAE@PAUInputPartData@1@@Z 10133240 f   OpenExr:ImfDeepTiledInputFile.obj
 0001:001322d0       ??0DeepTiledInputFile@Imf@@AAE@ABVHeader@1@PAVIStream@1@HH@Z 101332d0 f   OpenExr:ImfDeepTiledInputFile.obj
 0001:001323e0       ?initialize@DeepTiledInputFile@Imf@@AAEXXZ 101333e0 f   OpenExr:ImfDeepTiledInputFile.obj
 0001:001329b0       ?multiPartInitialize@DeepTiledInputFile@Imf@@AAEXPAUInputPartData@2@@Z 101339b0 f   OpenExr:ImfDeepTiledInputFile.obj
 0001:00132bb0       ?compatibilityInitialize@DeepTiledInputFile@Imf@@AAEXAAVIStream@2@@Z 10133bb0 f   OpenExr:ImfDeepTiledInputFile.obj
 0001:00132c60       ?isValidTile@DeepTiledInputFile@Imf@@ABE_NHHHH@Z 10133c60 f   OpenExr:ImfDeepTiledInputFile.obj
 0001:00132cc0       ?getTileOrder@DeepTiledInputFile@Imf@@ABEXQAH000@Z 10133cc0 f   OpenExr:ImfDeepTiledInputFile.obj
 0001:00132ce0       ??0TInSliceInfo@?A0x757584a7@Imf@@QAE@W4PixelType@2@PAD0IIH_N2NHH@Z 10133ce0 f   OpenExr:ImfDeepTiledInputFile.obj
 0001:00132d30       ??0TileBuffer@?A0x757584a7@Imf@@QAE@XZ 10133d30 f   OpenExr:ImfDeepTiledInputFile.obj
 0001:00132e00       ??1TileBuffer@?A0x757584a7@Imf@@QAE@XZ 10133e00 f   OpenExr:ImfDeepTiledInputFile.obj
 0001:00132e90       ??0Data@DeepTiledInputFile@Imf@@QAE@H@Z 10133e90 f   OpenExr:ImfDeepTiledInputFile.obj
 0001:00133050       ??1Data@DeepTiledInputFile@Imf@@UAE@XZ 10134050 f   OpenExr:ImfDeepTiledInputFile.obj
 0001:001332a0       ?getSampleCount@Data@DeepTiledInputFile@Imf@@QAEAAHHH@Z 101342a0 f   OpenExr:ImfDeepTiledInputFile.obj
 0001:001332d0       ?readTileData@?A0x757584a7@Imf@@YAXPAUInputStreamMutex@2@PAUData@DeepTiledInputFile@2@HHHHAAPADAA_K3@Z 101342d0 f   OpenExr:ImfDeepTiledInputFile.obj
 0001:001338e0       ?readNextTileData@?A0x757584a7@Imf@@YAXPAUInputStreamMutex@2@PAUData@DeepTiledInputFile@2@AAH222AAPADAA_K4@Z 101348e0 f   OpenExr:ImfDeepTiledInputFile.obj
 0001:00133a20       ??0TileBufferTask@?A0x757584a7@Imf@@QAE@PAVTaskGroup@IlmThread@@PAUData@DeepTiledInputFile@2@PAUTileBuffer@12@@Z 10134a20 f   OpenExr:ImfDeepTiledInputFile.obj
 0001:00133a50       ??1TileBufferTask@?A0x757584a7@Imf@@UAE@XZ 10134a50 f   OpenExr:ImfDeepTiledInputFile.obj
 0001:00133ab0       ?execute@TileBufferTask@?A0x757584a7@Imf@@UAEXXZ 10134ab0 f   OpenExr:ImfDeepTiledInputFile.obj
 0001:00133ed0       ?newTileBufferTask@?A0x757584a7@Imf@@YAPAVTileBufferTask@12@PAVTaskGroup@IlmThread@@PAUData@DeepTiledInputFile@2@HHHHH@Z 10134ed0 f   OpenExr:ImfDeepTiledInputFile.obj
 0001:00133ff0       ??_EData@DeepTiledInputFile@Imf@@UAEPAXI@Z 10134ff0 f i OpenExr:ImfDeepTiledInputFile.obj
 0001:00133ff0       ??_GData@DeepTiledInputFile@Imf@@UAEPAXI@Z 10134ff0 f i OpenExr:ImfDeepTiledInputFile.obj
 0001:00134020       ??_EDeepTiledInputFile@Imf@@UAEPAXI@Z 10135020 f i OpenExr:ImfDeepTiledInputFile.obj
 0001:00134020       ??_GDeepTiledInputFile@Imf@@UAEPAXI@Z 10135020 f i OpenExr:ImfDeepTiledInputFile.obj
 0001:00134050       ??_ETileBufferTask@?A0x757584a7@Imf@@UAEPAXI@Z 10135050 f i OpenExr:ImfDeepTiledInputFile.obj
 0001:00134050       ??_GTileBufferTask@?A0x757584a7@Imf@@UAEPAXI@Z 10135050 f i OpenExr:ImfDeepTiledInputFile.obj
 0001:001340d0       ??0DeepScanLineInputPart@Imf@@QAE@AAVMultiPartInputFile@1@H@Z 101350d0 f   OpenExr:ImfDeepScanLineInputPart.obj
 0001:001340f0       ?fileName@DeepScanLineInputPart@Imf@@QBEPBDXZ 101350f0 f   OpenExr:ImfDeepScanLineInputPart.obj
 0001:00134100       ?header@DeepScanLineInputPart@Imf@@QBEABVHeader@2@XZ 10135100 f   OpenExr:ImfDeepScanLineInputPart.obj
 0001:00134110       ?version@DeepScanLineInputPart@Imf@@QBEHXZ 10135110 f   OpenExr:ImfDeepScanLineInputPart.obj
 0001:00134120       ?setFrameBuffer@DeepScanLineInputPart@Imf@@QAEXABVDeepFrameBuffer@2@@Z 10135120 f   OpenExr:ImfDeepScanLineInputPart.obj
 0001:00134130       ?frameBuffer@DeepScanLineInputPart@Imf@@QBEABVDeepFrameBuffer@2@XZ 10135130 f   OpenExr:ImfDeepScanLineInputPart.obj
 0001:00134140       ?isComplete@DeepScanLineInputPart@Imf@@QBE_NXZ 10135140 f   OpenExr:ImfDeepScanLineInputPart.obj
 0001:00134150       ?readPixels@DeepScanLineInputPart@Imf@@QAEXHH@Z 10135150 f   OpenExr:ImfDeepScanLineInputPart.obj
 0001:00134160       ?readPixels@DeepScanLineInputPart@Imf@@QAEXH@Z 10135160 f   OpenExr:ImfDeepScanLineInputPart.obj
 0001:00134170       ?readPixels@DeepScanLineInputPart@Imf@@QBEXPBDABVDeepFrameBuffer@2@HH@Z 10135170 f   OpenExr:ImfDeepScanLineInputPart.obj
 0001:00134180       ?rawPixelData@DeepScanLineInputPart@Imf@@QAEXHPADAA_K@Z 10135180 f   OpenExr:ImfDeepScanLineInputPart.obj
 0001:00134190       ?readPixelSampleCounts@DeepScanLineInputPart@Imf@@QAEXHH@Z 10135190 f   OpenExr:ImfDeepScanLineInputPart.obj
 0001:001341a0       ?readPixelSampleCounts@DeepScanLineInputPart@Imf@@QAEXH@Z 101351a0 f   OpenExr:ImfDeepScanLineInputPart.obj
 0001:001341b0       ?readPixelSampleCounts@DeepScanLineInputPart@Imf@@QBEXPBDABVDeepFrameBuffer@2@HH@Z 101351b0 f   OpenExr:ImfDeepScanLineInputPart.obj
 0001:001341c0       ?firstScanLineInChunk@DeepScanLineInputPart@Imf@@QBEHH@Z 101351c0 f   OpenExr:ImfDeepScanLineInputPart.obj
 0001:001341d0       ?lastScanLineInChunk@DeepScanLineInputPart@Imf@@QBEHH@Z 101351d0 f   OpenExr:ImfDeepScanLineInputPart.obj
 0001:001341e0       ??0DeepSlice@Imf@@QAE@W4PixelType@1@PADIIIHHN_N2@Z 101351e0 f   OpenExr:ImfDeepFrameBuffer.obj
 0001:00134220       ?insert@DeepFrameBuffer@Imf@@QAEXQBDABUDeepSlice@2@@Z 10135220 f   OpenExr:ImfDeepFrameBuffer.obj
 0001:001343e0       ?insert@DeepFrameBuffer@Imf@@QAEXABV?$basic_string@DU?$char_traits@D@std@@V?$allocator@D@2@@std@@ABUDeepSlice@2@@Z 101353e0 f   OpenExr:ImfDeepFrameBuffer.obj
 0001:00134400       ??ADeepFrameBuffer@Imf@@QAEAAUDeepSlice@1@QBD@Z 10135400 f   OpenExr:ImfDeepFrameBuffer.obj
 0001:001345e0       ??ADeepFrameBuffer@Imf@@QBEABUDeepSlice@1@QBD@Z 101355e0 f   OpenExr:ImfDeepFrameBuffer.obj
 0001:001347c0       ??ADeepFrameBuffer@Imf@@QAEAAUDeepSlice@1@ABV?$basic_string@DU?$char_traits@D@std@@V?$allocator@D@2@@std@@@Z 101357c0 f   OpenExr:ImfDeepFrameBuffer.obj
 0001:001347e0       ??ADeepFrameBuffer@Imf@@QBEABUDeepSlice@1@ABV?$basic_string@DU?$char_traits@D@std@@V?$allocator@D@2@@std@@@Z 101357e0 f   OpenExr:ImfDeepFrameBuffer.obj
 0001:00134800       ?findSlice@DeepFrameBuffer@Imf@@QAEPAUDeepSlice@2@QBD@Z 10135800 f   OpenExr:ImfDeepFrameBuffer.obj
 0001:001348c0       ?findSlice@DeepFrameBuffer@Imf@@QBEPBUDeepSlice@2@QBD@Z 101358c0 f   OpenExr:ImfDeepFrameBuffer.obj
 0001:00134980       ?findSlice@DeepFrameBuffer@Imf@@QAEPAUDeepSlice@2@ABV?$basic_string@DU?$char_traits@D@std@@V?$allocator@D@2@@std@@@Z 10135980 f   OpenExr:ImfDeepFrameBuffer.obj
 0001:001349a0       ?findSlice@DeepFrameBuffer@Imf@@QBEPBUDeepSlice@2@ABV?$basic_string@DU?$char_traits@D@std@@V?$allocator@D@2@@std@@@Z 101359a0 f   OpenExr:ImfDeepFrameBuffer.obj
 0001:001349c0       ?begin@DeepFrameBuffer@Imf@@QAE?AVIterator@12@XZ 101359c0 f   OpenExr:ImfDeepFrameBuffer.obj
 0001:001349d0       ?begin@DeepFrameBuffer@Imf@@QBE?AVConstIterator@12@XZ 101359d0 f   OpenExr:ImfDeepFrameBuffer.obj
 0001:001349e0       ?end@DeepFrameBuffer@Imf@@QAE?AVIterator@12@XZ 101359e0 f   OpenExr:ImfDeepFrameBuffer.obj
 0001:001349f0       ?end@DeepFrameBuffer@Imf@@QBE?AVConstIterator@12@XZ 101359f0 f   OpenExr:ImfDeepFrameBuffer.obj
 0001:00134a00       ?find@DeepFrameBuffer@Imf@@QAE?AVIterator@12@QBD@Z 10135a00 f   OpenExr:ImfDeepFrameBuffer.obj
 0001:00134ab0       ?find@DeepFrameBuffer@Imf@@QBE?AVConstIterator@12@QBD@Z 10135ab0 f   OpenExr:ImfDeepFrameBuffer.obj
 0001:00134b60       ?find@DeepFrameBuffer@Imf@@QAE?AVIterator@12@ABV?$basic_string@DU?$char_traits@D@std@@V?$allocator@D@2@@std@@@Z 10135b60 f   OpenExr:ImfDeepFrameBuffer.obj
 0001:00134b80       ?find@DeepFrameBuffer@Imf@@QBE?AVConstIterator@12@ABV?$basic_string@DU?$char_traits@D@std@@V?$allocator@D@2@@std@@@Z 10135b80 f   OpenExr:ImfDeepFrameBuffer.obj
 0001:00134ba0       ?insertSampleCountSlice@DeepFrameBuffer@Imf@@QAEXABUSlice@2@@Z 10135ba0 f   OpenExr:ImfDeepFrameBuffer.obj
 0001:00134c10       ?getSampleCountSlice@DeepFrameBuffer@Imf@@QBEABUSlice@2@XZ 10135c10 f   OpenExr:ImfDeepFrameBuffer.obj
 0001:00134c20       ??$_Buynode@ABUpiecewise_construct_t@std@@V?$tuple@$$QAVName@Imf@@@2@V?$tuple@$$$V@2@@?$_Tree_buy@U?$pair@$$CBVName@Imf@@UDeepSlice@2@@std@@V?$allocator@U?$pair@$$CBVName@Imf@@UDeepSlice@2@@std@@@2@@std@@QAEPAU?$_Tree_node@U?$pair@$$CBVName@Imf@@UDeepSlice@2@@std@@PAX@1@ABUpiecewise_construct_t@1@$$QAV?$tuple@$$QAVName@Imf@@@1@$$QAV?$tuple@$$$V@1@@Z 10135c20 f i OpenExr:ImfDeepFrameBuffer.obj
 0001:00134ce0       ??$_Insert_at@AAU?$pair@$$CBVName@Imf@@UDeepSlice@2@@std@@PAU?$_Tree_node@U?$pair@$$CBVName@Imf@@UDeepSlice@2@@std@@PAX@2@@?$_Tree@V?$_Tmap_traits@VName@Imf@@UDeepSlice@2@U?$less@VName@Imf@@@std@@V?$allocator@U?$pair@$$CBVName@Imf@@UDeepSlice@2@@std@@@5@$0A@@std@@@std@@IAE?AV?$_Tree_iterator@V?$_Tree_val@U?$_Tree_simple_types@U?$pair@$$CBVName@Imf@@UDeepSlice@2@@std@@@std@@@std@@@1@_NPAU?$_Tree_node@U?$pair@$$CBVName@Imf@@UDeepSlice@2@@std@@PAX@1@AAU?$pair@$$CBVName@Imf@@UDeepSlice@2@@1@1@Z 10135ce0 f i OpenExr:ImfDeepFrameBuffer.obj
 0001:00134ef0       ??$_Insert_hint@AAU?$pair@$$CBVName@Imf@@UDeepSlice@2@@std@@PAU?$_Tree_node@U?$pair@$$CBVName@Imf@@UDeepSlice@2@@std@@PAX@2@@?$_Tree@V?$_Tmap_traits@VName@Imf@@UDeepSlice@2@U?$less@VName@Imf@@@std@@V?$allocator@U?$pair@$$CBVName@Imf@@UDeepSlice@2@@std@@@5@$0A@@std@@@std@@IAE?AV?$_Tree_iterator@V?$_Tree_val@U?$_Tree_simple_types@U?$pair@$$CBVName@Imf@@UDeepSlice@2@@std@@@std@@@std@@@1@V?$_Tree_const_iterator@V?$_Tree_val@U?$_Tree_simple_types@U?$pair@$$CBVName@Imf@@UDeepSlice@2@@std@@@std@@@std@@@1@AAU?$pair@$$CBVName@Imf@@UDeepSlice@2@@1@PAU?$_Tree_node@U?$pair@$$CBVName@Imf@@UDeepSlice@2@@std@@PAX@1@@Z 10135ef0 f i OpenExr:ImfDeepFrameBuffer.obj
 0001:00135150       ??$_Insert_nohint@AAU?$pair@$$CBVName@Imf@@UDeepSlice@2@@std@@PAU?$_Tree_node@U?$pair@$$CBVName@Imf@@UDeepSlice@2@@std@@PAX@2@@?$_Tree@V?$_Tmap_traits@VName@Imf@@UDeepSlice@2@U?$less@VName@Imf@@@std@@V?$allocator@U?$pair@$$CBVName@Imf@@UDeepSlice@2@@std@@@5@$0A@@std@@@std@@IAE?AU?$pair@V?$_Tree_iterator@V?$_Tree_val@U?$_Tree_simple_types@U?$pair@$$CBVName@Imf@@UDeepSlice@2@@std@@@std@@@std@@@std@@_N@1@_NAAU?$pair@$$CBVName@Imf@@UDeepSlice@2@@1@PAU?$_Tree_node@U?$pair@$$CBVName@Imf@@UDeepSlice@2@@std@@PAX@1@@Z 10136150 f i OpenExr:ImfDeepFrameBuffer.obj
 0001:001352f0       ??A?$map@VName@Imf@@UDeepSlice@2@U?$less@VName@Imf@@@std@@V?$allocator@U?$pair@$$CBVName@Imf@@UDeepSlice@2@@std@@@5@@std@@QAEAAUDeepSlice@Imf@@$$QAVName@3@@Z 101362f0 f i OpenExr:ImfDeepFrameBuffer.obj
 0001:00135390       ??0DeepCompositing@Imf@@QAE@XZ 10136390 f   OpenExr:ImfDeepCompositing.obj
 0001:001353a0       ??1DeepCompositing@Imf@@UAE@XZ 101363a0 f   OpenExr:ImfDeepCompositing.obj
 0001:001353b0       ?composite_pixel@DeepCompositing@Imf@@UAEXQAMQAPBMQAPBDHHH@Z 101363b0 f   OpenExr:ImfDeepCompositing.obj
 0001:00135550       ?sort@DeepCompositing@Imf@@UAEXQAHQAPBMQAPBDHHH@Z 10136550 f   OpenExr:ImfDeepCompositing.obj
 0001:00135580       ??$_Adjust_heap@PAHHHUsort_helper@Imf@@@std@@YAXPAHHH$$QAHUsort_helper@Imf@@@Z 10136580 f i OpenExr:ImfDeepCompositing.obj
 0001:00135630       ??$_Insertion_sort1@PAHUsort_helper@Imf@@H@std@@YAXPAH0Usort_helper@Imf@@0@Z 10136630 f i OpenExr:ImfDeepCompositing.obj
 0001:00135730       ??$_Make_heap@PAHHHUsort_helper@Imf@@@std@@YAXPAH0Usort_helper@Imf@@00@Z 10136730 f i OpenExr:ImfDeepCompositing.obj
 0001:00135820       ??$_Med3@PAHUsort_helper@Imf@@@std@@YAXPAH00Usort_helper@Imf@@@Z 10136820 f i OpenExr:ImfDeepCompositing.obj
 0001:00135900       ??$_Median@PAHUsort_helper@Imf@@@std@@YAXPAH00Usort_helper@Imf@@@Z 10136900 f i OpenExr:ImfDeepCompositing.obj
 0001:001359a0       ??$_Push_heap@PAHHHUsort_helper@Imf@@@std@@YAXPAHHH$$QAHUsort_helper@Imf@@@Z 101369a0 f i OpenExr:ImfDeepCompositing.obj
 0001:00135a30       ??$_Sort@PAHHUsort_helper@Imf@@@std@@YAXPAH0HUsort_helper@Imf@@@Z 10136a30 f i OpenExr:ImfDeepCompositing.obj
 0001:00135b10       ??$_Sort_heap@PAHUsort_helper@Imf@@@std@@YAXPAH0Usort_helper@Imf@@@Z 10136b10 f i OpenExr:ImfDeepCompositing.obj
 0001:00135b70       ??$_Unguarded_partition@PAHUsort_helper@Imf@@@std@@YA?AU?$pair@PAHPAH@0@PAH0Usort_helper@Imf@@@Z 10136b70 f i OpenExr:ImfDeepCompositing.obj
 0001:00135f00       ??_GDeepCompositing@Imf@@UAEPAXI@Z 10136f00 f i OpenExr:ImfDeepCompositing.obj
 0001:00135f00       ??_EDeepCompositing@Imf@@UAEPAXI@Z 10136f00 f i OpenExr:ImfDeepCompositing.obj
 0001:00135f22       _IsProcessorFeaturePresent@4 10136f22 f   kernel32:KERNEL32.dll
 0001:00135f28       ?_Lock@?$basic_streambuf@DU?$char_traits@D@std@@@std@@UAEXXZ 10136f28 f   msvcprt:MSVCP120.dll
 0001:00135f2e       ?_Unlock@?$basic_streambuf@DU?$char_traits@D@std@@@std@@UAEXXZ 10136f2e f   msvcprt:MSVCP120.dll
 0001:00135f34       ?imbue@?$basic_streambuf@DU?$char_traits@D@std@@@std@@MAEXABVlocale@2@@Z 10136f34 f   msvcprt:MSVCP120.dll
 0001:00135f3a       ?setbuf@?$basic_streambuf@DU?$char_traits@D@std@@@std@@MAEPAV12@PAD_J@Z 10136f3a f   msvcprt:MSVCP120.dll
 0001:00135f40       ?showmanyc@?$basic_streambuf@DU?$char_traits@D@std@@@std@@MAE_JXZ 10136f40 f   msvcprt:MSVCP120.dll
 0001:00135f46       ?sync@?$basic_streambuf@DU?$char_traits@D@std@@@std@@MAEHXZ 10136f46 f   msvcprt:MSVCP120.dll
 0001:00135f4c       ?uflow@?$basic_streambuf@DU?$char_traits@D@std@@@std@@MAEHXZ 10136f4c f   msvcprt:MSVCP120.dll
 0001:00135f52       ?xsgetn@?$basic_streambuf@DU?$char_traits@D@std@@@std@@MAE_JPAD_J@Z 10136f52 f   msvcprt:MSVCP120.dll
 0001:00135f58       ?xsputn@?$basic_streambuf@DU?$char_traits@D@std@@@std@@MAE_JPBD_J@Z 10136f58 f   msvcprt:MSVCP120.dll
 0001:00135f5e       ??1_Fac_node@std@@QAE@XZ   10136f5e f i msvcprt:locale0_implib.obj
 0001:00135f73       ??1_Fac_tidy_reg_t@std@@QAE@XZ 10136f73 f i msvcprt:locale0_implib.obj
 0001:00135f97       ?_Facet_Register@std@@YAXPAV_Facet_base@1@@Z 10136f97 f   msvcprt:locale0_implib.obj
 0001:00135fc0       __libm_sse2_pow_precise    10136fc0 f   msvcrt:MSVCR120.dll
 0001:00135fc6       _floor                     10136fc6 f   msvcrt:MSVCR120.dll
 0001:00135fcc       __libm_sse2_sqrt_precise   10136fcc f   msvcrt:MSVCR120.dll
 0001:00135fd2       __CIatan2                  10136fd2 f   msvcrt:MSVCR120.dll
 0001:00135fd8       __libm_sse2_cos_precise    10136fd8 f   msvcrt:MSVCR120.dll
 0001:00135fde       __libm_sse2_exp_precise    10136fde f   msvcrt:MSVCR120.dll
 0001:00135fe4       __libm_sse2_log_precise    10136fe4 f   msvcrt:MSVCR120.dll
 0001:00135fea       __libm_sse2_sin_precise    10136fea f   msvcrt:MSVCR120.dll
 0001:00135ff0       __ftol2_sse                10136ff0 f   msvcrt:ftol2.obj
 0001:00135ff9       __ftol2_pentium4           10136ff9 f   msvcrt:ftol2.obj
 0001:0013600c       __ftol2_sse_excpt          1013700c f   msvcrt:ftol2.obj
 0001:00136026       __ftol2                    10137026 f   msvcrt:ftol2.obj
 0001:0013609c       _ceil                      1013709c f   msvcrt:MSVCR120.dll
 0001:001360a2       __libm_sse2_log10_precise  101370a2 f   msvcrt:MSVCR120.dll
 0001:001360b0       __allmul                   101370b0 f   msvcrt:llmul.obj
 0001:001360f0       __aulldiv                  101370f0 f   msvcrt:ulldiv.obj
 0001:00136158       ??0exception@std@@QAE@ABV01@@Z 10137158 f   msvcrt:MSVCR120.dll
 0001:0013615e       ___RTDynamicCast           1013715e f   msvcrt:MSVCR120.dll
 0001:00136164       ??0bad_cast@std@@QAE@ABV01@@Z 10137164 f   msvcrt:MSVCR120.dll
 0001:0013616a       ??1bad_cast@std@@UAE@XZ    1013716a f   msvcrt:MSVCR120.dll
 0001:00136170       __allshl                   10137170 f   msvcrt:llshl.obj
 0001:00136190       __aullshr                  10137190 f   msvcrt:ullshr.obj
 0001:001361b0       _inflateEnd                101371b0 f   zlib1:zlib1.dll
 0001:001361b6       _inflateReset              101371b6 f   zlib1:zlib1.dll
 0001:001361bc       _adler32                   101371bc f   zlib1:zlib1.dll
 0001:001361c2       _crc32                     101371c2 f   zlib1:zlib1.dll
 0001:001361c8       _deflateEnd                101371c8 f   zlib1:zlib1.dll
 0001:001361ce       _inflate                   101371ce f   zlib1:zlib1.dll
 0001:001361d4       _inflateInit_              101371d4 f   zlib1:zlib1.dll
 0001:001361da       _deflate                   101371da f   zlib1:zlib1.dll
 0001:001361e0       _deflateReset              101371e0 f   zlib1:zlib1.dll
 0001:001361e6       _deflateInit2_             101371e6 f   zlib1:zlib1.dll
 0001:001361ec       _compress2                 101371ec f   zlib1:zlib1.dll
 0001:001361f2       _uncompress                101371f2 f   zlib1:zlib1.dll
 0001:001361f8       _compress                  101371f8 f   zlib1:zlib1.dll
 0001:00136200       ??0BaseExc@Iex@@QAE@PBD@Z  10137200 f   IlmBase:IexBaseExc.obj
 0001:001362c0       ??0BaseExc@Iex@@QAE@ABV?$basic_string@DU?$char_traits@D@std@@V?$allocator@D@2@@std@@@Z 101372c0 f   IlmBase:IexBaseExc.obj
 0001:00136380       ??0BaseExc@Iex@@QAE@AAV?$basic_stringstream@DU?$char_traits@D@std@@V?$allocator@D@2@@std@@@Z 10137380 f   IlmBase:IexBaseExc.obj
 0001:00136440       ??0BaseExc@Iex@@QAE@ABV01@@Z 10137440 f   IlmBase:IexBaseExc.obj
 0001:00136480       ??1BaseExc@Iex@@UAE@XZ     10137480 f   IlmBase:IexBaseExc.obj
 0001:001364b0       ?what@BaseExc@Iex@@UBEPBDXZ 101374b0 f   IlmBase:IexBaseExc.obj
 0001:001364c0       ?assign@BaseExc@Iex@@QAEAAV12@AAV?$basic_stringstream@DU?$char_traits@D@std@@V?$allocator@D@2@@std@@@Z 101374c0 f   IlmBase:IexBaseExc.obj
 0001:00136510       ?append@BaseExc@Iex@@QAEAAV12@AAV?$basic_stringstream@DU?$char_traits@D@std@@V?$allocator@D@2@@std@@@Z 10137510 f   IlmBase:IexBaseExc.obj
 0001:00136580       ?setStackTracer@Iex@@YAXP6A?AV?$basic_string@DU?$char_traits@D@std@@V?$allocator@D@2@@std@@XZ@Z 10137580 f   IlmBase:IexBaseExc.obj
 0001:00136590       ?stackTracer@Iex@@YAP6A?AV?$basic_string@DU?$char_traits@D@std@@V?$allocator@D@2@@std@@XZXZ 10137590 f   IlmBase:IexBaseExc.obj
 0001:001365a0       ?iex_debugTrap@@YAXXZ      101375a0 f   IlmBase:IexBaseExc.obj
 0001:001365c0       ??_EBaseExc@Iex@@UAEPAXI@Z 101375c0 f i IlmBase:IexBaseExc.obj
 0001:001365c0       ??_GBaseExc@Iex@@UAEPAXI@Z 101375c0 f i IlmBase:IexBaseExc.obj
 0001:00136600       ?assign@?$basic_string@DU?$char_traits@D@std@@V?$allocator@D@2@@std@@QAEAAV12@$$QAV12@@Z 10137600 f i IlmBase:IexBaseExc.obj
 0001:00136670       ?str@?$basic_stringstream@DU?$char_traits@D@std@@V?$allocator@D@2@@std@@QBE?AV?$basic_string@DU?$char_traits@D@std@@V?$allocator@D@2@@2@XZ 10137670 f i IlmBase:IexBaseExc.obj
 0001:001366b0       ??0Mutex@IlmThread@@QAE@XZ 101376b0 f   IlmBase:IlmThreadMutexWin32.obj
 0001:001366d0       ??1Mutex@IlmThread@@UAE@XZ 101376d0 f   IlmBase:IlmThreadMutexWin32.obj
 0001:001366f0       ?lock@Mutex@IlmThread@@ABEXXZ 101376f0 f   IlmBase:IlmThreadMutexWin32.obj
 0001:00136700       ?unlock@Mutex@IlmThread@@ABEXXZ 10137700 f   IlmBase:IlmThreadMutexWin32.obj
 0001:00136710       ??_EMutex@IlmThread@@UAEPAXI@Z 10137710 f i IlmBase:IlmThreadMutexWin32.obj
 0001:00136710       ??_GMutex@IlmThread@@UAEPAXI@Z 10137710 f i IlmBase:IlmThreadMutexWin32.obj
 0001:00136740       ??0ThreadPool@IlmThread@@QAE@I@Z 10137740 f   IlmBase:IlmThreadPool.obj
 0001:001367c0       ??1ThreadPool@IlmThread@@UAE@XZ 101377c0 f   IlmBase:IlmThreadPool.obj
 0001:001367e0       ?numThreads@ThreadPool@IlmThread@@QBEHXZ 101377e0 f   IlmBase:IlmThreadPool.obj
 0001:00136810       ?setNumThreads@ThreadPool@IlmThread@@QAEXH@Z 10137810 f   IlmBase:IlmThreadPool.obj
 0001:00136a20       ?addTask@ThreadPool@IlmThread@@QAEXPAVTask@2@@Z 10137a20 f   IlmBase:IlmThreadPool.obj
 0001:00136b40       ?globalThreadPool@ThreadPool@IlmThread@@SAAAV12@XZ 10137b40 f   IlmBase:IlmThreadPool.obj
 0001:00136be0       ?addGlobalTask@ThreadPool@IlmThread@@SAXPAVTask@2@@Z 10137be0 f   IlmBase:IlmThreadPool.obj
 0001:00136c00       ??0Task@IlmThread@@QAE@PAVTaskGroup@1@@Z 10137c00 f   IlmBase:IlmThreadPool.obj
 0001:00136c20       ??1Task@IlmThread@@UAE@XZ  10137c20 f   IlmBase:IlmThreadPool.obj
 0001:00136c30       ?group@Task@IlmThread@@QAEPAVTaskGroup@2@XZ 10137c30 f   IlmBase:IlmThreadPool.obj
 0001:00136c40       ??0TaskGroup@IlmThread@@QAE@XZ 10137c40 f   IlmBase:IlmThreadPool.obj
 0001:00136cd0       ??1TaskGroup@IlmThread@@QAE@XZ 10137cd0 f   IlmBase:IlmThreadPool.obj
 0001:00136d50       ??0WorkerThread@?A0x53ba34fe@IlmThread@@QAE@PAUData@ThreadPool@2@@Z 10137d50 f   IlmBase:IlmThreadPool.obj
 0001:00136db0       ?run@WorkerThread@?A0x53ba34fe@IlmThread@@UAEXXZ 10137db0 f   IlmBase:IlmThreadPool.obj
 0001:00136f00       ??0Data@TaskGroup@IlmThread@@QAE@XZ 10137f00 f   IlmBase:IlmThreadPool.obj
 0001:00136f60       ??1Data@TaskGroup@IlmThread@@QAE@XZ 10137f60 f   IlmBase:IlmThreadPool.obj
 0001:00136fe0       ?addTask@Data@TaskGroup@IlmThread@@QAEXXZ 10137fe0 f   IlmBase:IlmThreadPool.obj
 0001:00137000       ?removeTask@Data@TaskGroup@IlmThread@@QAEXXZ 10138000 f   IlmBase:IlmThreadPool.obj
 0001:00137070       ??0Data@ThreadPool@IlmThread@@QAE@XZ 10138070 f   IlmBase:IlmThreadPool.obj
 0001:00137140       ??1Data@ThreadPool@IlmThread@@QAE@XZ 10138140 f   IlmBase:IlmThreadPool.obj
 0001:00137260       ?finish@Data@ThreadPool@IlmThread@@QAEXXZ 10138260 f   IlmBase:IlmThreadPool.obj
 0001:00137390       ?stopped@Data@ThreadPool@IlmThread@@QBE_NXZ 10138390 f   IlmBase:IlmThreadPool.obj
 0001:001373b0       ?stop@Data@ThreadPool@IlmThread@@QAEXXZ 101383b0 f   IlmBase:IlmThreadPool.obj
 0001:001373d0       ??$_Buynode@PAVWorkerThread@?A0x53ba34fe@IlmThread@@@?$_List_buy@PAVWorkerThread@?A0x53ba34fe@IlmThread@@V?$allocator@PAVWorkerThread@?A0x53ba34fe@IlmThread@@@std@@@std@@QAEPAU?$_List_node@PAVWorkerThread@?A0x53ba34fe@IlmThread@@PAX@1@PAU21@0$$QAPAVWorkerThread@?A0x53ba34fe@IlmThread@@@Z 101383d0 f i IlmBase:IlmThreadPool.obj
 0001:001373d0       ??$_Buynode@ABQAVTask@IlmThread@@@?$_List_buy@PAVTask@IlmThread@@V?$allocator@PAVTask@IlmThread@@@std@@@std@@QAEPAU?$_List_node@PAVTask@IlmThread@@PAX@1@PAU21@0ABQAVTask@IlmThread@@@Z 101383d0 f i IlmBase:IlmThreadPool.obj
 0001:001373f0       ??1?$list@PAVWorkerThread@?A0x53ba34fe@IlmThread@@V?$allocator@PAVWorkerThread@?A0x53ba34fe@IlmThread@@@std@@@std@@QAE@XZ 101383f0 f i IlmBase:IlmThreadPool.obj
 0001:001373f0       ??1?$list@PAVTask@IlmThread@@V?$allocator@PAVTask@IlmThread@@@std@@@std@@QAE@XZ 101383f0 f i IlmBase:IlmThreadPool.obj
 0001:00137430       ??_ETask@IlmThread@@UAEPAXI@Z 10138430 f i IlmBase:IlmThreadPool.obj
 0001:00137430       ??_GTask@IlmThread@@UAEPAXI@Z 10138430 f i IlmBase:IlmThreadPool.obj
 0001:00137460       ??_EThreadPool@IlmThread@@UAEPAXI@Z 10138460 f i IlmBase:IlmThreadPool.obj
 0001:00137460       ??_GThreadPool@IlmThread@@UAEPAXI@Z 10138460 f i IlmBase:IlmThreadPool.obj
 0001:001374a0       ??_EWorkerThread@?A0x53ba34fe@IlmThread@@UAEPAXI@Z 101384a0 f i IlmBase:IlmThreadPool.obj
 0001:001374a0       ??_GWorkerThread@?A0x53ba34fe@IlmThread@@UAEPAXI@Z 101384a0 f i IlmBase:IlmThreadPool.obj
 0001:001374d0       ?_Buynode0@?$_List_alloc@$0A@U?$_List_base_types@PAVTask@IlmThread@@V?$allocator@PAVTask@IlmThread@@@std@@@std@@@std@@QAEPAU?$_List_node@PAVTask@IlmThread@@PAX@2@PAU32@0@Z 101384d0 f i IlmBase:IlmThreadPool.obj
 0001:001374d0       ?_Buynode0@?$_List_alloc@$0A@U?$_List_base_types@PAVWorkerThread@?A0x53ba34fe@IlmThread@@V?$allocator@PAVWorkerThread@?A0x53ba34fe@IlmThread@@@std@@@std@@@std@@QAEPAU?$_List_node@PAVWorkerThread@?A0x53ba34fe@IlmThread@@PAX@2@PAU32@0@Z 101384d0 f i IlmBase:IlmThreadPool.obj
 0001:00137510       ?throwErrnoExc@Iex@@YAXABV?$basic_string@DU?$char_traits@D@std@@V?$allocator@D@2@@std@@H@Z 10138510 f   IlmBase:IexThrowErrnoExc.obj
 0001:00138410       ?throwErrnoExc@Iex@@YAXABV?$basic_string@DU?$char_traits@D@std@@V?$allocator@D@2@@std@@@Z 10139410 f   IlmBase:IexThrowErrnoExc.obj
 0001:00138430       ?throwErrnoExc@Iex@@YAXXZ  10139430 f   IlmBase:IexThrowErrnoExc.obj
 0001:001384a0       ??0E2bigExc@Iex@@QAE@ABV01@@Z 101394a0 f i IlmBase:IexThrowErrnoExc.obj
 0001:001384c0       ??0EaccesExc@Iex@@QAE@ABV01@@Z 101394c0 f i IlmBase:IexThrowErrnoExc.obj
 0001:001384e0       ??0EaddrinuseExc@Iex@@QAE@ABV01@@Z 101394e0 f i IlmBase:IexThrowErrnoExc.obj
 0001:00138500       ??0EaddrnotavailExc@Iex@@QAE@ABV01@@Z 10139500 f i IlmBase:IexThrowErrnoExc.obj
 0001:00138520       ??0EafnosupportExc@Iex@@QAE@ABV01@@Z 10139520 f i IlmBase:IexThrowErrnoExc.obj
 0001:00138540       ??0EagainExc@Iex@@QAE@ABV01@@Z 10139540 f i IlmBase:IexThrowErrnoExc.obj
 0001:00138560       ??0EalreadyExc@Iex@@QAE@ABV01@@Z 10139560 f i IlmBase:IexThrowErrnoExc.obj
 0001:00138580       ??0EbadfExc@Iex@@QAE@ABV01@@Z 10139580 f i IlmBase:IexThrowErrnoExc.obj
 0001:001385a0       ??0EbadmsgExc@Iex@@QAE@ABV01@@Z 101395a0 f i IlmBase:IexThrowErrnoExc.obj
 0001:001385c0       ??0EbusyExc@Iex@@QAE@ABV01@@Z 101395c0 f i IlmBase:IexThrowErrnoExc.obj
 0001:001385e0       ??0EcanceledExc@Iex@@QAE@ABV01@@Z 101395e0 f i IlmBase:IexThrowErrnoExc.obj
 0001:00138600       ??0EchildExc@Iex@@QAE@ABV01@@Z 10139600 f i IlmBase:IexThrowErrnoExc.obj
 0001:00138620       ??0EconnabortedExc@Iex@@QAE@ABV01@@Z 10139620 f i IlmBase:IexThrowErrnoExc.obj
 0001:00138640       ??0EconnrefusedExc@Iex@@QAE@ABV01@@Z 10139640 f i IlmBase:IexThrowErrnoExc.obj
 0001:00138660       ??0EconnresetExc@Iex@@QAE@ABV01@@Z 10139660 f i IlmBase:IexThrowErrnoExc.obj
 0001:00138680       ??0EdeadlkExc@Iex@@QAE@ABV01@@Z 10139680 f i IlmBase:IexThrowErrnoExc.obj
 0001:001386a0       ??0EdestaddrreqExc@Iex@@QAE@ABV01@@Z 101396a0 f i IlmBase:IexThrowErrnoExc.obj
 0001:001386c0       ??0EdomExc@Iex@@QAE@ABV01@@Z 101396c0 f i IlmBase:IexThrowErrnoExc.obj
 0001:001386e0       ??0EexistExc@Iex@@QAE@ABV01@@Z 101396e0 f i IlmBase:IexThrowErrnoExc.obj
 0001:00138700       ??0EfaultExc@Iex@@QAE@ABV01@@Z 10139700 f i IlmBase:IexThrowErrnoExc.obj
 0001:00138720       ??0EfbigExc@Iex@@QAE@ABV01@@Z 10139720 f i IlmBase:IexThrowErrnoExc.obj
 0001:00138740       ??0EhostunreachExc@Iex@@QAE@ABV01@@Z 10139740 f i IlmBase:IexThrowErrnoExc.obj
 0001:00138760       ??0EidrmExc@Iex@@QAE@ABV01@@Z 10139760 f i IlmBase:IexThrowErrnoExc.obj
 0001:00138780       ??0EilseqExc@Iex@@QAE@ABV01@@Z 10139780 f i IlmBase:IexThrowErrnoExc.obj
 0001:001387a0       ??0EinprogressExc@Iex@@QAE@ABV01@@Z 101397a0 f i IlmBase:IexThrowErrnoExc.obj
 0001:001387c0       ??0EintrExc@Iex@@QAE@ABV01@@Z 101397c0 f i IlmBase:IexThrowErrnoExc.obj
 0001:001387e0       ??0EinvalExc@Iex@@QAE@ABV01@@Z 101397e0 f i IlmBase:IexThrowErrnoExc.obj
 0001:00138800       ??0EioExc@Iex@@QAE@ABV01@@Z 10139800 f i IlmBase:IexThrowErrnoExc.obj
 0001:00138820       ??0EisconnExc@Iex@@QAE@ABV01@@Z 10139820 f i IlmBase:IexThrowErrnoExc.obj
 0001:00138840       ??0EisdirExc@Iex@@QAE@ABV01@@Z 10139840 f i IlmBase:IexThrowErrnoExc.obj
 0001:00138860       ??0EloopExc@Iex@@QAE@ABV01@@Z 10139860 f i IlmBase:IexThrowErrnoExc.obj
 0001:00138880       ??0EmfileExc@Iex@@QAE@ABV01@@Z 10139880 f i IlmBase:IexThrowErrnoExc.obj
 0001:001388a0       ??0EmlinkExc@Iex@@QAE@ABV01@@Z 101398a0 f i IlmBase:IexThrowErrnoExc.obj
 0001:001388c0       ??0EmsgsizeExc@Iex@@QAE@ABV01@@Z 101398c0 f i IlmBase:IexThrowErrnoExc.obj
 0001:001388e0       ??0EnametoolongExc@Iex@@QAE@ABV01@@Z 101398e0 f i IlmBase:IexThrowErrnoExc.obj
 0001:00138900       ??0EnetdownExc@Iex@@QAE@ABV01@@Z 10139900 f i IlmBase:IexThrowErrnoExc.obj
 0001:00138920       ??0EnetresetExc@Iex@@QAE@ABV01@@Z 10139920 f i IlmBase:IexThrowErrnoExc.obj
 0001:00138940       ??0EnetunreachExc@Iex@@QAE@ABV01@@Z 10139940 f i IlmBase:IexThrowErrnoExc.obj
 0001:00138960       ??0EnfileExc@Iex@@QAE@ABV01@@Z 10139960 f i IlmBase:IexThrowErrnoExc.obj
 0001:00138980       ??0EnobufsExc@Iex@@QAE@ABV01@@Z 10139980 f i IlmBase:IexThrowErrnoExc.obj
 0001:001389a0       ??0EnodataExc@Iex@@QAE@ABV01@@Z 101399a0 f i IlmBase:IexThrowErrnoExc.obj
 0001:001389c0       ??0EnodevExc@Iex@@QAE@ABV01@@Z 101399c0 f i IlmBase:IexThrowErrnoExc.obj
 0001:001389e0       ??0EnoentExc@Iex@@QAE@ABV01@@Z 101399e0 f i IlmBase:IexThrowErrnoExc.obj
 0001:00138a00       ??0EnoexecExc@Iex@@QAE@ABV01@@Z 10139a00 f i IlmBase:IexThrowErrnoExc.obj
 0001:00138a20       ??0EnolckExc@Iex@@QAE@ABV01@@Z 10139a20 f i IlmBase:IexThrowErrnoExc.obj
 0001:00138a40       ??0EnolinkExc@Iex@@QAE@ABV01@@Z 10139a40 f i IlmBase:IexThrowErrnoExc.obj
 0001:00138a60       ??0EnomemExc@Iex@@QAE@ABV01@@Z 10139a60 f i IlmBase:IexThrowErrnoExc.obj
 0001:00138a80       ??0EnomsgExc@Iex@@QAE@ABV01@@Z 10139a80 f i IlmBase:IexThrowErrnoExc.obj
 0001:00138aa0       ??0EnoprotooptExc@Iex@@QAE@ABV01@@Z 10139aa0 f i IlmBase:IexThrowErrnoExc.obj
 0001:00138ac0       ??0EnospcExc@Iex@@QAE@ABV01@@Z 10139ac0 f i IlmBase:IexThrowErrnoExc.obj
 0001:00138ae0       ??0EnosrExc@Iex@@QAE@ABV01@@Z 10139ae0 f i IlmBase:IexThrowErrnoExc.obj
 0001:00138b00       ??0EnostrExc@Iex@@QAE@ABV01@@Z 10139b00 f i IlmBase:IexThrowErrnoExc.obj
 0001:00138b20       ??0EnosysExc@Iex@@QAE@ABV01@@Z 10139b20 f i IlmBase:IexThrowErrnoExc.obj
 0001:00138b40       ??0EnotconnExc@Iex@@QAE@ABV01@@Z 10139b40 f i IlmBase:IexThrowErrnoExc.obj
 0001:00138b60       ??0EnotdirExc@Iex@@QAE@ABV01@@Z 10139b60 f i IlmBase:IexThrowErrnoExc.obj
 0001:00138b80       ??0EnotemptyExc@Iex@@QAE@ABV01@@Z 10139b80 f i IlmBase:IexThrowErrnoExc.obj
 0001:00138ba0       ??0EnotsockExc@Iex@@QAE@ABV01@@Z 10139ba0 f i IlmBase:IexThrowErrnoExc.obj
 0001:00138bc0       ??0EnotsupExc@Iex@@QAE@ABV01@@Z 10139bc0 f i IlmBase:IexThrowErrnoExc.obj
 0001:00138be0       ??0EnottyExc@Iex@@QAE@ABV01@@Z 10139be0 f i IlmBase:IexThrowErrnoExc.obj
 0001:00138c00       ??0EnxioExc@Iex@@QAE@ABV01@@Z 10139c00 f i IlmBase:IexThrowErrnoExc.obj
 0001:00138c20       ??0EopnotsuppExc@Iex@@QAE@ABV01@@Z 10139c20 f i IlmBase:IexThrowErrnoExc.obj
 0001:00138c40       ??0EoverflowExc@Iex@@QAE@ABV01@@Z 10139c40 f i IlmBase:IexThrowErrnoExc.obj
 0001:00138c60       ??0EpermExc@Iex@@QAE@ABV01@@Z 10139c60 f i IlmBase:IexThrowErrnoExc.obj
 0001:00138c80       ??0EpipeExc@Iex@@QAE@ABV01@@Z 10139c80 f i IlmBase:IexThrowErrnoExc.obj
 0001:00138ca0       ??0EprotoExc@Iex@@QAE@ABV01@@Z 10139ca0 f i IlmBase:IexThrowErrnoExc.obj
 0001:00138cc0       ??0EprotonosupportExc@Iex@@QAE@ABV01@@Z 10139cc0 f i IlmBase:IexThrowErrnoExc.obj
 0001:00138ce0       ??0EprototypeExc@Iex@@QAE@ABV01@@Z 10139ce0 f i IlmBase:IexThrowErrnoExc.obj
